{
   <insert_a_suppression_name_here>
   Memcheck:Cond
   fun:gleUpdateState
   fun:gleInitializeContext
   fun:gliCreateContext
   fun:CGLCreateContext
   fun:-[NSOpenGLContext initWithFormat:shareContext:]
   fun:_ZN10QGLContext13chooseContextEPKS_
   fun:_ZN10QGLContext6createEPKS_
   fun:_ZN9QGLWidget10setContextEP10QGLContextPKS0_b
   fun:_ZN16QGLWidgetPrivate11initContextEP10QGLContextPK9QGLWidget
   fun:_ZN16QGLWidgetPrivate4initEP10QGLContextPK9QGLWidget
   fun:_ZN9QGLWidgetC2ERK9QGLFormatP7QWidgetPKS_6QFlagsIN2Qt10WindowTypeEE
   fun:_ZN8GLWidgetC1EP7QWidget
}
{
   <insert_a_suppression_name_here>
   Memcheck:Cond
   fun:gleUpdateLightColorChangeFunc
   fun:gleUpdateState
   fun:gleInitializeContext
   fun:gliCreateContext
   fun:CGLCreateContext
   fun:-[NSOpenGLContext initWithFormat:shareContext:]
   fun:_ZN10QGLContext13chooseContextEPKS_
   fun:_ZN10QGLContext6createEPKS_
   fun:_ZN9QGLWidget10setContextEP10QGLContextPKS0_b
   fun:_ZN16QGLWidgetPrivate11initContextEP10QGLContextPK9QGLWidget
   fun:_ZN16QGLWidgetPrivate4initEP10QGLContextPK9QGLWidget
   fun:_ZN9QGLWidgetC2ERK9QGLFormatP7QWidgetPKS_6QFlagsIN2Qt10WindowTypeEE
}
{
   <insert_a_suppression_name_here>
   Memcheck:Cond
   fun:gleUpdateLightPosition
   fun:gleUpdateState
   fun:gleInitializeContext
   fun:gliCreateContext
   fun:CGLCreateContext
   fun:-[NSOpenGLContext initWithFormat:shareContext:]
   fun:_ZN10QGLContext13chooseContextEPKS_
   fun:_ZN10QGLContext6createEPKS_
   fun:_ZN9QGLWidget10setContextEP10QGLContextPKS0_b
   fun:_ZN16QGLWidgetPrivate11initContextEP10QGLContextPK9QGLWidget
   fun:_ZN16QGLWidgetPrivate4initEP10QGLContextPK9QGLWidget
   fun:_ZN9QGLWidgetC2ERK9QGLFormatP7QWidgetPKS_6QFlagsIN2Qt10WindowTypeEE
}
{
   <insert_a_suppression_name_here>
   Memcheck:Cond
   fun:gleUpdateLightPosition
   fun:gleUpdateState
   fun:gleInitializeContext
   fun:gliCreateContext
   fun:CGLCreateContext
   fun:-[NSOpenGLContext initWithFormat:shareContext:]
   fun:_ZN10QGLContext13chooseContextEPKS_
   fun:_ZN10QGLContext6createEPKS_
   fun:_ZN9QGLWidget10setContextEP10QGLContextPKS0_b
   fun:_ZN16QGLWidgetPrivate11initContextEP10QGLContextPK9QGLWidget
   fun:_ZN16QGLWidgetPrivate4initEP10QGLContextPK9QGLWidget
   fun:_ZN9QGLWidgetC2ERK9QGLFormatP7QWidgetPKS_6QFlagsIN2Qt10WindowTypeEE
}
{
   <insert_a_suppression_name_here>
   Memcheck:Cond
   fun:_Z4qMinIiERKT_S2_S2_
   fun:_ZN8GLWidget8resizeGLEii
   fun:_ZN9QGLWidget6glDrawEv
   fun:_ZN8GLWidget12setXRotationEi
   fun:_ZN8GLWidget11qt_metacallEN11QMetaObject4CallEiPPv
   fun:_ZN11QMetaObject8activateEP7QObjectPKS_iPPv
   fun:_ZN15QAbstractSlider12valueChangedEi
   fun:_ZN15QAbstractSlider8setValueEi
   fun:_ZN6WindowC1Ev
   fun:main
}
{
   <insert_a_suppression_name_here>
   Memcheck:Cond
   fun:glViewport_Exec
   fun:_ZN8GLWidget8resizeGLEii
   fun:_ZN9QGLWidget6glDrawEv
   fun:_ZN8GLWidget12setXRotationEi
   fun:_ZN8GLWidget11qt_metacallEN11QMetaObject4CallEiPPv
   fun:_ZN11QMetaObject8activateEP7QObjectPKS_iPPv
   fun:_ZN15QAbstractSlider12valueChangedEi
   fun:_ZN15QAbstractSlider8setValueEi
   fun:_ZN6WindowC1Ev
   fun:main
}
{
   <insert_a_suppression_name_here>
   Memcheck:Cond
   fun:glViewport_Exec
   fun:_ZN8GLWidget8resizeGLEii
   fun:_ZN9QGLWidget6glDrawEv
   fun:_ZN8GLWidget12setXRotationEi
   fun:_ZN8GLWidget11qt_metacallEN11QMetaObject4CallEiPPv
   fun:_ZN11QMetaObject8activateEP7QObjectPKS_iPPv
   fun:_ZN15QAbstractSlider12valueChangedEi
   fun:_ZN15QAbstractSlider8setValueEi
   fun:_ZN6WindowC1Ev
   fun:main
}
{
   <insert_a_suppression_name_here>
   Memcheck:Cond
   fun:glViewport_Exec
   fun:_ZN8GLWidget8resizeGLEii
   fun:_ZN9QGLWidget6glDrawEv
   fun:_ZN8GLWidget12setXRotationEi
   fun:_ZN8GLWidget11qt_metacallEN11QMetaObject4CallEiPPv
   fun:_ZN11QMetaObject8activateEP7QObjectPKS_iPPv
   fun:_ZN15QAbstractSlider12valueChangedEi
   fun:_ZN15QAbstractSlider8setValueEi
   fun:_ZN6WindowC1Ev
   fun:main
}
{
   <insert_a_suppression_name_here>
   Memcheck:Cond
   fun:glViewport_Exec
   fun:_ZN8GLWidget8resizeGLEii
   fun:_ZN9QGLWidget6glDrawEv
   fun:_ZN8GLWidget12setXRotationEi
   fun:_ZN8GLWidget11qt_metacallEN11QMetaObject4CallEiPPv
   fun:_ZN11QMetaObject8activateEP7QObjectPKS_iPPv
   fun:_ZN15QAbstractSlider12valueChangedEi
   fun:_ZN15QAbstractSlider8setValueEi
   fun:_ZN6WindowC1Ev
   fun:main
}
{
   <insert_a_suppression_name_here>
   Memcheck:Cond
   fun:glViewport_Exec
   fun:_ZN8GLWidget8resizeGLEii
   fun:_ZN9QGLWidget6glDrawEv
   fun:_ZN8GLWidget12setXRotationEi
   fun:_ZN8GLWidget11qt_metacallEN11QMetaObject4CallEiPPv
   fun:_ZN11QMetaObject8activateEP7QObjectPKS_iPPv
   fun:_ZN15QAbstractSlider12valueChangedEi
   fun:_ZN15QAbstractSlider8setValueEi
   fun:_ZN6WindowC1Ev
   fun:main
}
{
   <insert_a_suppression_name_here>
   Memcheck:Cond
   fun:glViewport_Exec
   fun:_ZN8GLWidget8resizeGLEii
   fun:_ZN9QGLWidget6glDrawEv
   fun:_ZN8GLWidget12setXRotationEi
   fun:_ZN8GLWidget11qt_metacallEN11QMetaObject4CallEiPPv
   fun:_ZN11QMetaObject8activateEP7QObjectPKS_iPPv
   fun:_ZN15QAbstractSlider12valueChangedEi
   fun:_ZN15QAbstractSlider8setValueEi
   fun:_ZN6WindowC1Ev
   fun:main
}
{
   <insert_a_suppression_name_here>
   Memcheck:Cond
   fun:glViewport_Exec
   fun:_ZN8GLWidget8resizeGLEii
   fun:_ZN9QGLWidget6glDrawEv
   fun:_ZN8GLWidget12setXRotationEi
   fun:_ZN8GLWidget11qt_metacallEN11QMetaObject4CallEiPPv
   fun:_ZN11QMetaObject8activateEP7QObjectPKS_iPPv
   fun:_ZN15QAbstractSlider12valueChangedEi
   fun:_ZN15QAbstractSlider8setValueEi
   fun:_ZN6WindowC1Ev
   fun:main
}
{
   <insert_a_suppression_name_here>
   Memcheck:Cond
   fun:glVertexPointer_Exec
   fun:_ZNK8Geometry10loadArraysEv
   fun:_ZNK6QtLogo4drawEv
   fun:_ZN8GLWidget7paintGLEv
   fun:_ZN9QGLWidget6glDrawEv
   fun:_ZN8GLWidget12setXRotationEi
   fun:_ZN8GLWidget11qt_metacallEN11QMetaObject4CallEiPPv
   fun:_ZN11QMetaObject8activateEP7QObjectPKS_iPPv
   fun:_ZN15QAbstractSlider12valueChangedEi
   fun:_ZN15QAbstractSlider8setValueEi
   fun:_ZN6WindowC1Ev
   fun:main
}
{
   <insert_a_suppression_name_here>
   Memcheck:Cond
   fun:glNormalPointer_Exec
   fun:_ZNK8Geometry10loadArraysEv
   fun:_ZNK6QtLogo4drawEv
   fun:_ZN8GLWidget7paintGLEv
   fun:_ZN9QGLWidget6glDrawEv
   fun:_ZN8GLWidget12setXRotationEi
   fun:_ZN8GLWidget11qt_metacallEN11QMetaObject4CallEiPPv
   fun:_ZN11QMetaObject8activateEP7QObjectPKS_iPPv
   fun:_ZN15QAbstractSlider12valueChangedEi
   fun:_ZN15QAbstractSlider8setValueEi
   fun:_ZN6WindowC1Ev
   fun:main
}
{
   <insert_a_suppression_name_here>
   Memcheck:Cond
   fun:_DPSNextEvent
   fun:-[NSApplication nextEventMatchingMask:untilDate:inMode:dequeue:]
   fun:-[NSApplication run]
   fun:_ZN19QEventDispatcherMac13processEventsE6QFlagsIN10QEventLoop17ProcessEventsFlagEE
   fun:_ZN10QEventLoop13processEventsE6QFlagsINS_17ProcessEventsFlagEE
   fun:_ZN10QEventLoop4execE6QFlagsINS_17ProcessEventsFlagEE
   fun:_ZN16QCoreApplication4execEv
   fun:main
}
{
   <insert_a_suppression_name_here>
   Memcheck:Cond
   fun:_DPSNextEvent
   fun:-[NSApplication nextEventMatchingMask:untilDate:inMode:dequeue:]
   fun:-[NSApplication run]
   fun:_ZN19QEventDispatcherMac13processEventsE6QFlagsIN10QEventLoop17ProcessEventsFlagEE
   fun:_ZN10QEventLoop13processEventsE6QFlagsINS_17ProcessEventsFlagEE
   fun:_ZN10QEventLoop4execE6QFlagsINS_17ProcessEventsFlagEE
   fun:_ZN16QCoreApplication4execEv
   fun:main
}
{
   <insert_a_suppression_name_here>
   Memcheck:Cond
   fun:_ZNK6QColoreqERKS_
   fun:_ZNK6QColorneERKS_
   fun:_ZNK6QBrusheqERKS_
   fun:_ZNK8QPaletteeqERKS_
   fun:_ZN19QApplicationPrivate27initializeWidgetPaletteHashEv
   fun:_Z25qt_mac_update_os_settingsv
   fun:_Z30onApplicationChangedActivationb
   fun:_nsnote_callback
   fun:__CFXNotificationPost
   fun:_CFXNotificationPostNotification
   fun:-[NSNotificationCenter postNotificationName:object:userInfo:]
   fun:-[NSApplication sendEvent:]
}
{
   <insert_a_suppression_name_here>
   Memcheck:Cond
   fun:_ZNK6QColoreqERKS_
   fun:_ZNK6QColorneERKS_
   fun:_ZNK6QBrusheqERKS_
   fun:_ZNK8QPaletteeqERKS_
   fun:_ZN19QApplicationPrivate27initializeWidgetPaletteHashEv
   fun:_Z25qt_mac_update_os_settingsv
   fun:_Z30onApplicationChangedActivationb
   fun:_nsnote_callback
   fun:__CFXNotificationPost
   fun:_CFXNotificationPostNotification
   fun:-[NSNotificationCenter postNotificationName:object:userInfo:]
   fun:-[NSApplication sendEvent:]
}
{
   <insert_a_suppression_name_here>
   Memcheck:Cond
   fun:NSCellImageRectWithSize_centeredInRect_scaling_referenceContext_flipped_
   fun:-[NSThemeDocumentButtonCell drawWithFrame:inView:]
   fun:-[NSControl drawRect:]
   fun:-[NSView _drawRect:clip:]
   fun:-[NSView _recursiveDisplayAllDirtyWithLockFocus:visRect:]
   fun:-[NSView _recursiveDisplayAllDirtyWithLockFocus:visRect:]
   fun:-[NSView _recursiveDisplayRectIfNeededIgnoringOpacity:isVisibleRect:rectIsVisibleRectForView:topView:]
   fun:-[NSThemeFrame _recursiveDisplayRectIfNeededIgnoringOpacity:isVisibleRect:rectIsVisibleRectForView:topView:]
   fun:-[NSView _displayRectIgnoringOpacity:isVisibleRect:rectIsVisibleRectForView:]
   fun:-[NSView displayIfNeeded]
   fun:-[QCocoaWindow displayIfNeeded]
   fun:_handleWindowNeedsDisplay
}
{
   <insert_a_suppression_name_here>
   Memcheck:Cond
   fun:NSCellImageRectWithSize_centeredInRect_scaling_referenceContext_flipped_
   fun:-[NSThemeDocumentButtonCell drawWithFrame:inView:]
   fun:-[NSControl drawRect:]
   fun:-[NSView _drawRect:clip:]
   fun:-[NSView _recursiveDisplayAllDirtyWithLockFocus:visRect:]
   fun:-[NSView _recursiveDisplayAllDirtyWithLockFocus:visRect:]
   fun:-[NSView _recursiveDisplayRectIfNeededIgnoringOpacity:isVisibleRect:rectIsVisibleRectForView:topView:]
   fun:-[NSThemeFrame _recursiveDisplayRectIfNeededIgnoringOpacity:isVisibleRect:rectIsVisibleRectForView:topView:]
   fun:-[NSView _displayRectIgnoringOpacity:isVisibleRect:rectIsVisibleRectForView:]
   fun:-[NSView displayIfNeeded]
   fun:-[QCocoaWindow displayIfNeeded]
   fun:_handleWindowNeedsDisplay
}
{
   <insert_a_suppression_name_here>
   Memcheck:Cond
   fun:round$fenv_access_off
   fun:-[NSThemeDocumentButtonCell drawWithFrame:inView:]
   fun:-[NSControl drawRect:]
   fun:-[NSView _drawRect:clip:]
   fun:-[NSView _recursiveDisplayAllDirtyWithLockFocus:visRect:]
   fun:-[NSView _recursiveDisplayAllDirtyWithLockFocus:visRect:]
   fun:-[NSView _recursiveDisplayRectIfNeededIgnoringOpacity:isVisibleRect:rectIsVisibleRectForView:topView:]
   fun:-[NSThemeFrame _recursiveDisplayRectIfNeededIgnoringOpacity:isVisibleRect:rectIsVisibleRectForView:topView:]
   fun:-[NSView _displayRectIgnoringOpacity:isVisibleRect:rectIsVisibleRectForView:]
   fun:-[NSView displayIfNeeded]
   fun:-[QCocoaWindow displayIfNeeded]
   fun:_handleWindowNeedsDisplay
}
{
   <insert_a_suppression_name_here>
   Memcheck:Cond
   fun:floor$fenv_access_off
   fun:-[NSThemeDocumentButtonCell drawWithFrame:inView:]
   fun:-[NSControl drawRect:]
   fun:-[NSView _drawRect:clip:]
   fun:-[NSView _recursiveDisplayAllDirtyWithLockFocus:visRect:]
   fun:-[NSView _recursiveDisplayAllDirtyWithLockFocus:visRect:]
   fun:-[NSView _recursiveDisplayRectIfNeededIgnoringOpacity:isVisibleRect:rectIsVisibleRectForView:topView:]
   fun:-[NSThemeFrame _recursiveDisplayRectIfNeededIgnoringOpacity:isVisibleRect:rectIsVisibleRectForView:topView:]
   fun:-[NSView _displayRectIgnoringOpacity:isVisibleRect:rectIsVisibleRectForView:]
   fun:-[NSView displayIfNeeded]
   fun:-[QCocoaWindow displayIfNeeded]
   fun:_handleWindowNeedsDisplay
}
{
   <insert_a_suppression_name_here>
   Memcheck:Leak
   fun:malloc
   fun:strdup
   fun:si_module_static_ds
   fun:si_module_with_name
   fun:init_optional_modules
   fun:si_module_static_search
   fun:si_module_with_name
   fun:si_search
   fun:getpwuid
   fun:_CFUpdateUserInfo
   fun:_CFUserName
   fun:__CFXPreferencesGetManagedSourceForBundleIDAndUser
}
{
   <insert_a_suppression_name_here>
   Memcheck:Leak
   fun:malloc
   fun:uprv_strdup
   fun:ucol_openRules
   fun:__CFStringCreateCollator
   fun:_CFCompareStringsWithLocale
   fun:CFStringCompareWithOptionsAndLocale
   fun:_Z35CompareOtherNamesLocalizedExclusivePK10__CFStringS1_S1_PK9TBaseFont
   fun:_Z26CompareOtherNamesExclusivePK10__CFStringS1_S1_PK9TBaseFont
   fun:_Z11CompareNamePK10__CFStringPK9TBaseFont
   fun:_ZNK17TDescriptorSource33CopyDescriptorForRequestFromArrayEPK9__CFArrayPK14__CFDictionaryPFlPKvS7_PvES8_m
   fun:_ZNK20TSplicedFontStashImp28CopySplicedDescriptorForNameEPK10__CFString
   fun:_ZNK17TDescriptorSource35CopyFontDescriptorPerPostscriptNameEPK10__CFStringm
}
{
   <insert_a_suppression_name_here>
   Memcheck:Leak
   fun:malloc
   fun:uprv_strdup
   fun:ucol_openRules
   fun:__CFStringCreateCollator
   fun:_CFCompareStringsWithLocale
   fun:CFStringCompareWithOptionsAndLocale
   fun:_Z35CompareOtherNamesLocalizedExclusivePK10__CFStringS1_S1_PK9TBaseFont
   fun:_Z26CompareOtherNamesExclusivePK10__CFStringS1_S1_PK9TBaseFont
   fun:_Z11CompareNamePK10__CFStringPK9TBaseFont
   fun:_ZNK17TDescriptorSource33CopyDescriptorForRequestFromArrayEPK9__CFArrayPK14__CFDictionaryPFlPKvS7_PvES8_m
   fun:_ZNK20TSplicedFontStashImp28CopySplicedDescriptorForNameEPK10__CFString
   fun:_ZNK17TDescriptorSource35CopyFontDescriptorPerPostscriptNameEPK10__CFStringm
}
{
   <insert_a_suppression_name_here>
   Memcheck:Leak
   fun:malloc
   fun:uprv_strdup
   fun:ucol_openRules
   fun:__CFStringCreateCollator
   fun:_CFCompareStringsWithLocale
   fun:CFStringCompareWithOptionsAndLocale
   fun:_Z35CompareOtherNamesLocalizedExclusivePK10__CFStringS1_S1_PK9TBaseFont
   fun:_Z26CompareOtherNamesExclusivePK10__CFStringS1_S1_PK9TBaseFont
   fun:_Z11CompareNamePK10__CFStringPK9TBaseFont
   fun:_ZNK17TDescriptorSource33CopyDescriptorForRequestFromArrayEPK9__CFArrayPK14__CFDictionaryPFlPKvS7_PvES8_m
   fun:_ZNK20TSplicedFontStashImp28CopySplicedDescriptorForNameEPK10__CFString
   fun:_ZNK17TDescriptorSource35CopyFontDescriptorPerPostscriptNameEPK10__CFStringm
}
{
   <insert_a_suppression_name_here>
   Memcheck:Leak
   fun:malloc
   fun:_CGSConnectionInitialize
   fun:cg_setup
   fun:pthread_once
   fun:CGSGetDisplayList
   fun:initDisplays
   fun:CGDisplayRegisterReconfigurationCallback
   fun:_Z7qt_initP19QApplicationPrivatei
   fun:_ZN19QApplicationPrivate9constructEv
   fun:_ZN12QApplicationC2ERiPPci
   fun:main
}
{
   <insert_a_suppression_name_here>
   Memcheck:Leak
   fun:malloc
   fun:_CGSConnectionInitialize
   fun:cg_setup
   fun:pthread_once
   fun:CGSGetDisplayList
   fun:initDisplays
   fun:CGDisplayRegisterReconfigurationCallback
   fun:_Z7qt_initP19QApplicationPrivatei
   fun:_ZN19QApplicationPrivate9constructEv
   fun:_ZN12QApplicationC2ERiPPci
   fun:main
}
{
   <insert_a_suppression_name_here>
   Memcheck:Leak
   fun:malloc
   fun:_CGSShmemInitialize
   fun:cg_setup
   fun:pthread_once
   fun:CGSGetDisplayList
   fun:initDisplays
   fun:CGDisplayRegisterReconfigurationCallback
   fun:_Z7qt_initP19QApplicationPrivatei
   fun:_ZN19QApplicationPrivate9constructEv
   fun:_ZN12QApplicationC2ERiPPci
   fun:main
}
{
   <insert_a_suppression_name_here>
   Memcheck:Leak
   fun:malloc
   fun:_CGSEventInitialize
   fun:cg_setup
   fun:pthread_once
   fun:CGSGetDisplayList
   fun:initDisplays
   fun:CGDisplayRegisterReconfigurationCallback
   fun:_Z7qt_initP19QApplicationPrivatei
   fun:_ZN19QApplicationPrivate9constructEv
   fun:_ZN12QApplicationC2ERiPPci
   fun:main
}
{
   <insert_a_suppression_name_here>
   Memcheck:Leak
   fun:malloc
   fun:LI_get_thread_info
   fun:LI_set_thread_item
   fun:getpwuid
   fun:_CFUpdateUserInfo
   fun:_CFUserName
   fun:__CFXPreferencesGetManagedSourceForBundleIDAndUser
   fun:__CFXPreferencesGetSnapshotSearchList
   fun:__CFXPreferencesCopyCurrentApplicationState
   fun:CFLocaleCopyCurrent
   fun:_ZNK13QSystemLocale14fallbackLocaleEv
   fun:_ZN14QLocalePrivate19updateSystemPrivateEv
}
{
   <insert_a_suppression_name_here>
   Memcheck:Leak
   fun:malloc
   fun:CGSNewConnection
   fun:_CGSDefaultConnection
   fun:_RegisterApplication
   fun:GetCurrentProcess
   fun:_Z7qt_initP19QApplicationPrivatei
   fun:_ZN19QApplicationPrivate9constructEv
   fun:_ZN12QApplicationC2ERiPPci
   fun:main
}
{
   <insert_a_suppression_name_here>
   Memcheck:Leak
   fun:malloc
   fun:CGSCacheCreate
   fun:CGSSharedFontCache
   fun:CGFontGetGFID
   fun:CGFontGetIdentifier
   fun:CGGlyphLockAccess
   fun:ripc_DrawGlyphs
   fun:draw_glyphs
   fun:CGContextShowGlyphsWithAdvances
   fun:_ZN19QCoreTextFontEngine13imageForGlyphEjib
   fun:_ZN19QCoreTextFontEngine19alphaRGBMapForGlyphEjiRK10QTransform
   fun:_ZNK18QTextureGlyphCache18textureMapForGlyphEj
}
{
   <insert_a_suppression_name_here>
   Memcheck:Leak
   fun:malloc
   fun:GetCTSeed
   fun:QDUnflattenPixPat
   fun:_NSReadThemePatternFromRsrc
   fun:_NSReadThemeImageFromplutEntry
   fun:GetThemeImage
   fun:+[NSColor _controlColor]
   fun:-[NSDynamicSystemColor recacheColor]
   fun:-[NSDynamicSystemColor initWithSelector:]
   fun:+[NSColor controlColor]
   fun:-[NSTextFieldCell drawsBackground]
   fun:-[NSTextFieldCell interiorBackgroundStyle]
}
{
   <insert_a_suppression_name_here>
   Memcheck:Leak
   fun:malloc
   fun:_CGSFindSharedWindow
   fun:_CGSWindowByID
   fun:CGSWindowIsOrderedIn
   fun:_ZL17IsWindowOrderedInP10WindowData
   fun:ResetPlatformWindowShape
   fun:_Z22CalculateWindowRegionsP10WindowDatabb
   fun:_ZN10WindowData18FinishConstructionEjyjPK4RectPhjP15OpaqueWindowPtrP16OpaqueControlRef
   fun:_ZN10WindowData10InitializeEP14OpaqueEventRef
   fun:_ZN14AppleWindowDef10InitializeEP14OpaqueEventRef
   fun:_ZN8HIObject24HandleClassHIObjectEventEP25OpaqueEventHandlerCallRefP14OpaqueEventRefPv
   fun:_ZN8HIObject9EventHookEP25OpaqueEventHandlerCallRefP14OpaqueEventRefPv
}
{
   <insert_a_suppression_name_here>
   Memcheck:Leak
   fun:malloc
   fun:strdup
   fun:si_module_static_file
   fun:si_module_with_name
   fun:si_module_static_search
   fun:si_module_with_name
   fun:si_search
   fun:getpwuid
   fun:_CFUpdateUserInfo
   fun:_CFUserName
   fun:__CFXPreferencesGetManagedSourceForBundleIDAndUser
   fun:__CFXPreferencesGetSnapshotSearchList
}
{
   <insert_a_suppression_name_here>
   Memcheck:Leak
   fun:malloc
   fun:strdup
   fun:si_module_static_mdns
   fun:si_module_with_name
   fun:init_optional_modules
   fun:si_module_static_search
   fun:si_module_with_name
   fun:si_search
   fun:getpwuid
   fun:_CFUpdateUserInfo
   fun:_CFUserName
   fun:__CFXPreferencesGetManagedSourceForBundleIDAndUser
}
{
   <insert_a_suppression_name_here>
   Memcheck:Leak
   fun:malloc
   fun:ures_getUTF8String
   fun:ures_getUTF8String
   fun:ures_getUTF8String
   fun:ures_open
   fun:_ZN3icu12NumberFormat12makeInstanceERKNS_6LocaleENS0_7EStylesER10UErrorCode
   fun:unum_open
   fun:CFNumberFormatterCreate
   fun:__CFLocaleCopyNumberFormat
   fun:CFLocaleGetValue
   fun:_ZL16getCFLocaleValuePK10__CFString
   fun:_ZNK13QSystemLocale5queryENS_9QueryTypeE8QVariant
}
{
   <insert_a_suppression_name_here>
   Memcheck:Leak
   fun:malloc
   fun:ures_getUTF8String
   fun:ures_getUTF8String
   fun:ures_getUTF8String
   fun:ures_open
   fun:ucol_openRules
   fun:__CFStringCreateCollator
   fun:_CFCompareStringsWithLocale
   fun:CFStringCompareWithOptionsAndLocale
   fun:_Z35CompareOtherNamesLocalizedExclusivePK10__CFStringS1_S1_PK9TBaseFont
   fun:_Z26CompareOtherNamesExclusivePK10__CFStringS1_S1_PK9TBaseFont
   fun:_Z11CompareNamePK10__CFStringPK9TBaseFont
}
{
   <insert_a_suppression_name_here>
   Memcheck:Leak
   fun:malloc
   fun:strdup
   fun:si_module_static_cache
   fun:si_module_with_name
   fun:si_module_static_search
   fun:si_module_with_name
   fun:si_search
   fun:getpwuid
   fun:_CFUpdateUserInfo
   fun:_CFUserName
   fun:__CFXPreferencesGetManagedSourceForBundleIDAndUser
   fun:__CFXPreferencesGetSnapshotSearchList
}
{
   <insert_a_suppression_name_here>
   Memcheck:Leak
   fun:malloc
   fun:uprv_getDefaultLocaleID
   fun:_ZN3icu6LocaleC1ENS0_11ELocaleTypeE
   fun:_ZN3icu6Locale10getDefaultEv
   fun:_ZN3icu6Locale19getAvailableLocalesERi
   fun:ures_getUTF8String
   fun:ures_getUTF8String
   fun:ures_open
   fun:_ZN3icu12NumberFormat12makeInstanceERKNS_6LocaleENS0_7EStylesER10UErrorCode
   fun:unum_open
   fun:CFNumberFormatterCreate
   fun:__CFLocaleCopyNumberFormat
}
{
   <insert_a_suppression_name_here>
   Memcheck:Leak
   fun:malloc
   fun:ures_getUTF8String
   fun:ures_getUTF8String
   fun:ures_getUTF8String
   fun:ures_getUTF8String
   fun:ures_open
   fun:_ZN3icu12NumberFormat12makeInstanceERKNS_6LocaleENS0_7EStylesER10UErrorCode
   fun:unum_open
   fun:CFNumberFormatterCreate
   fun:__CFLocaleCopyNumberFormat
   fun:CFLocaleGetValue
   fun:_ZL16getCFLocaleValuePK10__CFString
}
{
   <insert_a_suppression_name_here>
   Memcheck:Leak
   fun:malloc
   fun:CSMemNewPtr
   fun:CSMemNewHandle
   fun:QDUnflattenPixPat
   fun:_NSReadThemePatternFromRsrc
   fun:_NSReadThemeImageFromplutEntry
   fun:GetThemeImage
   fun:+[NSColor _controlColor]
   fun:-[NSDynamicSystemColor recacheColor]
   fun:-[NSDynamicSystemColor initWithSelector:]
   fun:+[NSColor controlColor]
   fun:-[NSTextFieldCell drawsBackground]
}
{
   <insert_a_suppression_name_here>
   Memcheck:Leak
   fun:malloc
   fun:strdup
   fun:search_alloc
   fun:si_module_static_search
   fun:si_module_with_name
   fun:si_search
   fun:getpwuid
   fun:_CFUpdateUserInfo
   fun:_CFUserName
   fun:__CFXPreferencesGetManagedSourceForBundleIDAndUser
   fun:__CFXPreferencesGetSnapshotSearchList
   fun:__CFXPreferencesCopyCurrentApplicationState
}
{
   <insert_a_suppression_name_here>
   Memcheck:Leak
   fun:malloc
   fun:strdup
   fun:_Z14scInternStringPKc
   fun:_ZN9SCSession19findOrCreateServiceEPKcj
   fun:scCreateSystemServiceVersion
   fun:_ZL16_initSeedServicev
   fun:pthread_once
   fun:_Z13_initSeedPagev
   fun:pthread_once
   fun:_CSCreateSeed
   fun:_LSDatabaseCreate
   fun:_LSContextInit
}
{
   <insert_a_suppression_name_here>
   Memcheck:Leak
   fun:malloc
   fun:malloc
   fun:_Znwm
   fun:_ZNSt6vectorIPFPKc17dyld_image_statesjPK15dyld_image_infoESaIS7_EE13_M_insert_auxEN9__gnu_cxx17__normal_iteratorIPS7_S9_EERKS7_
   fun:_ZN4dyld37registerImageStateSingleChangeHandlerE17dyld_image_statesPFPKcS0_jPK15dyld_image_infoE
   fun:dyld_register_image_state_change_handler
   fun:_ZN16ImageLoaderMachO18doModInitFunctionsERKN11ImageLoader11LinkContextE
   fun:_ZN11ImageLoader23recursiveInitializationERKNS_11LinkContextEj
   fun:_ZN11ImageLoader23recursiveInitializationERKNS_11LinkContextEj
   fun:_ZN11ImageLoader23recursiveInitializationERKNS_11LinkContextEj
   fun:_ZN11ImageLoader23recursiveInitializationERKNS_11LinkContextEj
   fun:_ZN11ImageLoader23recursiveInitializationERKNS_11LinkContextEj
}
{
   <insert_a_suppression_name_here>
   Memcheck:Leak
   fun:malloc
   fun:malloc
   fun:_Znwm
   fun:_ZNSt6vectorIPFPKc17dyld_image_statesjPK15dyld_image_infoESaIS7_EE13_M_insert_auxEN9__gnu_cxx17__normal_iteratorIPS7_S9_EERKS7_
   fun:_ZNSt6vectorIPFPKc17dyld_image_statesjPK15dyld_image_infoESaIS7_EE6insertEN9__gnu_cxx17__normal_iteratorIPS7_S9_EERKS7_
   fun:_ZN4dyld36registerImageStateBatchChangeHandlerE17dyld_image_statesPFPKcS0_jPK15dyld_image_infoE
   fun:dyld_register_image_state_change_handler
   fun:_objc_init
   fun:_ZN16ImageLoaderMachO18doModInitFunctionsERKN11ImageLoader11LinkContextE
   fun:_ZN11ImageLoader23recursiveInitializationERKNS_11LinkContextEj
   fun:_ZN11ImageLoader23recursiveInitializationERKNS_11LinkContextEj
   fun:_ZN11ImageLoader23recursiveInitializationERKNS_11LinkContextEj
}
{
   <insert_a_suppression_name_here>
   Memcheck:Leak
   fun:malloc
   fun:malloc
   fun:_Znwm
   fun:_ZNSt6vectorIPFPKc17dyld_image_statesjPK15dyld_image_infoESaIS7_EE13_M_insert_auxEN9__gnu_cxx17__normal_iteratorIPS7_S9_EERKS7_
   fun:_ZN4dyld37registerImageStateSingleChangeHandlerE17dyld_image_statesPFPKcS0_jPK15dyld_image_infoE
   fun:dyld_register_image_state_change_handler
   fun:map_images_nolock
   fun:map_images
   fun:_ZN4dyldL18notifyBatchPartialE17dyld_image_statesbPFPKcS0_jPK15dyld_image_infoE
   fun:_ZN4dyld36registerImageStateBatchChangeHandlerE17dyld_image_statesPFPKcS0_jPK15dyld_image_infoE
   fun:dyld_register_image_state_change_handler
   fun:_objc_init
}
{
   <insert_a_suppression_name_here>
   Memcheck:Leak
   fun:malloc
   fun:strdup
   fun:_class_addMethod
   fun:class_addMethod
   fun:+[NSObject(NSObject) load]
   fun:call_load_methods
   fun:load_images
   fun:_ZN4dyldL12notifySingleE17dyld_image_statesPK11ImageLoader
   fun:_ZN11ImageLoader23recursiveInitializationERKNS_11LinkContextEj
   fun:_ZN11ImageLoader23recursiveInitializationERKNS_11LinkContextEj
   fun:_ZN11ImageLoader23recursiveInitializationERKNS_11LinkContextEj
   fun:_ZN11ImageLoader23recursiveInitializationERKNS_11LinkContextEj
}
{
   <insert_a_suppression_name_here>
   Memcheck:Leak
   fun:malloc
   fun:LI_get_thread_info
   fun:LI_set_thread_item
   fun:getpwuid
   fun:_CFUpdateUserInfo
   fun:_CFUserName
   fun:__CFXPreferencesGetManagedSourceForBundleIDAndUser
   fun:__CFXPreferencesGetSnapshotSearchList
   fun:__CFXPreferencesCopyCurrentApplicationState
   fun:CFLocaleCopyCurrent
   fun:_ZNK13QSystemLocale14fallbackLocaleEv
   fun:_ZN14QLocalePrivate19updateSystemPrivateEv
}
{
   <insert_a_suppression_name_here>
   Memcheck:Leak
   fun:malloc
   fun:_Znwm
   fun:CUIGetPen
   fun:_ZN11CUIRendererC2EPK14__CFDictionary
   fun:_ZN11CUIRenderer6CreateEPK14__CFDictionary
   fun:_HIThemeGetCUIRenderer
   fun:_HIThemeCopyCUIColor
   fun:_HIThemeCopyCUIBackgroundColorForThemeBrush
   fun:_HIThemeSetColor
   fun:_ZNK16QMacStylePrivate25generateBackgroundPatternEv
   fun:_ZN9QMacStyle6polishER8QPalette
   fun:_ZN19QApplicationPrivate17setPalette_helperERK8QPalettePKcb
}
{
   <insert_a_suppression_name_here>
   Memcheck:Leak
   fun:malloc
   fun:_Znwm
   fun:-[QCocoaWindowDelegate init]
   fun:+[QCocoaWindowDelegate sharedDelegate]
   fun:-[NSWindow(QWidgetIntegration) qt_initWithQWidget:contentRect:styleMask:]
   fun:_ZL20qt_mac_create_windowP7QWidgetjmRK5QRect
   fun:_ZN14QWidgetPrivate18qt_create_root_winEv
   fun:_ZN14QWidgetPrivate10create_sysElbb
   fun:_ZN7QWidget6createElbb
   fun:_ZN14QWidgetPrivate4initEP7QWidget6QFlagsIN2Qt10WindowTypeEE
   fun:_ZN7QWidgetC2EPS_6QFlagsIN2Qt10WindowTypeEE
   fun:_ZN14QDesktopWidgetC2Ev
}
{
   <insert_a_suppression_name_here>
   Memcheck:Leak
   fun:malloc
   fun:_Znwm
   fun:-[QCocoaWindowDelegate init]
   fun:+[QCocoaWindowDelegate sharedDelegate]
   fun:-[NSWindow(QWidgetIntegration) qt_initWithQWidget:contentRect:styleMask:]
   fun:_ZL20qt_mac_create_windowP7QWidgetjmRK5QRect
   fun:_ZN14QWidgetPrivate18qt_create_root_winEv
   fun:_ZN14QWidgetPrivate10create_sysElbb
   fun:_ZN7QWidget6createElbb
   fun:_ZN14QWidgetPrivate4initEP7QWidget6QFlagsIN2Qt10WindowTypeEE
   fun:_ZN7QWidgetC2EPS_6QFlagsIN2Qt10WindowTypeEE
   fun:_ZN14QDesktopWidgetC2Ev
}
{
   <insert_a_suppression_name_here>
   Memcheck:Leak
   fun:malloc
   fun:_Znwm
   fun:CUIGetPen
   fun:_ZN11CUIRendererC2EPK14__CFDictionary
   fun:_ZN11CUIRenderer6CreateEPK14__CFDictionary
   fun:+[NSWindow(NSWindow_Scale) _initializeCoreUI]
   fun:-[NSApplication init]
   fun:+[NSApplication sharedApplication]
   fun:_Z7qt_initP19QApplicationPrivatei
   fun:_ZN19QApplicationPrivate9constructEv
   fun:_ZN12QApplicationC2ERiPPci
   fun:main
}
{
   <insert_a_suppression_name_here>
   Memcheck:Leak
   fun:malloc
   fun:_ZN15TEventTypeIndex8AddTypesEmPK13EventTypeSpec
   fun:_ZL18AddHandlersToIndexP14EventTargetRecP10HandlerRecmPK13EventTypeSpec
   fun:_ZL16PushEventHandlerP14EventTargetRecPFiP25OpaqueEventHandlerCallRefP14OpaqueEventRefPvEhmPK13EventTypeSpecS5_PP21OpaqueEventHandlerRef
   fun:InstallEventHandler
   fun:-[NSApplication _registerWithDock]
   fun:-[NSApplication init]
   fun:+[NSApplication sharedApplication]
   fun:_Z7qt_initP19QApplicationPrivatei
   fun:_ZN19QApplicationPrivate9constructEv
   fun:_ZN12QApplicationC2ERiPPci
   fun:main
}
{
   <insert_a_suppression_name_here>
   Memcheck:Leak
   fun:malloc
   fun:ATSInitClient
   fun:FOLazyInitialize
   fun:ATSFontFamilyFindFromName
   fun:_ZN13QFontDatabase4loadEPK12QFontPrivatei
   fun:_ZNK12QFontPrivate15engineForScriptEi
   fun:_ZNK11QTextEngine10fontEngineERK11QScriptItemP6QFixedS4_S4_
   fun:_ZNK11QTextEngine12shapeTextMacEi
   fun:_ZNK11QTextEngine9shapeTextEi
   fun:_ZNK11QTextEngine5shapeEi
   fun:_ZN11QTextEngine9shapeLineERK11QScriptLine
   fun:_ZN8QPainter8drawTextERK7QPointFRK7QStringii
}
{
   <insert_a_suppression_name_here>
   Memcheck:Leak
   fun:malloc
   fun:_Znwm
   fun:_ZN10QMutexPool3getEPKv
   fun:_ZN18QMetaObjectPrivate7connectEPK7QObjectiS2_iiPi
   fun:_ZN7QObject7connectEPKS_PKcS1_S3_N2Qt14ConnectionTypeE
   fun:_ZN17QGLContextPrivateC2EP10QGLContext
   fun:_ZN10QGLContextC2ERK9QGLFormatP12QPaintDevice
   fun:_ZN9QGLWidgetC2ERK9QGLFormatP7QWidgetPKS_6QFlagsIN2Qt10WindowTypeEE
   fun:_ZN8GLWidgetC1EP7QWidget
   fun:_ZN6WindowC1Ev
   fun:main
}
{
   <insert_a_suppression_name_here>
   Memcheck:Leak
   fun:malloc
   fun:glrCompExecuteKernel
   fun:gldCopyTexSubImage
   fun:gldCopyTexSubImage
   fun:gldBufferSubData
   fun:gldInitializeLibrary
   fun:gfxPluginConnectAll
   fun:gliGetVersion
   fun:glcNoop
   fun:glcGetIOAccelService
   fun:glcGetIOAccelService
   fun:CGLGetPixelFormatRetainCount
}
{
   <insert_a_suppression_name_here>
   Memcheck:Leak
   fun:malloc
   fun:_Znwm
   fun:_ZN10QMutexPool3getEPKv
   fun:_ZN18QMetaObjectPrivate7connectEPK7QObjectiS2_iiPi
   fun:_ZN7QObject7connectEPKS_PKcS1_S3_N2Qt14ConnectionTypeE
   fun:_ZN6WindowC1Ev
   fun:main
}
{
   <insert_a_suppression_name_here>
   Memcheck:Leak
   fun:malloc
   fun:_Znwm
   fun:_ZN10QMutexPool3getEPKv
   fun:_ZN18QMetaObjectPrivate7connectEPK7QObjectiS2_iiPi
   fun:_ZN7QObject7connectEPKS_PKcS1_S3_N2Qt14ConnectionTypeE
   fun:_ZN6WindowC1Ev
   fun:main
}
{
   <insert_a_suppression_name_here>
   Memcheck:Leak
   fun:malloc
   fun:_Znwm
   fun:_ZN10QMutexPool3getEPKv
   fun:_ZN18QMetaObjectPrivate7connectEPK7QObjectiS2_iiPi
   fun:_ZN7QObject7connectEPKS_PKcS1_S3_N2Qt14ConnectionTypeE
   fun:_ZN6WindowC1Ev
   fun:main
}
{
   <insert_a_suppression_name_here>
   Memcheck:Leak
   fun:malloc
   fun:_Znwm
   fun:_ZN10QMutexPool3getEPKv
   fun:_ZN18QMetaObjectPrivate7connectEPK7QObjectiS2_iiPi
   fun:_ZN7QObject7connectEPKS_PKcS1_S3_N2Qt14ConnectionTypeE
   fun:_ZN6WindowC1Ev
   fun:main
}
{
   <insert_a_suppression_name_here>
   Memcheck:Leak
   fun:malloc
   fun:_Znwm
   fun:_ZN10CUIElement15LoadFromArtFileEPKh
   fun:_ZN10CUIElement4LoadEP11_QSIContextPK13CUIDescriptorlll
   fun:_ZN11CUIRenderer10DrawSliderEPK13CUIDescriptor
   fun:_ZN11CUIRenderer4DrawE6CGRectP9CGContextPK14__CFDictionaryPS5_
   fun:_Z34_HIThemeDrawTrackTickMarksInternalPK20HIThemeTrackDrawInfomP14ThemeEraseXUPPPvP9CGContextj
   fun:_ZNK9QMacStyle18drawComplexControlEN6QStyle14ComplexControlEPK19QStyleOptionComplexP8QPainterPK7QWidget
   fun:_ZN7QSlider10paintEventEP11QPaintEvent
   fun:_ZN7QWidget5eventEP6QEvent
   fun:_ZN15QAbstractSlider5eventEP6QEvent
   fun:_ZN7QSlider5eventEP6QEvent
}
{
   <insert_a_suppression_name_here>
   Memcheck:Leak
   fun:malloc
   fun:_Znwm
   fun:_ZL10_keyRetainPK13__CFAllocatorPKv
   fun:__CFBasicHashAddValue
   fun:CFBasicHashSetValue
   fun:CFDictionarySetValue
   fun:_ZN20OSTypePairDictionary8addValueEjjPv
   fun:_ZN12HandlerTable10addHandlerEjjPFsPK6AEDescPS0_PvES4_
   fun:AEInstallEventHandler
   fun:-[NSApplication(NSAppleEventHandling) _registerRequiredAEHandlers]
   fun:-[NSApplication finishLaunching]
   fun:-[NSApplication run]
}
{
   <insert_a_suppression_name_here>
   Memcheck:Leak
   fun:malloc
   fun:_Znwm
   fun:_ZL10_keyRetainPK13__CFAllocatorPKv
   fun:__CFBasicHashAddValue
   fun:CFBasicHashSetValue
   fun:CFDictionarySetValue
   fun:_ZN20OSTypePairDictionary8addValueEjjPv
   fun:_ZN12HandlerTable10addHandlerEjjPFsPK6AEDescPS0_PvES4_
   fun:AEInstallEventHandler
   fun:-[NSApplication(NSAppleEventHandling) _registerRequiredAEHandlers]
   fun:-[NSApplication finishLaunching]
   fun:-[NSApplication run]
}
{
   <insert_a_suppression_name_here>
   Memcheck:Leak
   fun:malloc
   fun:_Znwm
   fun:_ZL10_keyRetainPK13__CFAllocatorPKv
   fun:__CFBasicHashReplaceValue
   fun:CFBasicHashSetValue
   fun:CFDictionarySetValue
   fun:_ZN20OSTypePairDictionary8addValueEjjPv
   fun:_ZN12HandlerTable10addHandlerEjjPFsPK6AEDescPS0_PvES4_
   fun:AEInstallEventHandler
   fun:-[NSApplication(NSAppleEventHandling) _registerRequiredAEHandlers]
   fun:-[NSApplication finishLaunching]
   fun:-[NSApplication run]
}
{
   <insert_a_suppression_name_here>
   Memcheck:Leak
   fun:malloc
   fun:_Znwm
   fun:_ZL10_keyRetainPK13__CFAllocatorPKv
   fun:__CFBasicHashAddValue
   fun:CFBasicHashSetValue
   fun:CFDictionarySetValue
   fun:_ZN20OSTypePairDictionary8addValueEjjPv
   fun:_ZN12HandlerTable10addHandlerEjjPFsPK6AEDescPS0_PvES4_
   fun:AEInstallEventHandler
   fun:-[NSApplication(NSAppleEventHandling) _registerRequiredAEHandlers]
   fun:-[NSApplication finishLaunching]
   fun:-[NSApplication run]
}
{
   <insert_a_suppression_name_here>
   Memcheck:Leak
   fun:malloc
   fun:_Znwm
   fun:_ZL10_keyRetainPK13__CFAllocatorPKv
   fun:__CFBasicHashAddValue
   fun:CFBasicHashSetValue
   fun:CFDictionarySetValue
   fun:_ZN20OSTypePairDictionary8addValueEjjPv
   fun:_ZN12HandlerTable10addHandlerEjjPFsPK6AEDescPS0_PvES4_
   fun:AEInstallEventHandler
   fun:-[NSApplication(NSAppleEventHandling) _registerRequiredAEHandlers]
   fun:-[NSApplication finishLaunching]
   fun:-[NSApplication run]
}
{
   <insert_a_suppression_name_here>
   Memcheck:Leak
   fun:malloc
   fun:_Znwm
   fun:_ZL10_keyRetainPK13__CFAllocatorPKv
   fun:__CFBasicHashReplaceValue
   fun:CFBasicHashSetValue
   fun:CFDictionarySetValue
   fun:_ZN20OSTypePairDictionary8addValueEjjPv
   fun:_ZN12HandlerTable10addHandlerEjjPFsPK6AEDescPS0_PvES4_
   fun:AEInstallEventHandler
   fun:-[NSApplication(NSAppleEventHandling) _registerRequiredAEHandlers]
   fun:-[NSApplication finishLaunching]
   fun:-[NSApplication run]
}
{
   <insert_a_suppression_name_here>
   Memcheck:Leak
   fun:malloc
   fun:CacheFMMapData
   fun:IntlFCOpenComponentData
   fun:InitializeInputSourceCache
   fun:islcGetInputMethodIndexFromBundleID
   fun:islcGetInputSourceCacheIndexFromData
   fun:islGetInputSourceListWithAdditions
   fun:TSMGetInputSourceCountWithFilteredAdditions
   fun:TISCreateInputSourceList
   fun:SyncHandwritingHotKey
   fun:_FirstEventTime
   fun:RunCurrentEventLoopInMode
}
{
   <insert_a_suppression_name_here>
   Memcheck:Leak
   fun:malloc
   fun:_ZN15TEventTypeIndex8AddTypesEmPK13EventTypeSpec
   fun:_ZL18AddHandlersToIndexP14EventTargetRecP10HandlerRecmPK13EventTypeSpec
   fun:_ZL16PushEventHandlerP14EventTargetRecPFiP25OpaqueEventHandlerCallRefP14OpaqueEventRefPvEhmPK13EventTypeSpecS5_PP21OpaqueEventHandlerRef
   fun:InstallToolboxEventHandler
   fun:_InitInputSourceDeselect
   fun:InitTSMFirstEventTime
   fun:_FirstEventTime
   fun:RunCurrentEventLoopInMode
   fun:ReceiveNextEventCommon
   fun:BlockUntilNextEventMatchingListInMode
   fun:_DPSNextEvent
}
{
   <insert_a_suppression_name_here>
   Memcheck:Leak
   fun:malloc
   fun:_Znwm
   fun:_ZL10_keyRetainPK13__CFAllocatorPKv
   fun:__CFBasicHashReplaceValue
   fun:CFBasicHashSetValue
   fun:CFDictionarySetValue
   fun:_ZN20OSTypePairDictionary8addValueEjjPv
   fun:_ZN12HandlerTable10addHandlerEjjPFsPK6AEDescPS0_PvES4_
   fun:AEInstallEventHandler
   fun:_ZN19QApplicationPrivate24qt_initAfterNSAppStartedEv
   fun:_ZN26QEventDispatcherMacPrivate14firstLoopEntryEP19__CFRunLoopObservermPv
   fun:__CFRunLoopDoObservers
}
{
   <insert_a_suppression_name_here>
   Memcheck:Leak
   fun:malloc
   fun:_Znwm
   fun:_ZL10_keyRetainPK13__CFAllocatorPKv
   fun:__CFBasicHashAddValue
   fun:CFBasicHashSetValue
   fun:CFDictionarySetValue
   fun:_ZN20OSTypePairDictionary8addValueEjjPv
   fun:_ZN12HandlerTable10addHandlerEjjPFsPK6AEDescPS0_PvES4_
   fun:AEInstallEventHandler
   fun:AEInstallSpecialHandler
   fun:-[NSAppleEventManager(NSPrivate) _prepareForDispatch]
   fun:-[NSAppleEventManager dispatchRawAppleEvent:withRawReply:handlerRefCon:]
}
{
   <insert_a_suppression_name_here>
   Memcheck:Leak
   fun:malloc
   fun:_ZN13HIMenuBarView15EnsureBarLayoutEv
   fun:_ZN13HIMenuBarView17GetAvailableSpaceEP6CGRect
   fun:_Z31_HIMenuBarViewGetAvailableSpaceP16OpaqueControlRefP6CGRect
   fun:SetMenuBarLimits
   fun:_ZL7ShowBarhh
   fun:SetMenuBarObscured
   fun:_ZN13HIApplication15HandleActivatedEP14OpaqueEventRefhP15OpaqueWindowPtr
   fun:_ZN13HIApplication13EventObserverEjP14OpaqueEventRefPv
   fun:_NotifyEventLoopObservers
   fun:AcquireEventFromQueue
   fun:ReceiveNextEventCommon
}
{
   <insert_a_suppression_name_here>
   Memcheck:Leak
   fun:malloc
   fun:CGGStackCreateWithGState
   fun:CGContextCreateWithDelegate
   fun:CGWindowContextCreate
   fun:_ZN10WindowData12GetCGContextEv
   fun:_ZN10WindowData20PrepareForVisibilityEv
   fun:_ShowHideWindows
   fun:ShowHide
   fun:_Z8MBarDrawv
   fun:DrawMenuBar
   fun:_ZL7ShowBarhh
   fun:SetMenuBarObscured
}
{
   <insert_a_suppression_name_here>
   Memcheck:Leak
   fun:calloc
   fun:-[NSThread _nq:]
   fun:-[NSObject(NSThreadPerformAdditions) performSelector:onThread:withObject:waitUntilDone:modes:]
   fun:-[NSObject(NSThreadPerformAdditions) performSelectorOnMainThread:withObject:waitUntilDone:]
   fun:-[NSTextInputContext dealloc]
   fun:-[NSView _finalizeWithReferenceCounting]
   fun:-[NSView dealloc]
   fun:-[NSControl dealloc]
   fun:-[QCocoaView dealloc]
   fun:_CFAutoreleasePoolPop
   fun:-[NSAutoreleasePool release]
   fun:_ZN7QWidget7destroyEbb
}
{
   <insert_a_suppression_name_here>
   Memcheck:Leak
   fun:malloc
   fun:udata_setCommonData
   fun:udata_setAppData
   fun:udata_setAppData
   fun:udata_setAppData
   fun:ures_getKeywordValues
   fun:ures_getUTF8String
   fun:ures_getUTF8String
   fun:ures_getUTF8String
   fun:ures_open
   fun:_ZN3icu12NumberFormat12makeInstanceERKNS_6LocaleENS0_7EStylesER10UErrorCode
   fun:unum_open
}
{
   <insert_a_suppression_name_here>
   Memcheck:Leak
   fun:malloc
   fun:locale_charset
   fun:iconv_open
   fun:_ZN11QIconvCodec13createIconv_tEPKcS1_
   fun:_ZNK11QIconvCodec16convertToUnicodeEPKciPN10QTextCodec14ConverterStateE
   fun:_ZN7QString13fromLocal8BitEPKci
   fun:_ZN12QLibraryInfo8locationENS_15LibraryLocationE
   fun:_ZN16QCoreApplication12libraryPathsEv
   fun:_ZN16QCoreApplication4initEv
   fun:_ZN16QCoreApplicationC2ER23QCoreApplicationPrivate
   fun:_ZN12QApplicationC2ERiPPci
   fun:main
}
{
   <insert_a_suppression_name_here>
   Memcheck:Leak
   fun:malloc
   fun:strdup
   fun:_Z14scInternStringPKc
   fun:_ZN9SCSession19findOrCreateServiceEPKcj
   fun:scCreateSystemServiceVersion
   fun:_Z13ISServiceInitv
   fun:_ISGetSystemIconStorage
   fun:_ISAddSystemIconToImage
   fun:AddImageByTypeInfo
   fun:GetIconRef
   fun:-[NSWorkspace _defaultDocIcon]
   fun:+[NSWindow standardWindowButton:forStyleMask:]
}
{
   <insert_a_suppression_name_here>
   Memcheck:Leak
   fun:malloc
   fun:strdup
   fun:_Z14scInternStringPKc
   fun:_ZN9SCSession19findOrCreateServiceEPKcj
   fun:scCreateSystemServiceVersion
   fun:getServicePort
   fun:_ZL19_makeRegisteredPortv
   fun:AEGetRegisteredMachPort
   fun:aeInstallRunLoopDispatcher
   fun:_FirstEventTime
   fun:RunCurrentEventLoopInMode
   fun:ReceiveNextEventCommon
}
{
   <insert_a_suppression_name_here>
   Memcheck:Leak
   fun:malloc_zone_malloc
   fun:_strdup_internal
   fun:__sel_registerName
   fun:map_images_nolock
   fun:map_images
   fun:_ZN4dyldL18notifyBatchPartialE17dyld_image_statesbPFPKcS0_jPK15dyld_image_infoE
   fun:_ZN4dyld36registerImageStateBatchChangeHandlerE17dyld_image_statesPFPKcS0_jPK15dyld_image_infoE
   fun:dyld_register_image_state_change_handler
   fun:_objc_init
   fun:_ZN16ImageLoaderMachO18doModInitFunctionsERKN11ImageLoader11LinkContextE
   fun:_ZN11ImageLoader23recursiveInitializationERKNS_11LinkContextEj
   fun:_ZN11ImageLoader23recursiveInitializationERKNS_11LinkContextEj
}
{
   <insert_a_suppression_name_here>
   Memcheck:Leak
   fun:malloc_zone_malloc
   fun:CreateCLUT
   fun:_NSReadThemePatternFromRsrc
   fun:_NSReadThemeImageFromplutEntry
   fun:GetThemeImage
   fun:+[NSColor _controlColor]
   fun:-[NSDynamicSystemColor recacheColor]
   fun:-[NSDynamicSystemColor initWithSelector:]
   fun:+[NSColor controlColor]
   fun:-[NSTextFieldCell drawsBackground]
   fun:-[NSTextFieldCell interiorBackgroundStyle]
   fun:-[NSCell _textAttributes]
}
{
   <insert_a_suppression_name_here>
   Memcheck:Leak
   fun:malloc
   fun:strdup
   fun:_Z14scInternStringPKc
   fun:_ZN9SCSession21findOrCreateCacheableE15SCCacheableNamePKc
   fun:scCreateCacheable
   fun:_ZL25_createNamedDataCacheablev
   fun:pthread_once
   fun:_CSGetNamedData
   fun:-[NSColorList _loadColors]
   fun:-[NSColorList colorWithKey:]
   fun:-[NSCatalogColor colorUsingColorSpaceName:device:]
   fun:-[NSTextFieldCell _textAttributes]
}
{
   <insert_a_suppression_name_here>
   Memcheck:Leak
   fun:calloc
   fun:CGWindowContextCreate
   fun:_ZN10WindowData12GetCGContextEv
   fun:_ZN10WindowData20PrepareForVisibilityEv
   fun:_ShowHideWindows
   fun:ShowHide
   fun:_Z8MBarDrawv
   fun:DrawMenuBar
   fun:_ZL7ShowBarhh
   fun:SetMenuBarObscured
   fun:_ZN13HIApplication15HandleActivatedEP14OpaqueEventRefhP15OpaqueWindowPtr
   fun:_ZN13HIApplication13EventObserverEjP14OpaqueEventRefPv
}
{
   <insert_a_suppression_name_here>
   Memcheck:Leak
   fun:malloc
   fun:strdup
   fun:_Z13NewFileRecordP7FSMountijjPKcjS2_P14FSOpenForkInfo
   fun:_ZN7FSMount19openforkcoreDefaultEjjPKcS1_jhhP14FSOpenForkInfotP8_filesecjPiPj
   fun:_ZN7FSMount8openforkEjjPKcS1_jhhP14FSOpenForkInfotP8_filesecjPiPj
   fun:PBOpenForkSync
   fun:FSOpenFork
   fun:RMOpenResourceFileRef
   fun:OpenThemeResFileMapped
   fun:_ZN6TTheme4OpenEPK5FSRef
   fun:_ZN6TTheme10GetCurrentEv
   fun:CopyThemeIdentifier
}
{
   <insert_a_suppression_name_here>
   Memcheck:Leak
   fun:malloc
   fun:CGFontNameTableCreate
   fun:get_name_table
   fun:CGFontCopyPostScriptName
   fun:CGFontCreateFontsWithURL
   fun:_ZN7TCGFontC2EPK7__CFURLb
   fun:_ZNK12TCGFontCache8CopyFontEPK7__CFURL
   fun:_ZNK9TBaseFont14CopyNativeFontEv
   fun:_ZNK9TBaseFont9CopyTableEjj
   fun:_ZNK19QCoreTextFontEngine16getSfntTableDataEjPhPj
   fun:_ZNK11QFontEngine12getSfntTableEj
   fun:_ZN19QCoreTextFontEngineC2EPK8__CTFontRK8QFontDefP24QCoreTextFontEngineMulti
}
{
   <insert_a_suppression_name_here>
   Memcheck:Leak
   fun:malloc
   fun:strdup
   fun:_Z14scInternStringPKc
   fun:_ZN9SCSession21findOrCreateCacheableE15SCCacheableNamePKc
   fun:scCreateSystemCacheable
   fun:_ZL21_CLV_GetCacheableOncev
   fun:pthread_once
   fun:_ZL26getAllCarbonLazyValues2000v
   fun:CLVVisitValuesForKey
   fun:AEGetEventHandler
   fun:AEGetSpecialHandler
   fun:_ZL35_findSysPreHIToolboxDispatchHandlerjjPPv
}
{
   <insert_a_suppression_name_here>
   Memcheck:Leak
   fun:malloc
   fun:uprv_strdup
   fun:ures_getUTF8String
   fun:ures_getUTF8String
   fun:ures_getUTF8String
   fun:ures_open
   fun:ucol_openRules
   fun:__CFStringCreateCollator
   fun:_CFCompareStringsWithLocale
   fun:CFStringCompareWithOptionsAndLocale
   fun:_Z35CompareOtherNamesLocalizedExclusivePK10__CFStringS1_S1_PK9TBaseFont
   fun:_Z26CompareOtherNamesExclusivePK10__CFStringS1_S1_PK9TBaseFont
}
{
   <insert_a_suppression_name_here>
   Memcheck:Leak
   fun:malloc
   fun:uprv_strdup
   fun:ures_getUTF8String
   fun:ures_getUTF8String
   fun:ures_open
   fun:ucol_openRules
   fun:__CFStringCreateCollator
   fun:_CFCompareStringsWithLocale
   fun:CFStringCompareWithOptionsAndLocale
   fun:_Z35CompareOtherNamesLocalizedExclusivePK10__CFStringS1_S1_PK9TBaseFont
   fun:_Z26CompareOtherNamesExclusivePK10__CFStringS1_S1_PK9TBaseFont
   fun:_Z11CompareNamePK10__CFStringPK9TBaseFont
}
{
   <insert_a_suppression_name_here>
   Memcheck:Leak
   fun:calloc
   fun:CSMemNewPtrClear
   fun:CSMemNewHandleClear
   fun:swmDoOpen
   fun:InitializeDefaultContext
   fun:TSMGetDocumentProperty
   fun:-[NSTextInputContext activate]
   fun:+[NSTextInputContext currentInputContext]
   fun:-[NSApplication updateWindows]
   fun:_handleWindowsNeedUpdateNote
   fun:__CFRunLoopDoObservers
   fun:__CFRunLoopRun
}
{
   <insert_a_suppression_name_here>
   Memcheck:Leak
   fun:malloc
   fun:strdup
   fun:_Z14scInternStringPKc
   fun:_ZN9SCSession19findOrCreateServiceEPKcj
   fun:scCreateSystemServiceVersion
   fun:_LSCopyServerStore
   fun:_LSContextInit
   fun:_LSRegisterSelf
   fun:_LSApplicationCheckIn
   fun:_RegisterApplication
   fun:GetCurrentProcess
   fun:_Z7qt_initP19QApplicationPrivatei
}
{
   <insert_a_suppression_name_here>
   Memcheck:Leak
   fun:malloc
   fun:strdup
   fun:_Z14scInternStringPKc
   fun:_ZN9SCSession21findOrCreateCacheableE15SCCacheableNamePKc
   fun:scCreateSystemCacheable
   fun:_ZN24FolderMgrClientSideCacheC2Eh
   fun:_ZN24FolderMgrClientSideCache23GetFolderCacheForDomainEs
   fun:ExtractFromFolderServerCache
   fun:GetFromFolderCache
   fun:FindFolderGuts
   fun:FlndFolderGuts
   fun:FSFindFolder
}
{
   <insert_a_suppression_name_here>
   Memcheck:Leak
   fun:malloc_zone_malloc
   fun:recursive_mutex_init
   fun:lock_init
   fun:_objc_init
   fun:_ZN16ImageLoaderMachO18doModInitFunctionsERKN11ImageLoader11LinkContextE
   fun:_ZN11ImageLoader23recursiveInitializationERKNS_11LinkContextEj
   fun:_ZN11ImageLoader23recursiveInitializationERKNS_11LinkContextEj
   fun:_ZN11ImageLoader23recursiveInitializationERKNS_11LinkContextEj
   fun:_ZN11ImageLoader23recursiveInitializationERKNS_11LinkContextEj
   fun:_ZN11ImageLoader23recursiveInitializationERKNS_11LinkContextEj
   fun:_ZN11ImageLoader23recursiveInitializationERKNS_11LinkContextEj
   fun:_ZN11ImageLoader23recursiveInitializationERKNS_11LinkContextEj
}
{
   <insert_a_suppression_name_here>
   Memcheck:Leak
   fun:malloc_zone_calloc
   fun:NXHashInsert
   fun:NXCreateHashTableFromZone
   fun:realizedMetaclasses
   fun:addRealizedMetaclass
   fun:realizeClass
   fun:realizeClass
   fun:realizeClass
   fun:_read_images
   fun:map_images_nolock
   fun:map_images
   fun:_ZN4dyldL18notifyBatchPartialE17dyld_image_statesbPFPKcS0_jPK15dyld_image_infoE
}
{
   <insert_a_suppression_name_here>
   Memcheck:Leak
   fun:malloc_zone_calloc
   fun:attachMethodLists
   fun:realizeClass
   fun:realizeClass
   fun:_read_images
   fun:map_images_nolock
   fun:map_images
   fun:_ZN4dyldL18notifyBatchPartialE17dyld_image_statesbPFPKcS0_jPK15dyld_image_infoE
   fun:_ZN4dyld36registerImageStateBatchChangeHandlerE17dyld_image_statesPFPKcS0_jPK15dyld_image_infoE
   fun:dyld_register_image_state_change_handler
   fun:_objc_init
   fun:_ZN16ImageLoaderMachO18doModInitFunctionsERKN11ImageLoader11LinkContextE
}
{
   <insert_a_suppression_name_here>
   Memcheck:Leak
   fun:malloc_zone_calloc
   fun:attachMethodLists
   fun:realizeClass
   fun:_read_images
   fun:map_images_nolock
   fun:map_images
   fun:_ZN4dyldL18notifyBatchPartialE17dyld_image_statesbPFPKcS0_jPK15dyld_image_infoE
   fun:_ZN4dyld36registerImageStateBatchChangeHandlerE17dyld_image_statesPFPKcS0_jPK15dyld_image_infoE
   fun:dyld_register_image_state_change_handler
   fun:_objc_init
   fun:_ZN16ImageLoaderMachO18doModInitFunctionsERKN11ImageLoader11LinkContextE
   fun:_ZN11ImageLoader23recursiveInitializationERKNS_11LinkContextEj
}
{
   <insert_a_suppression_name_here>
   Memcheck:Leak
   fun:malloc_zone_calloc
   fun:attachMethodLists
   fun:realizeClass
   fun:realizeClass
   fun:realizeClass
   fun:_read_images
   fun:map_images_nolock
   fun:map_images
   fun:_ZN4dyldL18notifyBatchPartialE17dyld_image_statesbPFPKcS0_jPK15dyld_image_infoE
   fun:_ZN4dyld36registerImageStateBatchChangeHandlerE17dyld_image_statesPFPKcS0_jPK15dyld_image_infoE
   fun:dyld_register_image_state_change_handler
   fun:_objc_init
}
{
   <insert_a_suppression_name_here>
   Memcheck:Leak
   fun:malloc_zone_calloc
   fun:attachMethodLists
   fun:realizeClass
   fun:_read_images
   fun:map_images_nolock
   fun:map_images
   fun:_ZN4dyldL18notifyBatchPartialE17dyld_image_statesbPFPKcS0_jPK15dyld_image_infoE
   fun:_ZN4dyld36registerImageStateBatchChangeHandlerE17dyld_image_statesPFPKcS0_jPK15dyld_image_infoE
   fun:dyld_register_image_state_change_handler
   fun:_objc_init
   fun:_ZN16ImageLoaderMachO18doModInitFunctionsERKN11ImageLoader11LinkContextE
   fun:_ZN11ImageLoader23recursiveInitializationERKNS_11LinkContextEj
}
{
   <insert_a_suppression_name_here>
   Memcheck:Leak
   fun:malloc_zone_malloc
   fun:class_addProtocol
   fun:+[NSObject(NSObject) load]
   fun:call_load_methods
   fun:load_images
   fun:_ZN4dyldL12notifySingleE17dyld_image_statesPK11ImageLoader
   fun:_ZN11ImageLoader23recursiveInitializationERKNS_11LinkContextEj
   fun:_ZN11ImageLoader23recursiveInitializationERKNS_11LinkContextEj
   fun:_ZN11ImageLoader23recursiveInitializationERKNS_11LinkContextEj
   fun:_ZN11ImageLoader23recursiveInitializationERKNS_11LinkContextEj
   fun:_ZN11ImageLoader23recursiveInitializationERKNS_11LinkContextEj
   fun:_ZN11ImageLoader23recursiveInitializationERKNS_11LinkContextEj
}
{
   <insert_a_suppression_name_here>
   Memcheck:Leak
   fun:malloc
   fun:malloc_zone_realloc
   fun:class_addProtocol
   fun:+[NSObject(NSObject) load]
   fun:call_load_methods
   fun:load_images
   fun:_ZN4dyldL12notifySingleE17dyld_image_statesPK11ImageLoader
   fun:_ZN11ImageLoader23recursiveInitializationERKNS_11LinkContextEj
   fun:_ZN11ImageLoader23recursiveInitializationERKNS_11LinkContextEj
   fun:_ZN11ImageLoader23recursiveInitializationERKNS_11LinkContextEj
   fun:_ZN11ImageLoader23recursiveInitializationERKNS_11LinkContextEj
   fun:_ZN11ImageLoader23recursiveInitializationERKNS_11LinkContextEj
}
{
   <insert_a_suppression_name_here>
   Memcheck:Leak
   fun:malloc_zone_calloc
   fun:attachMethodLists
   fun:realizeClass
   fun:realizeClass
   fun:look_up_class
   fun:objc_getFutureClass
   fun:_CFRuntimeBridgeClasses
   fun:__CFInitialize
   fun:_ZN16ImageLoaderMachO11doImageInitERKN11ImageLoader11LinkContextE
   fun:_ZN16ImageLoaderMachO16doInitializationERKN11ImageLoader11LinkContextE
   fun:_ZN11ImageLoader23recursiveInitializationERKNS_11LinkContextEj
   fun:_ZN11ImageLoader23recursiveInitializationERKNS_11LinkContextEj
}
{
   <insert_a_suppression_name_here>
   Memcheck:Leak
   fun:malloc_zone_calloc
   fun:attachMethodLists
   fun:realizeClass
   fun:look_up_class
   fun:objc_getFutureClass
   fun:_CFRuntimeBridgeClasses
   fun:__CFInitialize
   fun:_ZN16ImageLoaderMachO11doImageInitERKN11ImageLoader11LinkContextE
   fun:_ZN16ImageLoaderMachO16doInitializationERKN11ImageLoader11LinkContextE
   fun:_ZN11ImageLoader23recursiveInitializationERKNS_11LinkContextEj
   fun:_ZN11ImageLoader23recursiveInitializationERKNS_11LinkContextEj
   fun:_ZN11ImageLoader23recursiveInitializationERKNS_11LinkContextEj
}
{
   <insert_a_suppression_name_here>
   Memcheck:Leak
   fun:malloc_zone_malloc
   fun:buildProtocolList
   fun:realizeClass
   fun:realizeClass
   fun:realizeClass
   fun:realizeClass
   fun:look_up_class
   fun:objc_getFutureClass
   fun:_CFRuntimeBridgeClasses
   fun:__CFInitialize
   fun:_ZN16ImageLoaderMachO11doImageInitERKN11ImageLoader11LinkContextE
   fun:_ZN16ImageLoaderMachO16doInitializationERKN11ImageLoader11LinkContextE
}
{
   <insert_a_suppression_name_here>
   Memcheck:Leak
   fun:malloc_zone_malloc
   fun:buildProtocolList
   fun:realizeClass
   fun:realizeClass
   fun:realizeClass
   fun:look_up_class
   fun:objc_getFutureClass
   fun:_CFRuntimeBridgeClasses
   fun:__CFInitialize
   fun:_ZN16ImageLoaderMachO11doImageInitERKN11ImageLoader11LinkContextE
   fun:_ZN16ImageLoaderMachO16doInitializationERKN11ImageLoader11LinkContextE
   fun:_ZN11ImageLoader23recursiveInitializationERKNS_11LinkContextEj
}
{
   <insert_a_suppression_name_here>
   Memcheck:Leak
   fun:malloc_zone_calloc
   fun:attachMethodLists
   fun:realizeClass
   fun:realizeClass
   fun:realizeClass
   fun:look_up_class
   fun:objc_getFutureClass
   fun:_CFRuntimeBridgeClasses
   fun:__CFInitialize
   fun:_ZN16ImageLoaderMachO11doImageInitERKN11ImageLoader11LinkContextE
   fun:_ZN16ImageLoaderMachO16doInitializationERKN11ImageLoader11LinkContextE
   fun:_ZN11ImageLoader23recursiveInitializationERKNS_11LinkContextEj
}
{
   <insert_a_suppression_name_here>
   Memcheck:Leak
   fun:malloc_zone_calloc
   fun:attachMethodLists
   fun:realizeClass
   fun:realizeClass
   fun:look_up_class
   fun:objc_getFutureClass
   fun:_CFRuntimeBridgeClasses
   fun:__CFInitialize
   fun:_ZN16ImageLoaderMachO11doImageInitERKN11ImageLoader11LinkContextE
   fun:_ZN16ImageLoaderMachO16doInitializationERKN11ImageLoader11LinkContextE
   fun:_ZN11ImageLoader23recursiveInitializationERKNS_11LinkContextEj
   fun:_ZN11ImageLoader23recursiveInitializationERKNS_11LinkContextEj
}
{
   <insert_a_suppression_name_here>
   Memcheck:Leak
   fun:malloc_zone_calloc
   fun:attachMethodLists
   fun:realizeClass
   fun:look_up_class
   fun:objc_getFutureClass
   fun:_CFRuntimeBridgeClasses
   fun:__CFInitialize
   fun:_ZN16ImageLoaderMachO11doImageInitERKN11ImageLoader11LinkContextE
   fun:_ZN16ImageLoaderMachO16doInitializationERKN11ImageLoader11LinkContextE
   fun:_ZN11ImageLoader23recursiveInitializationERKNS_11LinkContextEj
   fun:_ZN11ImageLoader23recursiveInitializationERKNS_11LinkContextEj
   fun:_ZN11ImageLoader23recursiveInitializationERKNS_11LinkContextEj
}
{
   <insert_a_suppression_name_here>
   Memcheck:Leak
   fun:malloc_zone_malloc
   fun:buildProtocolList
   fun:realizeClass
   fun:realizeClass
   fun:realizeClass
   fun:realizeClass
   fun:look_up_class
   fun:objc_getFutureClass
   fun:_CFRuntimeBridgeClasses
   fun:__CFInitialize
   fun:_ZN16ImageLoaderMachO11doImageInitERKN11ImageLoader11LinkContextE
   fun:_ZN16ImageLoaderMachO16doInitializationERKN11ImageLoader11LinkContextE
}
{
   <insert_a_suppression_name_here>
   Memcheck:Leak
   fun:malloc_zone_malloc
   fun:buildProtocolList
   fun:realizeClass
   fun:realizeClass
   fun:realizeClass
   fun:look_up_class
   fun:objc_getFutureClass
   fun:_CFRuntimeBridgeClasses
   fun:__CFInitialize
   fun:_ZN16ImageLoaderMachO11doImageInitERKN11ImageLoader11LinkContextE
   fun:_ZN16ImageLoaderMachO16doInitializationERKN11ImageLoader11LinkContextE
   fun:_ZN11ImageLoader23recursiveInitializationERKNS_11LinkContextEj
}
{
   <insert_a_suppression_name_here>
   Memcheck:Leak
   fun:malloc_zone_calloc
   fun:attachMethodLists
   fun:realizeClass
   fun:realizeClass
   fun:realizeClass
   fun:look_up_class
   fun:objc_getFutureClass
   fun:_CFRuntimeBridgeClasses
   fun:__CFInitialize
   fun:_ZN16ImageLoaderMachO11doImageInitERKN11ImageLoader11LinkContextE
   fun:_ZN16ImageLoaderMachO16doInitializationERKN11ImageLoader11LinkContextE
   fun:_ZN11ImageLoader23recursiveInitializationERKNS_11LinkContextEj
}
{
   <insert_a_suppression_name_here>
   Memcheck:Leak
   fun:malloc_zone_malloc
   fun:buildProtocolList
   fun:realizeClass
   fun:realizeClass
   fun:realizeClass
   fun:realizeClass
   fun:look_up_class
   fun:objc_getFutureClass
   fun:_CFRuntimeBridgeClasses
   fun:__CFInitialize
   fun:_ZN16ImageLoaderMachO11doImageInitERKN11ImageLoader11LinkContextE
   fun:_ZN16ImageLoaderMachO16doInitializationERKN11ImageLoader11LinkContextE
}
{
   <insert_a_suppression_name_here>
   Memcheck:Leak
   fun:malloc_zone_malloc
   fun:buildProtocolList
   fun:realizeClass
   fun:realizeClass
   fun:realizeClass
   fun:look_up_class
   fun:objc_getFutureClass
   fun:_CFRuntimeBridgeClasses
   fun:__CFInitialize
   fun:_ZN16ImageLoaderMachO11doImageInitERKN11ImageLoader11LinkContextE
   fun:_ZN16ImageLoaderMachO16doInitializationERKN11ImageLoader11LinkContextE
   fun:_ZN11ImageLoader23recursiveInitializationERKNS_11LinkContextEj
}
{
   <insert_a_suppression_name_here>
   Memcheck:Leak
   fun:malloc_zone_calloc
   fun:attachMethodLists
   fun:realizeClass
   fun:realizeClass
   fun:realizeClass
   fun:look_up_class
   fun:objc_getFutureClass
   fun:_CFRuntimeBridgeClasses
   fun:__CFInitialize
   fun:_ZN16ImageLoaderMachO11doImageInitERKN11ImageLoader11LinkContextE
   fun:_ZN16ImageLoaderMachO16doInitializationERKN11ImageLoader11LinkContextE
   fun:_ZN11ImageLoader23recursiveInitializationERKNS_11LinkContextEj
}
{
   <insert_a_suppression_name_here>
   Memcheck:Leak
   fun:malloc_zone_calloc
   fun:attachMethodLists
   fun:realizeClass
   fun:realizeClass
   fun:look_up_class
   fun:objc_getFutureClass
   fun:_CFRuntimeBridgeClasses
   fun:__CFInitialize
   fun:_ZN16ImageLoaderMachO11doImageInitERKN11ImageLoader11LinkContextE
   fun:_ZN16ImageLoaderMachO16doInitializationERKN11ImageLoader11LinkContextE
   fun:_ZN11ImageLoader23recursiveInitializationERKNS_11LinkContextEj
   fun:_ZN11ImageLoader23recursiveInitializationERKNS_11LinkContextEj
}
{
   <insert_a_suppression_name_here>
   Memcheck:Leak
   fun:malloc_zone_calloc
   fun:attachMethodLists
   fun:realizeClass
   fun:look_up_class
   fun:objc_getFutureClass
   fun:_CFRuntimeBridgeClasses
   fun:__CFInitialize
   fun:_ZN16ImageLoaderMachO11doImageInitERKN11ImageLoader11LinkContextE
   fun:_ZN16ImageLoaderMachO16doInitializationERKN11ImageLoader11LinkContextE
   fun:_ZN11ImageLoader23recursiveInitializationERKNS_11LinkContextEj
   fun:_ZN11ImageLoader23recursiveInitializationERKNS_11LinkContextEj
   fun:_ZN11ImageLoader23recursiveInitializationERKNS_11LinkContextEj
}
{
   <insert_a_suppression_name_here>
   Memcheck:Leak
   fun:malloc_zone_malloc
   fun:buildProtocolList
   fun:realizeClass
   fun:realizeClass
   fun:realizeClass
   fun:realizeClass
   fun:look_up_class
   fun:objc_getFutureClass
   fun:_CFRuntimeBridgeClasses
   fun:__CFInitialize
   fun:_ZN16ImageLoaderMachO11doImageInitERKN11ImageLoader11LinkContextE
   fun:_ZN16ImageLoaderMachO16doInitializationERKN11ImageLoader11LinkContextE
}
{
   <insert_a_suppression_name_here>
   Memcheck:Leak
   fun:malloc_zone_malloc
   fun:buildProtocolList
   fun:realizeClass
   fun:realizeClass
   fun:realizeClass
   fun:look_up_class
   fun:objc_getFutureClass
   fun:_CFRuntimeBridgeClasses
   fun:__CFInitialize
   fun:_ZN16ImageLoaderMachO11doImageInitERKN11ImageLoader11LinkContextE
   fun:_ZN16ImageLoaderMachO16doInitializationERKN11ImageLoader11LinkContextE
   fun:_ZN11ImageLoader23recursiveInitializationERKNS_11LinkContextEj
}
{
   <insert_a_suppression_name_here>
   Memcheck:Leak
   fun:malloc_zone_calloc
   fun:attachMethodLists
   fun:realizeClass
   fun:realizeClass
   fun:look_up_class
   fun:objc_getFutureClass
   fun:_CFRuntimeBridgeClasses
   fun:__CFInitialize
   fun:_ZN16ImageLoaderMachO11doImageInitERKN11ImageLoader11LinkContextE
   fun:_ZN16ImageLoaderMachO16doInitializationERKN11ImageLoader11LinkContextE
   fun:_ZN11ImageLoader23recursiveInitializationERKNS_11LinkContextEj
   fun:_ZN11ImageLoader23recursiveInitializationERKNS_11LinkContextEj
}
{
   <insert_a_suppression_name_here>
   Memcheck:Leak
   fun:malloc_zone_calloc
   fun:attachMethodLists
   fun:realizeClass
   fun:look_up_class
   fun:objc_getFutureClass
   fun:_CFRuntimeBridgeClasses
   fun:__CFInitialize
   fun:_ZN16ImageLoaderMachO11doImageInitERKN11ImageLoader11LinkContextE
   fun:_ZN16ImageLoaderMachO16doInitializationERKN11ImageLoader11LinkContextE
   fun:_ZN11ImageLoader23recursiveInitializationERKNS_11LinkContextEj
   fun:_ZN11ImageLoader23recursiveInitializationERKNS_11LinkContextEj
   fun:_ZN11ImageLoader23recursiveInitializationERKNS_11LinkContextEj
}
{
   <insert_a_suppression_name_here>
   Memcheck:Leak
   fun:malloc_zone_malloc
   fun:buildProtocolList
   fun:realizeClass
   fun:realizeClass
   fun:look_up_class
   fun:objc_getFutureClass
   fun:_CFRuntimeBridgeClasses
   fun:__CFInitialize
   fun:_ZN16ImageLoaderMachO11doImageInitERKN11ImageLoader11LinkContextE
   fun:_ZN16ImageLoaderMachO16doInitializationERKN11ImageLoader11LinkContextE
   fun:_ZN11ImageLoader23recursiveInitializationERKNS_11LinkContextEj
   fun:_ZN11ImageLoader23recursiveInitializationERKNS_11LinkContextEj
}
{
   <insert_a_suppression_name_here>
   Memcheck:Leak
   fun:malloc_zone_malloc
   fun:buildProtocolList
   fun:realizeClass
   fun:look_up_class
   fun:objc_getFutureClass
   fun:_CFRuntimeBridgeClasses
   fun:__CFInitialize
   fun:_ZN16ImageLoaderMachO11doImageInitERKN11ImageLoader11LinkContextE
   fun:_ZN16ImageLoaderMachO16doInitializationERKN11ImageLoader11LinkContextE
   fun:_ZN11ImageLoader23recursiveInitializationERKNS_11LinkContextEj
   fun:_ZN11ImageLoader23recursiveInitializationERKNS_11LinkContextEj
   fun:_ZN11ImageLoader23recursiveInitializationERKNS_11LinkContextEj
}
{
   <insert_a_suppression_name_here>
   Memcheck:Leak
   fun:malloc_zone_malloc
   fun:buildProtocolList
   fun:realizeClass
   fun:realizeClass
   fun:realizeClass
   fun:realizeClass
   fun:look_up_class
   fun:objc_getFutureClass
   fun:_CFRuntimeBridgeClasses
   fun:__CFInitialize
   fun:_ZN16ImageLoaderMachO11doImageInitERKN11ImageLoader11LinkContextE
   fun:_ZN16ImageLoaderMachO16doInitializationERKN11ImageLoader11LinkContextE
}
{
   <insert_a_suppression_name_here>
   Memcheck:Leak
   fun:malloc_zone_malloc
   fun:buildProtocolList
   fun:realizeClass
   fun:realizeClass
   fun:realizeClass
   fun:look_up_class
   fun:objc_getFutureClass
   fun:_CFRuntimeBridgeClasses
   fun:__CFInitialize
   fun:_ZN16ImageLoaderMachO11doImageInitERKN11ImageLoader11LinkContextE
   fun:_ZN16ImageLoaderMachO16doInitializationERKN11ImageLoader11LinkContextE
   fun:_ZN11ImageLoader23recursiveInitializationERKNS_11LinkContextEj
}
{
   <insert_a_suppression_name_here>
   Memcheck:Leak
   fun:malloc_zone_calloc
   fun:attachMethodLists
   fun:realizeClass
   fun:realizeClass
   fun:look_up_class
   fun:objc_getFutureClass
   fun:_CFRuntimeBridgeClasses
   fun:__CFInitialize
   fun:_ZN16ImageLoaderMachO11doImageInitERKN11ImageLoader11LinkContextE
   fun:_ZN16ImageLoaderMachO16doInitializationERKN11ImageLoader11LinkContextE
   fun:_ZN11ImageLoader23recursiveInitializationERKNS_11LinkContextEj
   fun:_ZN11ImageLoader23recursiveInitializationERKNS_11LinkContextEj
}
{
   <insert_a_suppression_name_here>
   Memcheck:Leak
   fun:malloc_zone_calloc
   fun:attachMethodLists
   fun:realizeClass
   fun:look_up_class
   fun:objc_getFutureClass
   fun:_CFRuntimeBridgeClasses
   fun:__CFInitialize
   fun:_ZN16ImageLoaderMachO11doImageInitERKN11ImageLoader11LinkContextE
   fun:_ZN16ImageLoaderMachO16doInitializationERKN11ImageLoader11LinkContextE
   fun:_ZN11ImageLoader23recursiveInitializationERKNS_11LinkContextEj
   fun:_ZN11ImageLoader23recursiveInitializationERKNS_11LinkContextEj
   fun:_ZN11ImageLoader23recursiveInitializationERKNS_11LinkContextEj
}
{
   <insert_a_suppression_name_here>
   Memcheck:Leak
   fun:malloc_zone_calloc
   fun:attachMethodLists
   fun:realizeClass
   fun:realizeClass
   fun:look_up_class
   fun:objc_getFutureClass
   fun:_CFRuntimeBridgeClasses
   fun:__CFInitialize
   fun:_ZN16ImageLoaderMachO11doImageInitERKN11ImageLoader11LinkContextE
   fun:_ZN16ImageLoaderMachO16doInitializationERKN11ImageLoader11LinkContextE
   fun:_ZN11ImageLoader23recursiveInitializationERKNS_11LinkContextEj
   fun:_ZN11ImageLoader23recursiveInitializationERKNS_11LinkContextEj
}
{
   <insert_a_suppression_name_here>
   Memcheck:Leak
   fun:malloc_zone_calloc
   fun:attachMethodLists
   fun:realizeClass
   fun:look_up_class
   fun:objc_getFutureClass
   fun:_CFRuntimeBridgeClasses
   fun:__CFInitialize
   fun:_ZN16ImageLoaderMachO11doImageInitERKN11ImageLoader11LinkContextE
   fun:_ZN16ImageLoaderMachO16doInitializationERKN11ImageLoader11LinkContextE
   fun:_ZN11ImageLoader23recursiveInitializationERKNS_11LinkContextEj
   fun:_ZN11ImageLoader23recursiveInitializationERKNS_11LinkContextEj
   fun:_ZN11ImageLoader23recursiveInitializationERKNS_11LinkContextEj
}
{
   <insert_a_suppression_name_here>
   Memcheck:Leak
   fun:malloc_zone_calloc
   fun:attachMethodLists
   fun:realizeClass
   fun:realizeClass
   fun:realizeClass
   fun:look_up_class
   fun:objc_getFutureClass
   fun:_CFRuntimeBridgeClasses
   fun:__CFInitialize
   fun:_ZN16ImageLoaderMachO11doImageInitERKN11ImageLoader11LinkContextE
   fun:_ZN16ImageLoaderMachO16doInitializationERKN11ImageLoader11LinkContextE
   fun:_ZN11ImageLoader23recursiveInitializationERKNS_11LinkContextEj
}
{
   <insert_a_suppression_name_here>
   Memcheck:Leak
   fun:malloc_zone_malloc
   fun:buildProtocolList
   fun:realizeClass
   fun:realizeClass
   fun:realizeClass
   fun:look_up_class
   fun:objc_getFutureClass
   fun:_CFRuntimeBridgeClasses
   fun:__CFInitialize
   fun:_ZN16ImageLoaderMachO11doImageInitERKN11ImageLoader11LinkContextE
   fun:_ZN16ImageLoaderMachO16doInitializationERKN11ImageLoader11LinkContextE
   fun:_ZN11ImageLoader23recursiveInitializationERKNS_11LinkContextEj
}
{
   <insert_a_suppression_name_here>
   Memcheck:Leak
   fun:malloc_zone_calloc
   fun:attachMethodLists
   fun:realizeClass
   fun:realizeClass
   fun:look_up_class
   fun:objc_getFutureClass
   fun:_CFRuntimeBridgeClasses
   fun:__CFInitialize
   fun:_ZN16ImageLoaderMachO11doImageInitERKN11ImageLoader11LinkContextE
   fun:_ZN16ImageLoaderMachO16doInitializationERKN11ImageLoader11LinkContextE
   fun:_ZN11ImageLoader23recursiveInitializationERKNS_11LinkContextEj
   fun:_ZN11ImageLoader23recursiveInitializationERKNS_11LinkContextEj
}
{
   <insert_a_suppression_name_here>
   Memcheck:Leak
   fun:malloc_zone_malloc
   fun:buildProtocolList
   fun:realizeClass
   fun:realizeClass
   fun:look_up_class
   fun:objc_getFutureClass
   fun:_CFRuntimeBridgeClasses
   fun:__CFInitialize
   fun:_ZN16ImageLoaderMachO11doImageInitERKN11ImageLoader11LinkContextE
   fun:_ZN16ImageLoaderMachO16doInitializationERKN11ImageLoader11LinkContextE
   fun:_ZN11ImageLoader23recursiveInitializationERKNS_11LinkContextEj
   fun:_ZN11ImageLoader23recursiveInitializationERKNS_11LinkContextEj
}
{
   <insert_a_suppression_name_here>
   Memcheck:Leak
   fun:malloc_zone_calloc
   fun:attachMethodLists
   fun:realizeClass
   fun:realizeClass
   fun:look_up_class
   fun:objc_getFutureClass
   fun:_CFRuntimeBridgeClasses
   fun:__CFInitialize
   fun:_ZN16ImageLoaderMachO11doImageInitERKN11ImageLoader11LinkContextE
   fun:_ZN16ImageLoaderMachO16doInitializationERKN11ImageLoader11LinkContextE
   fun:_ZN11ImageLoader23recursiveInitializationERKNS_11LinkContextEj
   fun:_ZN11ImageLoader23recursiveInitializationERKNS_11LinkContextEj
}
{
   <insert_a_suppression_name_here>
   Memcheck:Leak
   fun:malloc_zone_calloc
   fun:attachMethodLists
   fun:realizeClass
   fun:look_up_class
   fun:objc_getFutureClass
   fun:_CFRuntimeBridgeClasses
   fun:__CFInitialize
   fun:_ZN16ImageLoaderMachO11doImageInitERKN11ImageLoader11LinkContextE
   fun:_ZN16ImageLoaderMachO16doInitializationERKN11ImageLoader11LinkContextE
   fun:_ZN11ImageLoader23recursiveInitializationERKNS_11LinkContextEj
   fun:_ZN11ImageLoader23recursiveInitializationERKNS_11LinkContextEj
   fun:_ZN11ImageLoader23recursiveInitializationERKNS_11LinkContextEj
}
{
   <insert_a_suppression_name_here>
   Memcheck:Leak
   fun:malloc_zone_calloc
   fun:attachMethodLists
   fun:realizeClass
   fun:realizeClass
   fun:look_up_class
   fun:objc_getFutureClass
   fun:_CFRuntimeBridgeClasses
   fun:__CFInitialize
   fun:_ZN16ImageLoaderMachO11doImageInitERKN11ImageLoader11LinkContextE
   fun:_ZN16ImageLoaderMachO16doInitializationERKN11ImageLoader11LinkContextE
   fun:_ZN11ImageLoader23recursiveInitializationERKNS_11LinkContextEj
   fun:_ZN11ImageLoader23recursiveInitializationERKNS_11LinkContextEj
}
{
   <insert_a_suppression_name_here>
   Memcheck:Leak
   fun:malloc_zone_calloc
   fun:attachMethodLists
   fun:realizeClass
   fun:look_up_class
   fun:objc_getFutureClass
   fun:_CFRuntimeBridgeClasses
   fun:__CFInitialize
   fun:_ZN16ImageLoaderMachO11doImageInitERKN11ImageLoader11LinkContextE
   fun:_ZN16ImageLoaderMachO16doInitializationERKN11ImageLoader11LinkContextE
   fun:_ZN11ImageLoader23recursiveInitializationERKNS_11LinkContextEj
   fun:_ZN11ImageLoader23recursiveInitializationERKNS_11LinkContextEj
   fun:_ZN11ImageLoader23recursiveInitializationERKNS_11LinkContextEj
}
{
   <insert_a_suppression_name_here>
   Memcheck:Leak
   fun:malloc_zone_calloc
   fun:attachMethodLists
   fun:realizeClass
   fun:realizeClass
   fun:realizeClass
   fun:look_up_class
   fun:objc_getFutureClass
   fun:_CFRuntimeBridgeClasses
   fun:__CFInitialize
   fun:_ZN16ImageLoaderMachO11doImageInitERKN11ImageLoader11LinkContextE
   fun:_ZN16ImageLoaderMachO16doInitializationERKN11ImageLoader11LinkContextE
   fun:_ZN11ImageLoader23recursiveInitializationERKNS_11LinkContextEj
}
{
   <insert_a_suppression_name_here>
   Memcheck:Leak
   fun:malloc_zone_calloc
   fun:attachMethodLists
   fun:realizeClass
   fun:realizeClass
   fun:look_up_class
   fun:objc_getFutureClass
   fun:_CFRuntimeBridgeClasses
   fun:__CFInitialize
   fun:_ZN16ImageLoaderMachO11doImageInitERKN11ImageLoader11LinkContextE
   fun:_ZN16ImageLoaderMachO16doInitializationERKN11ImageLoader11LinkContextE
   fun:_ZN11ImageLoader23recursiveInitializationERKNS_11LinkContextEj
   fun:_ZN11ImageLoader23recursiveInitializationERKNS_11LinkContextEj
}
{
   <insert_a_suppression_name_here>
   Memcheck:Leak
   fun:malloc_zone_calloc
   fun:attachMethodLists
   fun:realizeClass
   fun:look_up_class
   fun:objc_getFutureClass
   fun:_CFRuntimeBridgeClasses
   fun:__CFInitialize
   fun:_ZN16ImageLoaderMachO11doImageInitERKN11ImageLoader11LinkContextE
   fun:_ZN16ImageLoaderMachO16doInitializationERKN11ImageLoader11LinkContextE
   fun:_ZN11ImageLoader23recursiveInitializationERKNS_11LinkContextEj
   fun:_ZN11ImageLoader23recursiveInitializationERKNS_11LinkContextEj
   fun:_ZN11ImageLoader23recursiveInitializationERKNS_11LinkContextEj
}
{
   <insert_a_suppression_name_here>
   Memcheck:Leak
   fun:malloc_zone_malloc
   fun:buildProtocolList
   fun:realizeClass
   fun:realizeClass
   fun:realizeClass
   fun:look_up_class
   fun:objc_getFutureClass
   fun:_CFRuntimeBridgeClasses
   fun:__CFInitialize
   fun:_ZN16ImageLoaderMachO11doImageInitERKN11ImageLoader11LinkContextE
   fun:_ZN16ImageLoaderMachO16doInitializationERKN11ImageLoader11LinkContextE
   fun:_ZN11ImageLoader23recursiveInitializationERKNS_11LinkContextEj
}
{
   <insert_a_suppression_name_here>
   Memcheck:Leak
   fun:malloc_zone_malloc
   fun:buildProtocolList
   fun:realizeClass
   fun:realizeClass
   fun:look_up_class
   fun:objc_getFutureClass
   fun:_CFRuntimeBridgeClasses
   fun:__CFInitialize
   fun:_ZN16ImageLoaderMachO11doImageInitERKN11ImageLoader11LinkContextE
   fun:_ZN16ImageLoaderMachO16doInitializationERKN11ImageLoader11LinkContextE
   fun:_ZN11ImageLoader23recursiveInitializationERKNS_11LinkContextEj
   fun:_ZN11ImageLoader23recursiveInitializationERKNS_11LinkContextEj
}
{
   <insert_a_suppression_name_here>
   Memcheck:Leak
   fun:malloc_zone_calloc
   fun:attachMethodLists
   fun:realizeClass
   fun:realizeClass
   fun:look_up_class
   fun:objc_getFutureClass
   fun:_CFRuntimeBridgeClasses
   fun:__CFInitialize
   fun:_ZN16ImageLoaderMachO11doImageInitERKN11ImageLoader11LinkContextE
   fun:_ZN16ImageLoaderMachO16doInitializationERKN11ImageLoader11LinkContextE
   fun:_ZN11ImageLoader23recursiveInitializationERKNS_11LinkContextEj
   fun:_ZN11ImageLoader23recursiveInitializationERKNS_11LinkContextEj
}
{
   <insert_a_suppression_name_here>
   Memcheck:Leak
   fun:malloc_zone_calloc
   fun:attachMethodLists
   fun:realizeClass
   fun:look_up_class
   fun:objc_getFutureClass
   fun:_CFRuntimeBridgeClasses
   fun:__CFInitialize
   fun:_ZN16ImageLoaderMachO11doImageInitERKN11ImageLoader11LinkContextE
   fun:_ZN16ImageLoaderMachO16doInitializationERKN11ImageLoader11LinkContextE
   fun:_ZN11ImageLoader23recursiveInitializationERKNS_11LinkContextEj
   fun:_ZN11ImageLoader23recursiveInitializationERKNS_11LinkContextEj
   fun:_ZN11ImageLoader23recursiveInitializationERKNS_11LinkContextEj
}
{
   <insert_a_suppression_name_here>
   Memcheck:Leak
   fun:malloc_zone_malloc
   fun:buildProtocolList
   fun:realizeClass
   fun:realizeClass
   fun:realizeClass
   fun:look_up_class
   fun:objc_getFutureClass
   fun:_CFRuntimeBridgeClasses
   fun:__CFInitialize
   fun:_ZN16ImageLoaderMachO11doImageInitERKN11ImageLoader11LinkContextE
   fun:_ZN16ImageLoaderMachO16doInitializationERKN11ImageLoader11LinkContextE
   fun:_ZN11ImageLoader23recursiveInitializationERKNS_11LinkContextEj
}
{
   <insert_a_suppression_name_here>
   Memcheck:Leak
   fun:malloc_zone_malloc
   fun:buildProtocolList
   fun:realizeClass
   fun:realizeClass
   fun:look_up_class
   fun:objc_getFutureClass
   fun:_CFRuntimeBridgeClasses
   fun:__CFInitialize
   fun:_ZN16ImageLoaderMachO11doImageInitERKN11ImageLoader11LinkContextE
   fun:_ZN16ImageLoaderMachO16doInitializationERKN11ImageLoader11LinkContextE
   fun:_ZN11ImageLoader23recursiveInitializationERKNS_11LinkContextEj
   fun:_ZN11ImageLoader23recursiveInitializationERKNS_11LinkContextEj
}
{
   <insert_a_suppression_name_here>
   Memcheck:Leak
   fun:malloc_zone_calloc
   fun:attachMethodLists
   fun:realizeClass
   fun:realizeClass
   fun:look_up_class
   fun:objc_getFutureClass
   fun:_CFRuntimeBridgeClasses
   fun:__CFInitialize
   fun:_ZN16ImageLoaderMachO11doImageInitERKN11ImageLoader11LinkContextE
   fun:_ZN16ImageLoaderMachO16doInitializationERKN11ImageLoader11LinkContextE
   fun:_ZN11ImageLoader23recursiveInitializationERKNS_11LinkContextEj
   fun:_ZN11ImageLoader23recursiveInitializationERKNS_11LinkContextEj
}
{
   <insert_a_suppression_name_here>
   Memcheck:Leak
   fun:malloc_zone_calloc
   fun:attachMethodLists
   fun:realizeClass
   fun:look_up_class
   fun:objc_getFutureClass
   fun:_CFRuntimeBridgeClasses
   fun:__CFInitialize
   fun:_ZN16ImageLoaderMachO11doImageInitERKN11ImageLoader11LinkContextE
   fun:_ZN16ImageLoaderMachO16doInitializationERKN11ImageLoader11LinkContextE
   fun:_ZN11ImageLoader23recursiveInitializationERKNS_11LinkContextEj
   fun:_ZN11ImageLoader23recursiveInitializationERKNS_11LinkContextEj
   fun:_ZN11ImageLoader23recursiveInitializationERKNS_11LinkContextEj
}
{
   <insert_a_suppression_name_here>
   Memcheck:Leak
   fun:malloc_zone_malloc
   fun:buildProtocolList
   fun:realizeClass
   fun:realizeClass
   fun:realizeClass
   fun:look_up_class
   fun:objc_getFutureClass
   fun:_CFRuntimeBridgeClasses
   fun:__CFInitialize
   fun:_ZN16ImageLoaderMachO11doImageInitERKN11ImageLoader11LinkContextE
   fun:_ZN16ImageLoaderMachO16doInitializationERKN11ImageLoader11LinkContextE
   fun:_ZN11ImageLoader23recursiveInitializationERKNS_11LinkContextEj
}
{
   <insert_a_suppression_name_here>
   Memcheck:Leak
   fun:malloc_zone_malloc
   fun:buildProtocolList
   fun:realizeClass
   fun:realizeClass
   fun:look_up_class
   fun:objc_getFutureClass
   fun:_CFRuntimeBridgeClasses
   fun:__CFInitialize
   fun:_ZN16ImageLoaderMachO11doImageInitERKN11ImageLoader11LinkContextE
   fun:_ZN16ImageLoaderMachO16doInitializationERKN11ImageLoader11LinkContextE
   fun:_ZN11ImageLoader23recursiveInitializationERKNS_11LinkContextEj
   fun:_ZN11ImageLoader23recursiveInitializationERKNS_11LinkContextEj
}
{
   <insert_a_suppression_name_here>
   Memcheck:Leak
   fun:malloc_zone_calloc
   fun:attachMethodLists
   fun:realizeClass
   fun:realizeClass
   fun:look_up_class
   fun:objc_getFutureClass
   fun:_CFRuntimeBridgeClasses
   fun:__CFInitialize
   fun:_ZN16ImageLoaderMachO11doImageInitERKN11ImageLoader11LinkContextE
   fun:_ZN16ImageLoaderMachO16doInitializationERKN11ImageLoader11LinkContextE
   fun:_ZN11ImageLoader23recursiveInitializationERKNS_11LinkContextEj
   fun:_ZN11ImageLoader23recursiveInitializationERKNS_11LinkContextEj
}
{
   <insert_a_suppression_name_here>
   Memcheck:Leak
   fun:malloc_zone_calloc
   fun:attachMethodLists
   fun:realizeClass
   fun:look_up_class
   fun:objc_getFutureClass
   fun:_CFRuntimeBridgeClasses
   fun:__CFInitialize
   fun:_ZN16ImageLoaderMachO11doImageInitERKN11ImageLoader11LinkContextE
   fun:_ZN16ImageLoaderMachO16doInitializationERKN11ImageLoader11LinkContextE
   fun:_ZN11ImageLoader23recursiveInitializationERKNS_11LinkContextEj
   fun:_ZN11ImageLoader23recursiveInitializationERKNS_11LinkContextEj
   fun:_ZN11ImageLoader23recursiveInitializationERKNS_11LinkContextEj
}
{
   <insert_a_suppression_name_here>
   Memcheck:Leak
   fun:malloc_zone_calloc
   fun:attachMethodLists
   fun:realizeClass
   fun:realizeClass
   fun:realizeClass
   fun:realizeClass
   fun:look_up_class
   fun:objc_getFutureClass
   fun:_CFRuntimeBridgeClasses
   fun:__CFInitialize
   fun:_ZN16ImageLoaderMachO11doImageInitERKN11ImageLoader11LinkContextE
   fun:_ZN16ImageLoaderMachO16doInitializationERKN11ImageLoader11LinkContextE
}
{
   <insert_a_suppression_name_here>
   Memcheck:Leak
   fun:malloc_zone_malloc
   fun:buildProtocolList
   fun:realizeClass
   fun:realizeClass
   fun:realizeClass
   fun:realizeClass
   fun:look_up_class
   fun:objc_getFutureClass
   fun:_CFRuntimeBridgeClasses
   fun:__CFInitialize
   fun:_ZN16ImageLoaderMachO11doImageInitERKN11ImageLoader11LinkContextE
   fun:_ZN16ImageLoaderMachO16doInitializationERKN11ImageLoader11LinkContextE
}
{
   <insert_a_suppression_name_here>
   Memcheck:Leak
   fun:malloc_zone_malloc
   fun:buildProtocolList
   fun:realizeClass
   fun:realizeClass
   fun:realizeClass
   fun:look_up_class
   fun:objc_getFutureClass
   fun:_CFRuntimeBridgeClasses
   fun:__CFInitialize
   fun:_ZN16ImageLoaderMachO11doImageInitERKN11ImageLoader11LinkContextE
   fun:_ZN16ImageLoaderMachO16doInitializationERKN11ImageLoader11LinkContextE
   fun:_ZN11ImageLoader23recursiveInitializationERKNS_11LinkContextEj
}
{
   <insert_a_suppression_name_here>
   Memcheck:Leak
   fun:malloc_zone_calloc
   fun:attachMethodLists
   fun:realizeClass
   fun:realizeClass
   fun:realizeClass
   fun:look_up_class
   fun:objc_getFutureClass
   fun:_CFRuntimeBridgeClasses
   fun:__CFInitialize
   fun:_ZN16ImageLoaderMachO11doImageInitERKN11ImageLoader11LinkContextE
   fun:_ZN16ImageLoaderMachO16doInitializationERKN11ImageLoader11LinkContextE
   fun:_ZN11ImageLoader23recursiveInitializationERKNS_11LinkContextEj
}
{
   <insert_a_suppression_name_here>
   Memcheck:Leak
   fun:malloc_zone_malloc
   fun:buildProtocolList
   fun:realizeClass
   fun:realizeClass
   fun:realizeClass
   fun:look_up_class
   fun:objc_getFutureClass
   fun:_CFRuntimeBridgeClasses
   fun:__CFInitialize
   fun:_ZN16ImageLoaderMachO11doImageInitERKN11ImageLoader11LinkContextE
   fun:_ZN16ImageLoaderMachO16doInitializationERKN11ImageLoader11LinkContextE
   fun:_ZN11ImageLoader23recursiveInitializationERKNS_11LinkContextEj
}
{
   <insert_a_suppression_name_here>
   Memcheck:Leak
   fun:malloc_zone_calloc
   fun:attachMethodLists
   fun:realizeClass
   fun:realizeClass
   fun:look_up_class
   fun:objc_getFutureClass
   fun:_CFRuntimeBridgeClasses
   fun:__CFInitialize
   fun:_ZN16ImageLoaderMachO11doImageInitERKN11ImageLoader11LinkContextE
   fun:_ZN16ImageLoaderMachO16doInitializationERKN11ImageLoader11LinkContextE
   fun:_ZN11ImageLoader23recursiveInitializationERKNS_11LinkContextEj
   fun:_ZN11ImageLoader23recursiveInitializationERKNS_11LinkContextEj
}
{
   <insert_a_suppression_name_here>
   Memcheck:Leak
   fun:malloc_zone_malloc
   fun:buildProtocolList
   fun:realizeClass
   fun:realizeClass
   fun:look_up_class
   fun:objc_getFutureClass
   fun:_CFRuntimeBridgeClasses
   fun:__CFInitialize
   fun:_ZN16ImageLoaderMachO11doImageInitERKN11ImageLoader11LinkContextE
   fun:_ZN16ImageLoaderMachO16doInitializationERKN11ImageLoader11LinkContextE
   fun:_ZN11ImageLoader23recursiveInitializationERKNS_11LinkContextEj
   fun:_ZN11ImageLoader23recursiveInitializationERKNS_11LinkContextEj
}
{
   <insert_a_suppression_name_here>
   Memcheck:Leak
   fun:malloc_zone_calloc
   fun:attachMethodLists
   fun:realizeClass
   fun:realizeClass
   fun:look_up_class
   fun:objc_getFutureClass
   fun:_CFRuntimeBridgeClasses
   fun:__CFInitialize
   fun:_ZN16ImageLoaderMachO11doImageInitERKN11ImageLoader11LinkContextE
   fun:_ZN16ImageLoaderMachO16doInitializationERKN11ImageLoader11LinkContextE
   fun:_ZN11ImageLoader23recursiveInitializationERKNS_11LinkContextEj
   fun:_ZN11ImageLoader23recursiveInitializationERKNS_11LinkContextEj
}
{
   <insert_a_suppression_name_here>
   Memcheck:Leak
   fun:malloc_zone_calloc
   fun:attachMethodLists
   fun:realizeClass
   fun:look_up_class
   fun:objc_getFutureClass
   fun:_CFRuntimeBridgeClasses
   fun:__CFInitialize
   fun:_ZN16ImageLoaderMachO11doImageInitERKN11ImageLoader11LinkContextE
   fun:_ZN16ImageLoaderMachO16doInitializationERKN11ImageLoader11LinkContextE
   fun:_ZN11ImageLoader23recursiveInitializationERKNS_11LinkContextEj
   fun:_ZN11ImageLoader23recursiveInitializationERKNS_11LinkContextEj
   fun:_ZN11ImageLoader23recursiveInitializationERKNS_11LinkContextEj
}
{
   <insert_a_suppression_name_here>
   Memcheck:Leak
   fun:malloc_zone_calloc
   fun:attachMethodLists
   fun:realizeClass
   fun:realizeClass
   fun:look_up_class
   fun:objc_getFutureClass
   fun:_CFRuntimeBridgeClasses
   fun:__CFInitialize
   fun:_ZN16ImageLoaderMachO11doImageInitERKN11ImageLoader11LinkContextE
   fun:_ZN16ImageLoaderMachO16doInitializationERKN11ImageLoader11LinkContextE
   fun:_ZN11ImageLoader23recursiveInitializationERKNS_11LinkContextEj
   fun:_ZN11ImageLoader23recursiveInitializationERKNS_11LinkContextEj
}
{
   <insert_a_suppression_name_here>
   Memcheck:Leak
   fun:malloc_zone_calloc
   fun:attachMethodLists
   fun:realizeClass
   fun:look_up_class
   fun:objc_getFutureClass
   fun:_CFRuntimeBridgeClasses
   fun:__CFInitialize
   fun:_ZN16ImageLoaderMachO11doImageInitERKN11ImageLoader11LinkContextE
   fun:_ZN16ImageLoaderMachO16doInitializationERKN11ImageLoader11LinkContextE
   fun:_ZN11ImageLoader23recursiveInitializationERKNS_11LinkContextEj
   fun:_ZN11ImageLoader23recursiveInitializationERKNS_11LinkContextEj
   fun:_ZN11ImageLoader23recursiveInitializationERKNS_11LinkContextEj
}
{
   <insert_a_suppression_name_here>
   Memcheck:Leak
   fun:malloc_zone_calloc
   fun:attachMethodLists
   fun:realizeClass
   fun:realizeClass
   fun:look_up_class
   fun:objc_getFutureClass
   fun:_CFRuntimeBridgeClasses
   fun:__CFInitialize
   fun:_ZN16ImageLoaderMachO11doImageInitERKN11ImageLoader11LinkContextE
   fun:_ZN16ImageLoaderMachO16doInitializationERKN11ImageLoader11LinkContextE
   fun:_ZN11ImageLoader23recursiveInitializationERKNS_11LinkContextEj
   fun:_ZN11ImageLoader23recursiveInitializationERKNS_11LinkContextEj
}
{
   <insert_a_suppression_name_here>
   Memcheck:Leak
   fun:malloc_zone_calloc
   fun:attachMethodLists
   fun:realizeClass
   fun:look_up_class
   fun:objc_getFutureClass
   fun:_CFRuntimeBridgeClasses
   fun:__CFInitialize
   fun:_ZN16ImageLoaderMachO11doImageInitERKN11ImageLoader11LinkContextE
   fun:_ZN16ImageLoaderMachO16doInitializationERKN11ImageLoader11LinkContextE
   fun:_ZN11ImageLoader23recursiveInitializationERKNS_11LinkContextEj
   fun:_ZN11ImageLoader23recursiveInitializationERKNS_11LinkContextEj
   fun:_ZN11ImageLoader23recursiveInitializationERKNS_11LinkContextEj
}
{
   <insert_a_suppression_name_here>
   Memcheck:Leak
   fun:malloc_zone_calloc
   fun:attachMethodLists
   fun:realizeClass
   fun:realizeClass
   fun:realizeClass
   fun:look_up_class
   fun:__CFMakeNSBlockClasses
   fun:__CFInitialize
   fun:_ZN16ImageLoaderMachO11doImageInitERKN11ImageLoader11LinkContextE
   fun:_ZN16ImageLoaderMachO16doInitializationERKN11ImageLoader11LinkContextE
   fun:_ZN11ImageLoader23recursiveInitializationERKNS_11LinkContextEj
   fun:_ZN11ImageLoader23recursiveInitializationERKNS_11LinkContextEj
}
{
   <insert_a_suppression_name_here>
   Memcheck:Leak
   fun:malloc_zone_malloc
   fun:buildProtocolList
   fun:realizeClass
   fun:realizeClass
   fun:realizeClass
   fun:look_up_class
   fun:__CFMakeNSBlockClasses
   fun:__CFInitialize
   fun:_ZN16ImageLoaderMachO11doImageInitERKN11ImageLoader11LinkContextE
   fun:_ZN16ImageLoaderMachO16doInitializationERKN11ImageLoader11LinkContextE
   fun:_ZN11ImageLoader23recursiveInitializationERKNS_11LinkContextEj
   fun:_ZN11ImageLoader23recursiveInitializationERKNS_11LinkContextEj
}
{
   <insert_a_suppression_name_here>
   Memcheck:Leak
   fun:malloc_zone_calloc
   fun:attachMethodLists
   fun:realizeClass
   fun:realizeClass
   fun:look_up_class
   fun:__CFMakeNSBlockClasses
   fun:__CFInitialize
   fun:_ZN16ImageLoaderMachO11doImageInitERKN11ImageLoader11LinkContextE
   fun:_ZN16ImageLoaderMachO16doInitializationERKN11ImageLoader11LinkContextE
   fun:_ZN11ImageLoader23recursiveInitializationERKNS_11LinkContextEj
   fun:_ZN11ImageLoader23recursiveInitializationERKNS_11LinkContextEj
   fun:_ZN11ImageLoader23recursiveInitializationERKNS_11LinkContextEj
}
{
   <insert_a_suppression_name_here>
   Memcheck:Leak
   fun:malloc_zone_malloc
   fun:buildProtocolList
   fun:realizeClass
   fun:realizeClass
   fun:look_up_class
   fun:__CFMakeNSBlockClasses
   fun:__CFInitialize
   fun:_ZN16ImageLoaderMachO11doImageInitERKN11ImageLoader11LinkContextE
   fun:_ZN16ImageLoaderMachO16doInitializationERKN11ImageLoader11LinkContextE
   fun:_ZN11ImageLoader23recursiveInitializationERKNS_11LinkContextEj
   fun:_ZN11ImageLoader23recursiveInitializationERKNS_11LinkContextEj
   fun:_ZN11ImageLoader23recursiveInitializationERKNS_11LinkContextEj
}
{
   <insert_a_suppression_name_here>
   Memcheck:Leak
   fun:malloc_zone_calloc
   fun:attachMethodLists
   fun:realizeClass
   fun:realizeClass
   fun:look_up_class
   fun:__CFMakeNSBlockClasses
   fun:__CFInitialize
   fun:_ZN16ImageLoaderMachO11doImageInitERKN11ImageLoader11LinkContextE
   fun:_ZN16ImageLoaderMachO16doInitializationERKN11ImageLoader11LinkContextE
   fun:_ZN11ImageLoader23recursiveInitializationERKNS_11LinkContextEj
   fun:_ZN11ImageLoader23recursiveInitializationERKNS_11LinkContextEj
   fun:_ZN11ImageLoader23recursiveInitializationERKNS_11LinkContextEj
}
{
   <insert_a_suppression_name_here>
   Memcheck:Leak
   fun:malloc_zone_calloc
   fun:attachMethodLists
   fun:realizeClass
   fun:look_up_class
   fun:__CFMakeNSBlockClasses
   fun:__CFInitialize
   fun:_ZN16ImageLoaderMachO11doImageInitERKN11ImageLoader11LinkContextE
   fun:_ZN16ImageLoaderMachO16doInitializationERKN11ImageLoader11LinkContextE
   fun:_ZN11ImageLoader23recursiveInitializationERKNS_11LinkContextEj
   fun:_ZN11ImageLoader23recursiveInitializationERKNS_11LinkContextEj
   fun:_ZN11ImageLoader23recursiveInitializationERKNS_11LinkContextEj
   fun:_ZN11ImageLoader23recursiveInitializationERKNS_11LinkContextEj
}
{
   <insert_a_suppression_name_here>
   Memcheck:Leak
   fun:malloc_zone_calloc
   fun:attachMethodLists
   fun:realizeClass
   fun:realizeClass
   fun:look_up_class
   fun:__CFMakeNSBlockClasses
   fun:__CFInitialize
   fun:_ZN16ImageLoaderMachO11doImageInitERKN11ImageLoader11LinkContextE
   fun:_ZN16ImageLoaderMachO16doInitializationERKN11ImageLoader11LinkContextE
   fun:_ZN11ImageLoader23recursiveInitializationERKNS_11LinkContextEj
   fun:_ZN11ImageLoader23recursiveInitializationERKNS_11LinkContextEj
   fun:_ZN11ImageLoader23recursiveInitializationERKNS_11LinkContextEj
}
{
   <insert_a_suppression_name_here>
   Memcheck:Leak
   fun:malloc_zone_calloc
   fun:attachMethodLists
   fun:realizeClass
   fun:look_up_class
   fun:__CFMakeNSBlockClasses
   fun:__CFInitialize
   fun:_ZN16ImageLoaderMachO11doImageInitERKN11ImageLoader11LinkContextE
   fun:_ZN16ImageLoaderMachO16doInitializationERKN11ImageLoader11LinkContextE
   fun:_ZN11ImageLoader23recursiveInitializationERKNS_11LinkContextEj
   fun:_ZN11ImageLoader23recursiveInitializationERKNS_11LinkContextEj
   fun:_ZN11ImageLoader23recursiveInitializationERKNS_11LinkContextEj
   fun:_ZN11ImageLoader23recursiveInitializationERKNS_11LinkContextEj
}
{
   <insert_a_suppression_name_here>
   Memcheck:Leak
   fun:malloc_zone_calloc
   fun:attachMethodLists
   fun:realizeClass
   fun:realizeClass
   fun:look_up_class
   fun:__CFMakeNSBlockClasses
   fun:__CFInitialize
   fun:_ZN16ImageLoaderMachO11doImageInitERKN11ImageLoader11LinkContextE
   fun:_ZN16ImageLoaderMachO16doInitializationERKN11ImageLoader11LinkContextE
   fun:_ZN11ImageLoader23recursiveInitializationERKNS_11LinkContextEj
   fun:_ZN11ImageLoader23recursiveInitializationERKNS_11LinkContextEj
   fun:_ZN11ImageLoader23recursiveInitializationERKNS_11LinkContextEj
}
{
   <insert_a_suppression_name_here>
   Memcheck:Leak
   fun:malloc_zone_calloc
   fun:attachMethodLists
   fun:realizeClass
   fun:look_up_class
   fun:__CFMakeNSBlockClasses
   fun:__CFInitialize
   fun:_ZN16ImageLoaderMachO11doImageInitERKN11ImageLoader11LinkContextE
   fun:_ZN16ImageLoaderMachO16doInitializationERKN11ImageLoader11LinkContextE
   fun:_ZN11ImageLoader23recursiveInitializationERKNS_11LinkContextEj
   fun:_ZN11ImageLoader23recursiveInitializationERKNS_11LinkContextEj
   fun:_ZN11ImageLoader23recursiveInitializationERKNS_11LinkContextEj
   fun:_ZN11ImageLoader23recursiveInitializationERKNS_11LinkContextEj
}
{
   <insert_a_suppression_name_here>
   Memcheck:Leak
   fun:malloc_zone_malloc
   fun:_strdup_internal
   fun:objc_initializeClassPair_internal
   fun:objc_initializeClassPair
   fun:__CFMakeNSBlockClasses
   fun:__CFInitialize
   fun:_ZN16ImageLoaderMachO11doImageInitERKN11ImageLoader11LinkContextE
   fun:_ZN16ImageLoaderMachO16doInitializationERKN11ImageLoader11LinkContextE
   fun:_ZN11ImageLoader23recursiveInitializationERKNS_11LinkContextEj
   fun:_ZN11ImageLoader23recursiveInitializationERKNS_11LinkContextEj
   fun:_ZN11ImageLoader23recursiveInitializationERKNS_11LinkContextEj
   fun:_ZN11ImageLoader23recursiveInitializationERKNS_11LinkContextEj
}
{
   <insert_a_suppression_name_here>
   Memcheck:Leak
   fun:malloc_zone_malloc
   fun:_strdup_internal
   fun:objc_initializeClassPair_internal
   fun:objc_initializeClassPair
   fun:__CFMakeNSBlockClasses
   fun:__CFInitialize
   fun:_ZN16ImageLoaderMachO11doImageInitERKN11ImageLoader11LinkContextE
   fun:_ZN16ImageLoaderMachO16doInitializationERKN11ImageLoader11LinkContextE
   fun:_ZN11ImageLoader23recursiveInitializationERKNS_11LinkContextEj
   fun:_ZN11ImageLoader23recursiveInitializationERKNS_11LinkContextEj
   fun:_ZN11ImageLoader23recursiveInitializationERKNS_11LinkContextEj
   fun:_ZN11ImageLoader23recursiveInitializationERKNS_11LinkContextEj
}
{
   <insert_a_suppression_name_here>
   Memcheck:Leak
   fun:malloc_zone_calloc
   fun:attachMethodLists
   fun:realizeClass
   fun:realizeClass
   fun:look_up_class
   fun:__CFMakeNSBlockClasses
   fun:__CFInitialize
   fun:_ZN16ImageLoaderMachO11doImageInitERKN11ImageLoader11LinkContextE
   fun:_ZN16ImageLoaderMachO16doInitializationERKN11ImageLoader11LinkContextE
   fun:_ZN11ImageLoader23recursiveInitializationERKNS_11LinkContextEj
   fun:_ZN11ImageLoader23recursiveInitializationERKNS_11LinkContextEj
   fun:_ZN11ImageLoader23recursiveInitializationERKNS_11LinkContextEj
}
{
   <insert_a_suppression_name_here>
   Memcheck:Leak
   fun:malloc_zone_calloc
   fun:attachMethodLists
   fun:realizeClass
   fun:look_up_class
   fun:__CFMakeNSBlockClasses
   fun:__CFInitialize
   fun:_ZN16ImageLoaderMachO11doImageInitERKN11ImageLoader11LinkContextE
   fun:_ZN16ImageLoaderMachO16doInitializationERKN11ImageLoader11LinkContextE
   fun:_ZN11ImageLoader23recursiveInitializationERKNS_11LinkContextEj
   fun:_ZN11ImageLoader23recursiveInitializationERKNS_11LinkContextEj
   fun:_ZN11ImageLoader23recursiveInitializationERKNS_11LinkContextEj
   fun:_ZN11ImageLoader23recursiveInitializationERKNS_11LinkContextEj
}
{
   <insert_a_suppression_name_here>
   Memcheck:Leak
   fun:malloc_zone_calloc
   fun:attachMethodLists
   fun:realizeClass
   fun:realizeClass
   fun:look_up_class
   fun:__CFMakeNSBlockClasses
   fun:__CFInitialize
   fun:_ZN16ImageLoaderMachO11doImageInitERKN11ImageLoader11LinkContextE
   fun:_ZN16ImageLoaderMachO16doInitializationERKN11ImageLoader11LinkContextE
   fun:_ZN11ImageLoader23recursiveInitializationERKNS_11LinkContextEj
   fun:_ZN11ImageLoader23recursiveInitializationERKNS_11LinkContextEj
   fun:_ZN11ImageLoader23recursiveInitializationERKNS_11LinkContextEj
}
{
   <insert_a_suppression_name_here>
   Memcheck:Leak
   fun:malloc_zone_calloc
   fun:attachMethodLists
   fun:realizeClass
   fun:look_up_class
   fun:__CFMakeNSBlockClasses
   fun:__CFInitialize
   fun:_ZN16ImageLoaderMachO11doImageInitERKN11ImageLoader11LinkContextE
   fun:_ZN16ImageLoaderMachO16doInitializationERKN11ImageLoader11LinkContextE
   fun:_ZN11ImageLoader23recursiveInitializationERKNS_11LinkContextEj
   fun:_ZN11ImageLoader23recursiveInitializationERKNS_11LinkContextEj
   fun:_ZN11ImageLoader23recursiveInitializationERKNS_11LinkContextEj
   fun:_ZN11ImageLoader23recursiveInitializationERKNS_11LinkContextEj
}
{
   <insert_a_suppression_name_here>
   Memcheck:Leak
   fun:malloc_zone_calloc
   fun:attachMethodLists
   fun:realizeClass
   fun:realizeClass
   fun:look_up_class
   fun:__CFMakeNSBlockClasses
   fun:__CFInitialize
   fun:_ZN16ImageLoaderMachO11doImageInitERKN11ImageLoader11LinkContextE
   fun:_ZN16ImageLoaderMachO16doInitializationERKN11ImageLoader11LinkContextE
   fun:_ZN11ImageLoader23recursiveInitializationERKNS_11LinkContextEj
   fun:_ZN11ImageLoader23recursiveInitializationERKNS_11LinkContextEj
   fun:_ZN11ImageLoader23recursiveInitializationERKNS_11LinkContextEj
}
{
   <insert_a_suppression_name_here>
   Memcheck:Leak
   fun:malloc_zone_calloc
   fun:attachMethodLists
   fun:realizeClass
   fun:look_up_class
   fun:__CFMakeNSBlockClasses
   fun:__CFInitialize
   fun:_ZN16ImageLoaderMachO11doImageInitERKN11ImageLoader11LinkContextE
   fun:_ZN16ImageLoaderMachO16doInitializationERKN11ImageLoader11LinkContextE
   fun:_ZN11ImageLoader23recursiveInitializationERKNS_11LinkContextEj
   fun:_ZN11ImageLoader23recursiveInitializationERKNS_11LinkContextEj
   fun:_ZN11ImageLoader23recursiveInitializationERKNS_11LinkContextEj
   fun:_ZN11ImageLoader23recursiveInitializationERKNS_11LinkContextEj
}
{
   <insert_a_suppression_name_here>
   Memcheck:Leak
   fun:malloc
   fun:_Znwm
   fun:_ZN11QThreadData7currentEv
   fun:_ZN7QThread13currentThreadEv
   fun:_ZN23QCoreApplicationPrivateC2ERiPPc
   fun:_ZN19QApplicationPrivateC2ERiPPcN12QApplication4TypeE
   fun:_ZN12QApplicationC2ERiPPci
   fun:main
}
{
   <insert_a_suppression_name_here>
   Memcheck:Leak
   fun:malloc_zone_malloc
   fun:__CFUniCharLoadDecompositionTable
   fun:CFUniCharDecompose
   fun:CFStringGetFileSystemRepresentation
   fun:_CFStringGetFileSystemRepresentation
   fun:CFURLGetFileSystemRepresentation
   fun:_CFGetFileProperties
   fun:_CFIsResourceAtURL
   fun:_CFBundleURLLooksLikeBundleVersion
   fun:_CFBundleCreate
   fun:_CFBundleGetMainBundleAlreadyLocked
   fun:CFBundleGetMainBundle
}
{
   <insert_a_suppression_name_here>
   Memcheck:Leak
   fun:malloc_zone_malloc
   fun:buildProtocolList
   fun:realizeClass
   fun:realizeClass
   fun:_objc_fixupMessageRef
   fun:objc_msgSend_fixup
   fun:CFDateCreate
   fun:_CFGetFileProperties
   fun:_CFBundleCreate
   fun:_CFBundleGetMainBundleAlreadyLocked
   fun:CFBundleGetMainBundle
   fun:cacheBundleInfo
}
{
   <insert_a_suppression_name_here>
   Memcheck:Leak
   fun:malloc_zone_malloc
   fun:buildProtocolList
   fun:realizeClass
   fun:_objc_fixupMessageRef
   fun:objc_msgSend_fixup
   fun:CFDateCreate
   fun:_CFGetFileProperties
   fun:_CFBundleCreate
   fun:_CFBundleGetMainBundleAlreadyLocked
   fun:CFBundleGetMainBundle
   fun:cacheBundleInfo
   fun:_CFAppVersionCheckLessThan
}
{
   <insert_a_suppression_name_here>
   Memcheck:Leak
   fun:malloc_zone_calloc
   fun:_fetchInitializingClassList
   fun:_class_initialize
   fun:_class_initialize
   fun:prepareForMethodLookup
   fun:lookUpMethod
   fun:objc_msgSend
   fun:CFDateCreate
   fun:_CFGetFileProperties
   fun:_CFBundleCreate
   fun:_CFBundleGetMainBundleAlreadyLocked
   fun:CFBundleGetMainBundle
}
{
   <insert_a_suppression_name_here>
   Memcheck:Leak
   fun:malloc_zone_calloc
   fun:attachMethodLists
   fun:realizeClass
   fun:prepareForMethodLookup
   fun:lookUpMethod
   fun:objc_msgSend
   fun:+[NSDate allocWithZone:]
   fun:CFDateCreate
   fun:_CFGetFileProperties
   fun:_CFBundleCreate
   fun:_CFBundleGetMainBundleAlreadyLocked
   fun:CFBundleGetMainBundle
}
{
   <insert_a_suppression_name_here>
   Memcheck:Leak
   fun:malloc_zone_calloc
   fun:attachMethodLists
   fun:realizeClass
   fun:_class_getNonMetaClass
   fun:_class_initialize
   fun:prepareForMethodLookup
   fun:lookUpMethod
   fun:objc_msgSend
   fun:+[NSDate allocWithZone:]
   fun:CFDateCreate
   fun:_CFGetFileProperties
   fun:_CFBundleCreate
}
{
   <insert_a_suppression_name_here>
   Memcheck:Leak
   fun:calloc
   fun:_internal_class_createInstanceFromZone
   fun:+[NSObject(NSObject) allocWithZone:]
   fun:+[NSDate allocWithZone:]
   fun:+[__NSPlaceholderDate initialize]
   fun:_class_initialize
   fun:prepareForMethodLookup
   fun:lookUpMethod
   fun:objc_msgSend
   fun:+[NSDate allocWithZone:]
   fun:CFDateCreate
   fun:_CFGetFileProperties
}
{
   <insert_a_suppression_name_here>
   Memcheck:Leak
   fun:malloc_zone_calloc
   fun:attachMethodLists
   fun:realizeClass
   fun:prepareForMethodLookup
   fun:lookUpMethod
   fun:objc_msgSend
   fun:CFDateCreate
   fun:_CFGetFileProperties
   fun:_CFBundleCreate
   fun:_CFBundleGetMainBundleAlreadyLocked
   fun:CFBundleGetMainBundle
   fun:cacheBundleInfo
}
{
   <insert_a_suppression_name_here>
   Memcheck:Leak
   fun:malloc_zone_calloc
   fun:attachMethodLists
   fun:realizeClass
   fun:_class_getNonMetaClass
   fun:_class_initialize
   fun:prepareForMethodLookup
   fun:lookUpMethod
   fun:objc_msgSend
   fun:CFDateCreate
   fun:_CFGetFileProperties
   fun:_CFBundleCreate
   fun:_CFBundleGetMainBundleAlreadyLocked
}
{
   <insert_a_suppression_name_here>
   Memcheck:Leak
   fun:calloc
   fun:_internal_class_createInstanceFromZone
   fun:__CFAllocateObject
   fun:+[__NSCFDate __new:]
   fun:CFDateCreate
   fun:_CFGetFileProperties
   fun:_CFBundleCreate
   fun:_CFBundleGetMainBundleAlreadyLocked
   fun:CFBundleGetMainBundle
   fun:cacheBundleInfo
   fun:_CFAppVersionCheckLessThan
   fun:__CFInitialize
}
{
   <insert_a_suppression_name_here>
   Memcheck:Leak
   fun:malloc_zone_calloc
   fun:attachMethodLists
   fun:realizeClass
   fun:prepareForMethodLookup
   fun:lookUpMethod
   fun:objc_msgSend
   fun:_CFBundleCreate
   fun:_CFBundleGetMainBundleAlreadyLocked
   fun:CFBundleGetMainBundle
   fun:cacheBundleInfo
   fun:_CFAppVersionCheckLessThan
   fun:__CFInitialize
}
{
   <insert_a_suppression_name_here>
   Memcheck:Leak
   fun:malloc_zone_malloc
   fun:buildProtocolList
   fun:realizeClass
   fun:prepareForMethodLookup
   fun:lookUpMethod
   fun:objc_msgSend
   fun:_CFBundleCreate
   fun:_CFBundleGetMainBundleAlreadyLocked
   fun:CFBundleGetMainBundle
   fun:cacheBundleInfo
   fun:_CFAppVersionCheckLessThan
   fun:__CFInitialize
}
{
   <insert_a_suppression_name_here>
   Memcheck:Leak
   fun:malloc_zone_calloc
   fun:attachMethodLists
   fun:realizeClass
   fun:_class_getNonMetaClass
   fun:_class_initialize
   fun:prepareForMethodLookup
   fun:lookUpMethod
   fun:objc_msgSend
   fun:_CFBundleCreate
   fun:_CFBundleGetMainBundleAlreadyLocked
   fun:CFBundleGetMainBundle
   fun:cacheBundleInfo
}
{
   <insert_a_suppression_name_here>
   Memcheck:Leak
   fun:malloc_zone_malloc
   fun:buildProtocolList
   fun:realizeClass
   fun:_class_getNonMetaClass
   fun:_class_initialize
   fun:prepareForMethodLookup
   fun:lookUpMethod
   fun:objc_msgSend
   fun:_CFBundleCreate
   fun:_CFBundleGetMainBundleAlreadyLocked
   fun:CFBundleGetMainBundle
   fun:cacheBundleInfo
}
{
   <insert_a_suppression_name_here>
   Memcheck:Leak
   fun:malloc_zone_calloc
   fun:attachMethodLists
   fun:realizeClass
   fun:prepareForMethodLookup
   fun:lookUpMethod
   fun:objc_msgSend
   fun:+[__CFHashTable alloc]
   fun:_CFBundleCreate
   fun:_CFBundleGetMainBundleAlreadyLocked
   fun:CFBundleGetMainBundle
   fun:cacheBundleInfo
   fun:_CFAppVersionCheckLessThan
}
{
   <insert_a_suppression_name_here>
   Memcheck:Leak
   fun:malloc_zone_calloc
   fun:attachMethodLists
   fun:realizeClass
   fun:_class_getNonMetaClass
   fun:_class_initialize
   fun:prepareForMethodLookup
   fun:lookUpMethod
   fun:objc_msgSend
   fun:+[__CFHashTable alloc]
   fun:_CFBundleCreate
   fun:_CFBundleGetMainBundleAlreadyLocked
   fun:CFBundleGetMainBundle
}
{
   <insert_a_suppression_name_here>
   Memcheck:Leak
   fun:malloc_zone_calloc
   fun:attachMethodLists
   fun:realizeClass
   fun:realizeClass
   fun:prepareForMethodLookup
   fun:lookUpMethod
   fun:objc_msgSend
   fun:-[__CFx606449CHT initWithOptions:capacity:]
   fun:_CFBundleCreate
   fun:_CFBundleGetMainBundleAlreadyLocked
   fun:CFBundleGetMainBundle
   fun:cacheBundleInfo
}
{
   <insert_a_suppression_name_here>
   Memcheck:Leak
   fun:malloc_zone_malloc
   fun:buildProtocolList
   fun:realizeClass
   fun:realizeClass
   fun:prepareForMethodLookup
   fun:lookUpMethod
   fun:objc_msgSend
   fun:-[__CFx606449CHT initWithOptions:capacity:]
   fun:_CFBundleCreate
   fun:_CFBundleGetMainBundleAlreadyLocked
   fun:CFBundleGetMainBundle
   fun:cacheBundleInfo
}
{
   <insert_a_suppression_name_here>
   Memcheck:Leak
   fun:malloc_zone_calloc
   fun:attachMethodLists
   fun:realizeClass
   fun:prepareForMethodLookup
   fun:lookUpMethod
   fun:objc_msgSend
   fun:-[__CFx606449CHT initWithOptions:capacity:]
   fun:_CFBundleCreate
   fun:_CFBundleGetMainBundleAlreadyLocked
   fun:CFBundleGetMainBundle
   fun:cacheBundleInfo
   fun:_CFAppVersionCheckLessThan
}
{
   <insert_a_suppression_name_here>
   Memcheck:Leak
   fun:malloc_zone_calloc
   fun:attachMethodLists
   fun:realizeClass
   fun:realizeClass
   fun:_class_getNonMetaClass
   fun:_class_initialize
   fun:prepareForMethodLookup
   fun:lookUpMethod
   fun:objc_msgSend
   fun:-[__CFx606449CHT initWithOptions:capacity:]
   fun:_CFBundleCreate
   fun:_CFBundleGetMainBundleAlreadyLocked
}
{
   <insert_a_suppression_name_here>
   Memcheck:Leak
   fun:malloc_zone_malloc
   fun:buildProtocolList
   fun:realizeClass
   fun:realizeClass
   fun:_class_getNonMetaClass
   fun:_class_initialize
   fun:prepareForMethodLookup
   fun:lookUpMethod
   fun:objc_msgSend
   fun:-[__CFx606449CHT initWithOptions:capacity:]
   fun:_CFBundleCreate
   fun:_CFBundleGetMainBundleAlreadyLocked
}
{
   <insert_a_suppression_name_here>
   Memcheck:Leak
   fun:malloc_zone_calloc
   fun:attachMethodLists
   fun:realizeClass
   fun:_class_getNonMetaClass
   fun:_class_initialize
   fun:prepareForMethodLookup
   fun:lookUpMethod
   fun:objc_msgSend
   fun:-[__CFx606449CHT initWithOptions:capacity:]
   fun:_CFBundleCreate
   fun:_CFBundleGetMainBundleAlreadyLocked
   fun:CFBundleGetMainBundle
}
{
   <insert_a_suppression_name_here>
   Memcheck:Leak
   fun:malloc_zone_calloc
   fun:NXHashInsert
   fun:addRealizedClass
   fun:realizeClass
   fun:_class_getNonMetaClass
   fun:_class_initialize
   fun:prepareForMethodLookup
   fun:lookUpMethod
   fun:objc_msgSend
   fun:-[__CFx606449CHT initWithOptions:capacity:]
   fun:_CFBundleCreate
   fun:_CFBundleGetMainBundleAlreadyLocked
}
{
   <insert_a_suppression_name_here>
   Memcheck:Leak
   fun:malloc_zone_calloc
   fun:attachMethodLists
   fun:realizeClass
   fun:prepareForMethodLookup
   fun:lookUpMethod
   fun:objc_msgSend
   fun:_CFBundleCreate
   fun:_CFBundleGetMainBundleAlreadyLocked
   fun:CFBundleGetMainBundle
   fun:cacheBundleInfo
   fun:_CFAppVersionCheckLessThan
   fun:__CFInitialize
}
{
   <insert_a_suppression_name_here>
   Memcheck:Leak
   fun:malloc_zone_malloc
   fun:buildProtocolList
   fun:realizeClass
   fun:prepareForMethodLookup
   fun:lookUpMethod
   fun:objc_msgSend
   fun:_CFBundleCreate
   fun:_CFBundleGetMainBundleAlreadyLocked
   fun:CFBundleGetMainBundle
   fun:cacheBundleInfo
   fun:_CFAppVersionCheckLessThan
   fun:__CFInitialize
}
{
   <insert_a_suppression_name_here>
   Memcheck:Leak
   fun:malloc_zone_calloc
   fun:attachMethodLists
   fun:realizeClass
   fun:_class_getNonMetaClass
   fun:_class_initialize
   fun:prepareForMethodLookup
   fun:lookUpMethod
   fun:objc_msgSend
   fun:_CFBundleCreate
   fun:_CFBundleGetMainBundleAlreadyLocked
   fun:CFBundleGetMainBundle
   fun:cacheBundleInfo
}
{
   <insert_a_suppression_name_here>
   Memcheck:Leak
   fun:malloc_zone_malloc
   fun:buildProtocolList
   fun:realizeClass
   fun:_class_getNonMetaClass
   fun:_class_initialize
   fun:prepareForMethodLookup
   fun:lookUpMethod
   fun:objc_msgSend
   fun:_CFBundleCreate
   fun:_CFBundleGetMainBundleAlreadyLocked
   fun:CFBundleGetMainBundle
   fun:cacheBundleInfo
}
{
   <insert_a_suppression_name_here>
   Memcheck:Leak
   fun:malloc_zone_calloc
   fun:attachMethodLists
   fun:realizeClass
   fun:prepareForMethodLookup
   fun:lookUpMethod
   fun:objc_msgSend
   fun:+[__CFMapTable alloc]
   fun:_CFBundleCreate
   fun:_CFBundleGetMainBundleAlreadyLocked
   fun:CFBundleGetMainBundle
   fun:cacheBundleInfo
   fun:_CFAppVersionCheckLessThan
}
{
   <insert_a_suppression_name_here>
   Memcheck:Leak
   fun:malloc_zone_calloc
   fun:attachMethodLists
   fun:realizeClass
   fun:_class_getNonMetaClass
   fun:_class_initialize
   fun:prepareForMethodLookup
   fun:lookUpMethod
   fun:objc_msgSend
   fun:+[__CFMapTable alloc]
   fun:_CFBundleCreate
   fun:_CFBundleGetMainBundleAlreadyLocked
   fun:CFBundleGetMainBundle
}
{
   <insert_a_suppression_name_here>
   Memcheck:Leak
   fun:malloc_zone_calloc
   fun:attachMethodLists
   fun:realizeClass
   fun:realizeClass
   fun:look_up_class
   fun:_NSToDoAtProcessStart
   fun:_NSInitializePlatform
   fun:call_load_methods
   fun:load_images
   fun:_ZN4dyldL12notifySingleE17dyld_image_statesPK11ImageLoader
   fun:_ZN11ImageLoader23recursiveInitializationERKNS_11LinkContextEj
   fun:_ZN11ImageLoader23recursiveInitializationERKNS_11LinkContextEj
}
{
   <insert_a_suppression_name_here>
   Memcheck:Leak
   fun:malloc_zone_calloc
   fun:attachMethodLists
   fun:realizeClass
   fun:look_up_class
   fun:_NSToDoAtProcessStart
   fun:_NSInitializePlatform
   fun:call_load_methods
   fun:load_images
   fun:_ZN4dyldL12notifySingleE17dyld_image_statesPK11ImageLoader
   fun:_ZN11ImageLoader23recursiveInitializationERKNS_11LinkContextEj
   fun:_ZN11ImageLoader23recursiveInitializationERKNS_11LinkContextEj
   fun:_ZN11ImageLoader23recursiveInitializationERKNS_11LinkContextEj
}
{
   <insert_a_suppression_name_here>
   Memcheck:Leak
   fun:malloc_zone_calloc
   fun:attachMethodLists
   fun:realizeClass
   fun:realizeClass
   fun:look_up_class
   fun:_NSToDoAtProcessStart
   fun:_NSInitializePlatform
   fun:call_load_methods
   fun:load_images
   fun:_ZN4dyldL12notifySingleE17dyld_image_statesPK11ImageLoader
   fun:_ZN11ImageLoader23recursiveInitializationERKNS_11LinkContextEj
   fun:_ZN11ImageLoader23recursiveInitializationERKNS_11LinkContextEj
}
{
   <insert_a_suppression_name_here>
   Memcheck:Leak
   fun:malloc_zone_calloc
   fun:attachMethodLists
   fun:realizeClass
   fun:look_up_class
   fun:_NSToDoAtProcessStart
   fun:_NSInitializePlatform
   fun:call_load_methods
   fun:load_images
   fun:_ZN4dyldL12notifySingleE17dyld_image_statesPK11ImageLoader
   fun:_ZN11ImageLoader23recursiveInitializationERKNS_11LinkContextEj
   fun:_ZN11ImageLoader23recursiveInitializationERKNS_11LinkContextEj
   fun:_ZN11ImageLoader23recursiveInitializationERKNS_11LinkContextEj
}
{
   <insert_a_suppression_name_here>
   Memcheck:Leak
   fun:malloc_zone_calloc
   fun:attachMethodLists
   fun:realizeClass
   fun:realizeClass
   fun:realizeClass
   fun:look_up_class
   fun:_NSToDoAtProcessStart
   fun:_NSInitializePlatform
   fun:call_load_methods
   fun:load_images
   fun:_ZN4dyldL12notifySingleE17dyld_image_statesPK11ImageLoader
   fun:_ZN11ImageLoader23recursiveInitializationERKNS_11LinkContextEj
}
{
   <insert_a_suppression_name_here>
   Memcheck:Leak
   fun:malloc_zone_calloc
   fun:attachMethodLists
   fun:realizeClass
   fun:realizeClass
   fun:look_up_class
   fun:_NSToDoAtProcessStart
   fun:_NSInitializePlatform
   fun:call_load_methods
   fun:load_images
   fun:_ZN4dyldL12notifySingleE17dyld_image_statesPK11ImageLoader
   fun:_ZN11ImageLoader23recursiveInitializationERKNS_11LinkContextEj
   fun:_ZN11ImageLoader23recursiveInitializationERKNS_11LinkContextEj
}
{
   <insert_a_suppression_name_here>
   Memcheck:Leak
   fun:malloc_zone_calloc
   fun:attachMethodLists
   fun:realizeClass
   fun:realizeClass
   fun:look_up_class
   fun:_NSToDoAtProcessStart
   fun:_NSInitializePlatform
   fun:call_load_methods
   fun:load_images
   fun:_ZN4dyldL12notifySingleE17dyld_image_statesPK11ImageLoader
   fun:_ZN11ImageLoader23recursiveInitializationERKNS_11LinkContextEj
   fun:_ZN11ImageLoader23recursiveInitializationERKNS_11LinkContextEj
}
{
   <insert_a_suppression_name_here>
   Memcheck:Leak
   fun:malloc_zone_calloc
   fun:attachMethodLists
   fun:realizeClass
   fun:look_up_class
   fun:_NSToDoAtProcessStart
   fun:_NSInitializePlatform
   fun:call_load_methods
   fun:load_images
   fun:_ZN4dyldL12notifySingleE17dyld_image_statesPK11ImageLoader
   fun:_ZN11ImageLoader23recursiveInitializationERKNS_11LinkContextEj
   fun:_ZN11ImageLoader23recursiveInitializationERKNS_11LinkContextEj
   fun:_ZN11ImageLoader23recursiveInitializationERKNS_11LinkContextEj
}
{
   <insert_a_suppression_name_here>
   Memcheck:Leak
   fun:malloc_zone_calloc
   fun:attachMethodLists
   fun:realizeClass
   fun:realizeClass
   fun:look_up_class
   fun:_NSToDoAtProcessStart
   fun:_NSInitializePlatform
   fun:call_load_methods
   fun:load_images
   fun:_ZN4dyldL12notifySingleE17dyld_image_statesPK11ImageLoader
   fun:_ZN11ImageLoader23recursiveInitializationERKNS_11LinkContextEj
   fun:_ZN11ImageLoader23recursiveInitializationERKNS_11LinkContextEj
}
{
   <insert_a_suppression_name_here>
   Memcheck:Leak
   fun:malloc_zone_calloc
   fun:attachMethodLists
   fun:realizeClass
   fun:look_up_class
   fun:_NSToDoAtProcessStart
   fun:_NSInitializePlatform
   fun:call_load_methods
   fun:load_images
   fun:_ZN4dyldL12notifySingleE17dyld_image_statesPK11ImageLoader
   fun:_ZN11ImageLoader23recursiveInitializationERKNS_11LinkContextEj
   fun:_ZN11ImageLoader23recursiveInitializationERKNS_11LinkContextEj
   fun:_ZN11ImageLoader23recursiveInitializationERKNS_11LinkContextEj
}
{
   <insert_a_suppression_name_here>
   Memcheck:Leak
   fun:malloc_zone_calloc
   fun:attachMethodLists
   fun:realizeClass
   fun:realizeClass
   fun:look_up_class
   fun:_NSToDoAtProcessStart
   fun:_NSInitializePlatform
   fun:call_load_methods
   fun:load_images
   fun:_ZN4dyldL12notifySingleE17dyld_image_statesPK11ImageLoader
   fun:_ZN11ImageLoader23recursiveInitializationERKNS_11LinkContextEj
   fun:_ZN11ImageLoader23recursiveInitializationERKNS_11LinkContextEj
}
{
   <insert_a_suppression_name_here>
   Memcheck:Leak
   fun:malloc_zone_malloc
   fun:buildProtocolList
   fun:realizeClass
   fun:realizeClass
   fun:look_up_class
   fun:_NSToDoAtProcessStart
   fun:_NSInitializePlatform
   fun:call_load_methods
   fun:load_images
   fun:_ZN4dyldL12notifySingleE17dyld_image_statesPK11ImageLoader
   fun:_ZN11ImageLoader23recursiveInitializationERKNS_11LinkContextEj
   fun:_ZN11ImageLoader23recursiveInitializationERKNS_11LinkContextEj
}
{
   <insert_a_suppression_name_here>
   Memcheck:Leak
   fun:malloc_zone_malloc
   fun:buildProtocolList
   fun:realizeClass
   fun:look_up_class
   fun:_NSToDoAtProcessStart
   fun:_NSInitializePlatform
   fun:call_load_methods
   fun:load_images
   fun:_ZN4dyldL12notifySingleE17dyld_image_statesPK11ImageLoader
   fun:_ZN11ImageLoader23recursiveInitializationERKNS_11LinkContextEj
   fun:_ZN11ImageLoader23recursiveInitializationERKNS_11LinkContextEj
   fun:_ZN11ImageLoader23recursiveInitializationERKNS_11LinkContextEj
}
{
   <insert_a_suppression_name_here>
   Memcheck:Leak
   fun:malloc_zone_calloc
   fun:attachMethodLists
   fun:realizeClass
   fun:realizeClass
   fun:look_up_class
   fun:_NSToDoAtProcessStart
   fun:_NSInitializePlatform
   fun:call_load_methods
   fun:load_images
   fun:_ZN4dyldL12notifySingleE17dyld_image_statesPK11ImageLoader
   fun:_ZN11ImageLoader23recursiveInitializationERKNS_11LinkContextEj
   fun:_ZN11ImageLoader23recursiveInitializationERKNS_11LinkContextEj
}
{
   <insert_a_suppression_name_here>
   Memcheck:Leak
   fun:malloc_zone_calloc
   fun:attachMethodLists
   fun:realizeClass
   fun:realizeClass
   fun:look_up_class
   fun:_NSToDoAtProcessStart
   fun:_NSInitializePlatform
   fun:call_load_methods
   fun:load_images
   fun:_ZN4dyldL12notifySingleE17dyld_image_statesPK11ImageLoader
   fun:_ZN11ImageLoader23recursiveInitializationERKNS_11LinkContextEj
   fun:_ZN11ImageLoader23recursiveInitializationERKNS_11LinkContextEj
}
{
   <insert_a_suppression_name_here>
   Memcheck:Leak
   fun:malloc_zone_malloc
   fun:buildProtocolList
   fun:realizeClass
   fun:realizeClass
   fun:look_up_class
   fun:_NSToDoAtProcessStart
   fun:_NSInitializePlatform
   fun:call_load_methods
   fun:load_images
   fun:_ZN4dyldL12notifySingleE17dyld_image_statesPK11ImageLoader
   fun:_ZN11ImageLoader23recursiveInitializationERKNS_11LinkContextEj
   fun:_ZN11ImageLoader23recursiveInitializationERKNS_11LinkContextEj
}
{
   <insert_a_suppression_name_here>
   Memcheck:Leak
   fun:malloc_zone_malloc
   fun:buildProtocolList
   fun:realizeClass
   fun:look_up_class
   fun:_NSToDoAtProcessStart
   fun:_NSInitializePlatform
   fun:call_load_methods
   fun:load_images
   fun:_ZN4dyldL12notifySingleE17dyld_image_statesPK11ImageLoader
   fun:_ZN11ImageLoader23recursiveInitializationERKNS_11LinkContextEj
   fun:_ZN11ImageLoader23recursiveInitializationERKNS_11LinkContextEj
   fun:_ZN11ImageLoader23recursiveInitializationERKNS_11LinkContextEj
}
{
   <insert_a_suppression_name_here>
   Memcheck:Leak
   fun:malloc_zone_calloc
   fun:NXHashInsert
   fun:addRealizedClass
   fun:realizeClass
   fun:look_up_class
   fun:_NSToDoAtProcessStart
   fun:_NSInitializePlatform
   fun:call_load_methods
   fun:load_images
   fun:_ZN4dyldL12notifySingleE17dyld_image_statesPK11ImageLoader
   fun:_ZN11ImageLoader23recursiveInitializationERKNS_11LinkContextEj
   fun:_ZN11ImageLoader23recursiveInitializationERKNS_11LinkContextEj
}
{
   <insert_a_suppression_name_here>
   Memcheck:Leak
   fun:malloc_zone_calloc
   fun:attachMethodLists
   fun:realizeClass
   fun:realizeClass
   fun:look_up_class
   fun:_NSToDoAtProcessStart
   fun:_NSInitializePlatform
   fun:call_load_methods
   fun:load_images
   fun:_ZN4dyldL12notifySingleE17dyld_image_statesPK11ImageLoader
   fun:_ZN11ImageLoader23recursiveInitializationERKNS_11LinkContextEj
   fun:_ZN11ImageLoader23recursiveInitializationERKNS_11LinkContextEj
}
{
   <insert_a_suppression_name_here>
   Memcheck:Leak
   fun:malloc_zone_calloc
   fun:attachMethodLists
   fun:realizeClass
   fun:look_up_class
   fun:_NSToDoAtProcessStart
   fun:_NSInitializePlatform
   fun:call_load_methods
   fun:load_images
   fun:_ZN4dyldL12notifySingleE17dyld_image_statesPK11ImageLoader
   fun:_ZN11ImageLoader23recursiveInitializationERKNS_11LinkContextEj
   fun:_ZN11ImageLoader23recursiveInitializationERKNS_11LinkContextEj
   fun:_ZN11ImageLoader23recursiveInitializationERKNS_11LinkContextEj
}
{
   <insert_a_suppression_name_here>
   Memcheck:Leak
   fun:malloc_zone_calloc
   fun:attachMethodLists
   fun:realizeClass
   fun:realizeClass
   fun:realizeClass
   fun:look_up_class
   fun:_NSToDoAtProcessStart
   fun:_NSInitializePlatform
   fun:call_load_methods
   fun:load_images
   fun:_ZN4dyldL12notifySingleE17dyld_image_statesPK11ImageLoader
   fun:_ZN11ImageLoader23recursiveInitializationERKNS_11LinkContextEj
}
{
   <insert_a_suppression_name_here>
   Memcheck:Leak
   fun:malloc_zone_malloc
   fun:buildProtocolList
   fun:realizeClass
   fun:realizeClass
   fun:realizeClass
   fun:look_up_class
   fun:_NSToDoAtProcessStart
   fun:_NSInitializePlatform
   fun:call_load_methods
   fun:load_images
   fun:_ZN4dyldL12notifySingleE17dyld_image_statesPK11ImageLoader
   fun:_ZN11ImageLoader23recursiveInitializationERKNS_11LinkContextEj
}
{
   <insert_a_suppression_name_here>
   Memcheck:Leak
   fun:malloc_zone_calloc
   fun:attachMethodLists
   fun:realizeClass
   fun:realizeClass
   fun:look_up_class
   fun:_NSToDoAtProcessStart
   fun:_NSInitializePlatform
   fun:call_load_methods
   fun:load_images
   fun:_ZN4dyldL12notifySingleE17dyld_image_statesPK11ImageLoader
   fun:_ZN11ImageLoader23recursiveInitializationERKNS_11LinkContextEj
   fun:_ZN11ImageLoader23recursiveInitializationERKNS_11LinkContextEj
}
{
   <insert_a_suppression_name_here>
   Memcheck:Leak
   fun:malloc_zone_malloc
   fun:buildProtocolList
   fun:realizeClass
   fun:realizeClass
   fun:look_up_class
   fun:_NSToDoAtProcessStart
   fun:_NSInitializePlatform
   fun:call_load_methods
   fun:load_images
   fun:_ZN4dyldL12notifySingleE17dyld_image_statesPK11ImageLoader
   fun:_ZN11ImageLoader23recursiveInitializationERKNS_11LinkContextEj
   fun:_ZN11ImageLoader23recursiveInitializationERKNS_11LinkContextEj
}
{
   <insert_a_suppression_name_here>
   Memcheck:Leak
   fun:malloc_zone_calloc
   fun:attachMethodLists
   fun:realizeClass
   fun:realizeClass
   fun:look_up_class
   fun:_NSToDoAtProcessStart
   fun:_NSInitializePlatform
   fun:call_load_methods
   fun:load_images
   fun:_ZN4dyldL12notifySingleE17dyld_image_statesPK11ImageLoader
   fun:_ZN11ImageLoader23recursiveInitializationERKNS_11LinkContextEj
   fun:_ZN11ImageLoader23recursiveInitializationERKNS_11LinkContextEj
}
{
   <insert_a_suppression_name_here>
   Memcheck:Leak
   fun:malloc_zone_calloc
   fun:attachMethodLists
   fun:realizeClass
   fun:realizeClass
   fun:look_up_class
   fun:_NSToDoAtProcessStart
   fun:_NSInitializePlatform
   fun:call_load_methods
   fun:load_images
   fun:_ZN4dyldL12notifySingleE17dyld_image_statesPK11ImageLoader
   fun:_ZN11ImageLoader23recursiveInitializationERKNS_11LinkContextEj
   fun:_ZN11ImageLoader23recursiveInitializationERKNS_11LinkContextEj
}
{
   <insert_a_suppression_name_here>
   Memcheck:Leak
   fun:malloc_zone_malloc
   fun:buildProtocolList
   fun:realizeClass
   fun:realizeClass
   fun:look_up_class
   fun:_NSToDoAtProcessStart
   fun:_NSInitializePlatform
   fun:call_load_methods
   fun:load_images
   fun:_ZN4dyldL12notifySingleE17dyld_image_statesPK11ImageLoader
   fun:_ZN11ImageLoader23recursiveInitializationERKNS_11LinkContextEj
   fun:_ZN11ImageLoader23recursiveInitializationERKNS_11LinkContextEj
}
{
   <insert_a_suppression_name_here>
   Memcheck:Leak
   fun:malloc_zone_malloc
   fun:buildProtocolList
   fun:realizeClass
   fun:look_up_class
   fun:_NSToDoAtProcessStart
   fun:_NSInitializePlatform
   fun:call_load_methods
   fun:load_images
   fun:_ZN4dyldL12notifySingleE17dyld_image_statesPK11ImageLoader
   fun:_ZN11ImageLoader23recursiveInitializationERKNS_11LinkContextEj
   fun:_ZN11ImageLoader23recursiveInitializationERKNS_11LinkContextEj
   fun:_ZN11ImageLoader23recursiveInitializationERKNS_11LinkContextEj
}
{
   <insert_a_suppression_name_here>
   Memcheck:Leak
   fun:malloc_zone_calloc
   fun:attachMethodLists
   fun:realizeClass
   fun:prepareForMethodLookup
   fun:lookUpMethod
   fun:objc_msgSend
   fun:_NSToDoAtProcessStart
   fun:_NSInitializePlatform
   fun:call_load_methods
   fun:load_images
   fun:_ZN4dyldL12notifySingleE17dyld_image_statesPK11ImageLoader
   fun:_ZN11ImageLoader23recursiveInitializationERKNS_11LinkContextEj
}
{
   <insert_a_suppression_name_here>
   Memcheck:Leak
   fun:malloc_zone_malloc
   fun:buildProtocolList
   fun:realizeClass
   fun:prepareForMethodLookup
   fun:lookUpMethod
   fun:objc_msgSend
   fun:_NSToDoAtProcessStart
   fun:_NSInitializePlatform
   fun:call_load_methods
   fun:load_images
   fun:_ZN4dyldL12notifySingleE17dyld_image_statesPK11ImageLoader
   fun:_ZN11ImageLoader23recursiveInitializationERKNS_11LinkContextEj
}
{
   <insert_a_suppression_name_here>
   Memcheck:Leak
   fun:malloc_zone_calloc
   fun:attachMethodLists
   fun:realizeClass
   fun:_class_getNonMetaClass
   fun:_class_initialize
   fun:prepareForMethodLookup
   fun:lookUpMethod
   fun:objc_msgSend
   fun:_NSToDoAtProcessStart
   fun:_NSInitializePlatform
   fun:call_load_methods
   fun:load_images
}
{
   <insert_a_suppression_name_here>
   Memcheck:Leak
   fun:malloc_zone_malloc
   fun:buildProtocolList
   fun:realizeClass
   fun:_class_getNonMetaClass
   fun:_class_initialize
   fun:prepareForMethodLookup
   fun:lookUpMethod
   fun:objc_msgSend
   fun:_NSToDoAtProcessStart
   fun:_NSInitializePlatform
   fun:call_load_methods
   fun:load_images
}
{
   <insert_a_suppression_name_here>
   Memcheck:Leak
   fun:malloc_zone_calloc
   fun:attachMethodLists
   fun:realizeClass
   fun:prepareForMethodLookup
   fun:lookUpMethod
   fun:objc_msgSend
   fun:_NSToDoAtProcessStart
   fun:_NSInitializePlatform
   fun:call_load_methods
   fun:load_images
   fun:_ZN4dyldL12notifySingleE17dyld_image_statesPK11ImageLoader
   fun:_ZN11ImageLoader23recursiveInitializationERKNS_11LinkContextEj
}
{
   <insert_a_suppression_name_here>
   Memcheck:Leak
   fun:malloc_zone_malloc
   fun:buildProtocolList
   fun:realizeClass
   fun:prepareForMethodLookup
   fun:lookUpMethod
   fun:objc_msgSend
   fun:_NSToDoAtProcessStart
   fun:_NSInitializePlatform
   fun:call_load_methods
   fun:load_images
   fun:_ZN4dyldL12notifySingleE17dyld_image_statesPK11ImageLoader
   fun:_ZN11ImageLoader23recursiveInitializationERKNS_11LinkContextEj
}
{
   <insert_a_suppression_name_here>
   Memcheck:Leak
   fun:malloc_zone_calloc
   fun:attachMethodLists
   fun:realizeClass
   fun:_class_getNonMetaClass
   fun:_class_initialize
   fun:prepareForMethodLookup
   fun:lookUpMethod
   fun:objc_msgSend
   fun:_NSToDoAtProcessStart
   fun:_NSInitializePlatform
   fun:call_load_methods
   fun:load_images
}
{
   <insert_a_suppression_name_here>
   Memcheck:Leak
   fun:malloc_zone_malloc
   fun:buildProtocolList
   fun:realizeClass
   fun:_class_getNonMetaClass
   fun:_class_initialize
   fun:prepareForMethodLookup
   fun:lookUpMethod
   fun:objc_msgSend
   fun:_NSToDoAtProcessStart
   fun:_NSInitializePlatform
   fun:call_load_methods
   fun:load_images
}
{
   <insert_a_suppression_name_here>
   Memcheck:Leak
   fun:malloc_zone_calloc
   fun:attachMethodLists
   fun:realizeClass
   fun:prepareForMethodLookup
   fun:lookUpMethod
   fun:objc_msgSend
   fun:call_load_methods
   fun:load_images
   fun:_ZN4dyldL12notifySingleE17dyld_image_statesPK11ImageLoader
   fun:_ZN11ImageLoader23recursiveInitializationERKNS_11LinkContextEj
   fun:_ZN11ImageLoader23recursiveInitializationERKNS_11LinkContextEj
   fun:_ZN11ImageLoader23recursiveInitializationERKNS_11LinkContextEj
}
{
   <insert_a_suppression_name_here>
   Memcheck:Leak
   fun:malloc_zone_calloc
   fun:attachMethodLists
   fun:realizeClass
   fun:_class_getNonMetaClass
   fun:_class_initialize
   fun:prepareForMethodLookup
   fun:lookUpMethod
   fun:objc_msgSend
   fun:call_load_methods
   fun:load_images
   fun:_ZN4dyldL12notifySingleE17dyld_image_statesPK11ImageLoader
   fun:_ZN11ImageLoader23recursiveInitializationERKNS_11LinkContextEj
}
{
   <insert_a_suppression_name_here>
   Memcheck:Leak
   fun:malloc_zone_calloc
   fun:attachMethodLists
   fun:realizeClass
   fun:prepareForMethodLookup
   fun:lookUpMethod
   fun:objc_msgSend
   fun:-[NSThread init]
   fun:_NSThreadGet0
   fun:call_load_methods
   fun:load_images
   fun:_ZN4dyldL12notifySingleE17dyld_image_statesPK11ImageLoader
   fun:_ZN11ImageLoader23recursiveInitializationERKNS_11LinkContextEj
}
{
   <insert_a_suppression_name_here>
   Memcheck:Leak
   fun:malloc_zone_calloc
   fun:attachMethodLists
   fun:realizeClass
   fun:_class_getNonMetaClass
   fun:_class_initialize
   fun:prepareForMethodLookup
   fun:lookUpMethod
   fun:objc_msgSend
   fun:-[NSThread init]
   fun:_NSThreadGet0
   fun:call_load_methods
   fun:load_images
}
{
   <insert_a_suppression_name_here>
   Memcheck:Leak
   fun:malloc_zone_calloc
   fun:attachMethodLists
   fun:realizeClass
   fun:prepareForMethodLookup
   fun:lookUpMethod
   fun:objc_msgSend
   fun:+[NSDictionary allocWithZone:]
   fun:+[NSObject(NSObject) new]
   fun:-[NSThread init]
   fun:_NSThreadGet0
   fun:call_load_methods
   fun:load_images
}
{
   <insert_a_suppression_name_here>
   Memcheck:Leak
   fun:malloc_zone_calloc
   fun:attachMethodLists
   fun:realizeClass
   fun:_class_getNonMetaClass
   fun:_class_initialize
   fun:prepareForMethodLookup
   fun:lookUpMethod
   fun:objc_msgSend
   fun:+[NSDictionary allocWithZone:]
   fun:+[NSObject(NSObject) new]
   fun:-[NSThread init]
   fun:_NSThreadGet0
}
{
   <insert_a_suppression_name_here>
   Memcheck:Leak
   fun:malloc_zone_calloc
   fun:NXHashInsert
   fun:addRealizedClass
   fun:realizeClass
   fun:_class_getNonMetaClass
   fun:_class_initialize
   fun:prepareForMethodLookup
   fun:lookUpMethod
   fun:objc_msgSend
   fun:+[NSDictionary allocWithZone:]
   fun:+[NSObject(NSObject) new]
   fun:-[NSThread init]
}
{
   <insert_a_suppression_name_here>
   Memcheck:Leak
   fun:calloc
   fun:_internal_class_createInstanceFromZone
   fun:+[NSObject(NSObject) allocWithZone:]
   fun:+[NSDictionary allocWithZone:]
   fun:+[__NSPlaceholderDictionary initialize]
   fun:_class_initialize
   fun:prepareForMethodLookup
   fun:lookUpMethod
   fun:objc_msgSend
   fun:+[NSDictionary allocWithZone:]
   fun:+[NSObject(NSObject) new]
   fun:-[NSThread init]
}
{
   <insert_a_suppression_name_here>
   Memcheck:Leak
   fun:calloc
   fun:_internal_class_createInstanceFromZone
   fun:+[NSObject(NSObject) allocWithZone:]
   fun:+[NSDictionary allocWithZone:]
   fun:+[__NSPlaceholderDictionary initialize]
   fun:_class_initialize
   fun:prepareForMethodLookup
   fun:lookUpMethod
   fun:objc_msgSend
   fun:+[NSDictionary allocWithZone:]
   fun:+[NSObject(NSObject) new]
   fun:-[NSThread init]
}
{
   <insert_a_suppression_name_here>
   Memcheck:Leak
   fun:malloc_zone_calloc
   fun:attachMethodLists
   fun:realizeClass
   fun:realizeClass
   fun:_objc_fixupMessageRef
   fun:objc_msgSend_fixup
   fun:+[NSBinder load]
   fun:call_load_methods
   fun:load_images
   fun:_ZN4dyldL12notifySingleE17dyld_image_statesPK11ImageLoader
   fun:_ZN11ImageLoader23recursiveInitializationERKNS_11LinkContextEj
   fun:_ZN11ImageLoader23recursiveInitializationERKNS_11LinkContextEj
}
{
   <insert_a_suppression_name_here>
   Memcheck:Leak
   fun:malloc_zone_malloc
   fun:buildProtocolList
   fun:realizeClass
   fun:realizeClass
   fun:_objc_fixupMessageRef
   fun:objc_msgSend_fixup
   fun:+[NSBinder load]
   fun:call_load_methods
   fun:load_images
   fun:_ZN4dyldL12notifySingleE17dyld_image_statesPK11ImageLoader
   fun:_ZN11ImageLoader23recursiveInitializationERKNS_11LinkContextEj
   fun:_ZN11ImageLoader23recursiveInitializationERKNS_11LinkContextEj
}
{
   <insert_a_suppression_name_here>
   Memcheck:Leak
   fun:malloc_zone_calloc
   fun:attachMethodLists
   fun:realizeClass
   fun:_objc_fixupMessageRef
   fun:objc_msgSend_fixup
   fun:+[NSBinder load]
   fun:call_load_methods
   fun:load_images
   fun:_ZN4dyldL12notifySingleE17dyld_image_statesPK11ImageLoader
   fun:_ZN11ImageLoader23recursiveInitializationERKNS_11LinkContextEj
   fun:_ZN11ImageLoader23recursiveInitializationERKNS_11LinkContextEj
   fun:_ZN11ImageLoader23recursiveInitializationERKNS_11LinkContextEj
}
{
   <insert_a_suppression_name_here>
   Memcheck:Leak
   fun:malloc_zone_malloc
   fun:buildProtocolList
   fun:realizeClass
   fun:_objc_fixupMessageRef
   fun:objc_msgSend_fixup
   fun:+[NSBinder load]
   fun:call_load_methods
   fun:load_images
   fun:_ZN4dyldL12notifySingleE17dyld_image_statesPK11ImageLoader
   fun:_ZN11ImageLoader23recursiveInitializationERKNS_11LinkContextEj
   fun:_ZN11ImageLoader23recursiveInitializationERKNS_11LinkContextEj
   fun:_ZN11ImageLoader23recursiveInitializationERKNS_11LinkContextEj
}
{
   <insert_a_suppression_name_here>
   Memcheck:Leak
   fun:malloc
   fun:registerForNewConnectionNotification
   fun:_CGIInitialize
   fun:cg_setup
   fun:pthread_once
   fun:CGSGetDisplayList
   fun:initDisplays
   fun:CGDisplayRegisterReconfigurationCallback
   fun:_Z7qt_initP19QApplicationPrivatei
   fun:_ZN19QApplicationPrivate9constructEv
   fun:_ZN12QApplicationC2ERiPPci
   fun:main
}
{
   <insert_a_suppression_name_here>
   Memcheck:Leak
   fun:malloc_zone_calloc
   fun:attachMethodLists
   fun:realizeClass
   fun:realizeClass
   fun:prepareForMethodLookup
   fun:lookUpMethod
   fun:objc_msgSend
   fun:__CFXPreferencesGetSnapshotSearchList
   fun:__CFXPreferencesCopyCurrentApplicationState
   fun:CFLocaleCopyCurrent
   fun:_ZNK13QSystemLocale14fallbackLocaleEv
   fun:_ZN14QLocalePrivate19updateSystemPrivateEv
}
{
   <insert_a_suppression_name_here>
   Memcheck:Leak
   fun:malloc_zone_calloc
   fun:attachMethodLists
   fun:realizeClass
   fun:prepareForMethodLookup
   fun:lookUpMethod
   fun:objc_msgSend
   fun:__CFXPreferencesGetSnapshotSearchList
   fun:__CFXPreferencesCopyCurrentApplicationState
   fun:CFLocaleCopyCurrent
   fun:_ZNK13QSystemLocale14fallbackLocaleEv
   fun:_ZN14QLocalePrivate19updateSystemPrivateEv
   fun:_ZL13systemPrivatev
}
{
   <insert_a_suppression_name_here>
   Memcheck:Leak
   fun:malloc_zone_calloc
   fun:attachMethodLists
   fun:realizeClass
   fun:realizeClass
   fun:_class_getNonMetaClass
   fun:_class_initialize
   fun:prepareForMethodLookup
   fun:lookUpMethod
   fun:objc_msgSend
   fun:__CFXPreferencesGetSnapshotSearchList
   fun:__CFXPreferencesCopyCurrentApplicationState
   fun:CFLocaleCopyCurrent
}
{
   <insert_a_suppression_name_here>
   Memcheck:Leak
   fun:malloc_zone_calloc
   fun:attachMethodLists
   fun:realizeClass
   fun:_class_getNonMetaClass
   fun:_class_initialize
   fun:prepareForMethodLookup
   fun:lookUpMethod
   fun:objc_msgSend
   fun:__CFXPreferencesGetSnapshotSearchList
   fun:__CFXPreferencesCopyCurrentApplicationState
   fun:CFLocaleCopyCurrent
   fun:_ZNK13QSystemLocale14fallbackLocaleEv
}
{
   <insert_a_suppression_name_here>
   Memcheck:Leak
   fun:malloc
   fun:_nc_table_new
   fun:token_table_add
   fun:notify_register_check
   fun:si_module_static_mdns
   fun:si_module_with_name
   fun:init_optional_modules
   fun:si_module_static_search
   fun:si_module_with_name
   fun:si_search
   fun:getpwuid
   fun:_CFUpdateUserInfo
}
{
   <insert_a_suppression_name_here>
   Memcheck:Leak
   fun:calloc
   fun:LI_get_thread_info
   fun:LI_set_thread_item
   fun:getpwuid
   fun:_CFUpdateUserInfo
   fun:_CFUserName
   fun:__CFXPreferencesGetManagedSourceForBundleIDAndUser
   fun:__CFXPreferencesGetSnapshotSearchList
   fun:__CFXPreferencesCopyCurrentApplicationState
   fun:CFLocaleCopyCurrent
   fun:_ZNK13QSystemLocale14fallbackLocaleEv
   fun:_ZN14QLocalePrivate19updateSystemPrivateEv
}
{
   <insert_a_suppression_name_here>
   Memcheck:Leak
   fun:malloc_zone_calloc
   fun:attachMethodLists
   fun:realizeClass
   fun:realizeClass
   fun:prepareForMethodLookup
   fun:lookUpMethod
   fun:objc_msgSend
   fun:__CFXPreferencesGetManagedSourceForBundleIDAndUser
   fun:__CFXPreferencesGetSnapshotSearchList
   fun:__CFXPreferencesCopyCurrentApplicationState
   fun:CFLocaleCopyCurrent
   fun:_ZNK13QSystemLocale14fallbackLocaleEv
}
{
   <insert_a_suppression_name_here>
   Memcheck:Leak
   fun:malloc_zone_calloc
   fun:attachMethodLists
   fun:realizeClass
   fun:prepareForMethodLookup
   fun:lookUpMethod
   fun:objc_msgSend
   fun:__CFXPreferencesGetManagedSourceForBundleIDAndUser
   fun:__CFXPreferencesGetSnapshotSearchList
   fun:__CFXPreferencesCopyCurrentApplicationState
   fun:CFLocaleCopyCurrent
   fun:_ZNK13QSystemLocale14fallbackLocaleEv
   fun:_ZN14QLocalePrivate19updateSystemPrivateEv
}
{
   <insert_a_suppression_name_here>
   Memcheck:Leak
   fun:malloc_zone_calloc
   fun:attachMethodLists
   fun:realizeClass
   fun:_class_getNonMetaClass
   fun:_class_initialize
   fun:prepareForMethodLookup
   fun:lookUpMethod
   fun:objc_msgSend
   fun:__CFXPreferencesGetManagedSourceForBundleIDAndUser
   fun:__CFXPreferencesGetSnapshotSearchList
   fun:__CFXPreferencesCopyCurrentApplicationState
   fun:CFLocaleCopyCurrent
}
{
   <insert_a_suppression_name_here>
   Memcheck:Leak
   fun:malloc_zone_calloc
   fun:attachMethodLists
   fun:realizeClass
   fun:prepareForMethodLookup
   fun:lookUpMethod
   fun:objc_msgSend
   fun:___CFMachPortCreateWithPort2_block_invoke_1
   fun:dispatch_barrier_sync_f
   fun:_CFMachPortCreateWithPort2
   fun:CFMachPortCreate
   fun:_CFXNotificationCenterCreate
   fun:_CFXNotificationGetHostCenter
}
{
   <insert_a_suppression_name_here>
   Memcheck:Leak
   fun:malloc_zone_malloc
   fun:buildProtocolList
   fun:realizeClass
   fun:prepareForMethodLookup
   fun:lookUpMethod
   fun:objc_msgSend
   fun:___CFMachPortCreateWithPort2_block_invoke_1
   fun:dispatch_barrier_sync_f
   fun:_CFMachPortCreateWithPort2
   fun:CFMachPortCreate
   fun:_CFXNotificationCenterCreate
   fun:_CFXNotificationGetHostCenter
}
{
   <insert_a_suppression_name_here>
   Memcheck:Leak
   fun:malloc_zone_calloc
   fun:attachMethodLists
   fun:realizeClass
   fun:_class_getNonMetaClass
   fun:_class_initialize
   fun:prepareForMethodLookup
   fun:lookUpMethod
   fun:objc_msgSend
   fun:___CFMachPortCreateWithPort2_block_invoke_1
   fun:dispatch_barrier_sync_f
   fun:_CFMachPortCreateWithPort2
   fun:CFMachPortCreate
}
{
   <insert_a_suppression_name_here>
   Memcheck:Leak
   fun:malloc_zone_malloc
   fun:buildProtocolList
   fun:realizeClass
   fun:_class_getNonMetaClass
   fun:_class_initialize
   fun:prepareForMethodLookup
   fun:lookUpMethod
   fun:objc_msgSend
   fun:___CFMachPortCreateWithPort2_block_invoke_1
   fun:dispatch_barrier_sync_f
   fun:_CFMachPortCreateWithPort2
   fun:CFMachPortCreate
}
{
   <insert_a_suppression_name_here>
   Memcheck:Leak
   fun:malloc_zone_calloc
   fun:attachMethodLists
   fun:realizeClass
   fun:prepareForMethodLookup
   fun:lookUpMethod
   fun:objc_msgSend
   fun:+[__CFPointerArray allocWithZone:]
   fun:___CFMachPortCreateWithPort2_block_invoke_1
   fun:dispatch_barrier_sync_f
   fun:_CFMachPortCreateWithPort2
   fun:CFMachPortCreate
   fun:_CFXNotificationCenterCreate
}
{
   <insert_a_suppression_name_here>
   Memcheck:Leak
   fun:malloc_zone_calloc
   fun:attachMethodLists
   fun:realizeClass
   fun:_class_getNonMetaClass
   fun:_class_initialize
   fun:prepareForMethodLookup
   fun:lookUpMethod
   fun:objc_msgSend
   fun:+[__CFPointerArray allocWithZone:]
   fun:___CFMachPortCreateWithPort2_block_invoke_1
   fun:dispatch_barrier_sync_f
   fun:_CFMachPortCreateWithPort2
}
{
   <insert_a_suppression_name_here>
   Memcheck:Leak
   fun:malloc
   fun:udata_setCommonData
   fun:udata_setAppData
   fun:udata_setAppData
   fun:udata_setAppData
   fun:ures_getKeywordValues
   fun:ures_getUTF8String
   fun:ures_getUTF8String
   fun:ures_getUTF8String
   fun:ures_open
   fun:_ZN3icu12NumberFormat12makeInstanceERKNS_6LocaleENS0_7EStylesER10UErrorCode
   fun:unum_open
}
{
   <insert_a_suppression_name_here>
   Memcheck:Leak
   fun:malloc_zone_calloc
   fun:attachMethodLists
   fun:realizeClass
   fun:prepareForMethodLookup
   fun:lookUpMethod
   fun:objc_msgSend
   fun:__CFXPreferencesGetSearchListForBundleID
   fun:CFPreferencesCopyAppValue
   fun:_CFBundleCopyUserLanguages
   fun:_CFBundleAddPreferredLprojNamesInDirectory
   fun:_CFBundleGetLanguageSearchList
   fun:CFBundleCopyResourceURL
}
{
   <insert_a_suppression_name_here>
   Memcheck:Leak
   fun:malloc_zone_calloc
   fun:attachMethodLists
   fun:realizeClass
   fun:_class_getNonMetaClass
   fun:_class_initialize
   fun:prepareForMethodLookup
   fun:lookUpMethod
   fun:objc_msgSend
   fun:__CFXPreferencesGetSearchListForBundleID
   fun:CFPreferencesCopyAppValue
   fun:_CFBundleCopyUserLanguages
   fun:_CFBundleAddPreferredLprojNamesInDirectory
}
{
   <insert_a_suppression_name_here>
   Memcheck:Leak
   fun:malloc
   fun:calloc
   fun:__cxa_get_globals
   fun:__cxa_allocate_exception
   fun:_ZN4dyld4loadEPKcRKNS_11LoadContextE
   fun:dlopen
   fun:dlopen
   fun:_ZN15QLibraryPrivate8load_sysEv
   fun:_ZN15QLibraryPrivate4loadEv
   fun:_ZN8QLibrary4loadEv
   fun:_ZN8QLibrary7resolveEPKc
   fun:_ZN11QIconvCodecC2Ev
}
{
   <insert_a_suppression_name_here>
   Memcheck:Leak
   fun:malloc
   fun:_Znwm
   fun:_ZL15getHandlerTableh
   fun:_ZL18AEGetEventHandler0jjPPFsPK6AEDescPS_PvEPS3_h
   fun:AEGetEventHandler
   fun:_Z7qt_initP19QApplicationPrivatei
   fun:_ZN19QApplicationPrivate9constructEv
   fun:_ZN12QApplicationC2ERiPPci
   fun:main
}
{
   <insert_a_suppression_name_here>
   Memcheck:Leak
   fun:malloc_zone_calloc
   fun:attachMethodLists
   fun:realizeClass
   fun:realizeClass
   fun:_objc_fixupMessageRef
   fun:objc_msgSend_fixup
   fun:_Z7qt_initP19QApplicationPrivatei
   fun:_ZN19QApplicationPrivate9constructEv
   fun:_ZN12QApplicationC2ERiPPci
   fun:main
}
{
   <insert_a_suppression_name_here>
   Memcheck:Leak
   fun:malloc_zone_calloc
   fun:attachMethodLists
   fun:realizeClass
   fun:_objc_fixupMessageRef
   fun:objc_msgSend_fixup
   fun:_Z7qt_initP19QApplicationPrivatei
   fun:_ZN19QApplicationPrivate9constructEv
   fun:_ZN12QApplicationC2ERiPPci
   fun:main
}
{
   <insert_a_suppression_name_here>
   Memcheck:Leak
   fun:malloc_zone_calloc
   fun:attachMethodLists
   fun:realizeClass
   fun:prepareForMethodLookup
   fun:lookUpMethod
   fun:objc_msgSend
   fun:-[NSUserDefaults(NSUserDefaults) initWithUser:]
   fun:+[NSUserDefaults(NSUserDefaults) standardUserDefaults]
   fun:+[NSApplication initialize]
   fun:_class_initialize
   fun:_class_initialize
   fun:prepareForMethodLookup
}
{
   <insert_a_suppression_name_here>
   Memcheck:Leak
   fun:malloc_zone_calloc
   fun:attachMethodLists
   fun:realizeClass
   fun:_class_getNonMetaClass
   fun:_class_initialize
   fun:prepareForMethodLookup
   fun:lookUpMethod
   fun:objc_msgSend
   fun:-[NSUserDefaults(NSUserDefaults) initWithUser:]
   fun:+[NSUserDefaults(NSUserDefaults) standardUserDefaults]
   fun:+[NSApplication initialize]
   fun:_class_initialize
}
{
   <insert_a_suppression_name_here>
   Memcheck:Leak
   fun:malloc_zone_calloc
   fun:attachMethodLists
   fun:realizeClass
   fun:prepareForMethodLookup
   fun:lookUpMethod
   fun:objc_msgSend
   fun:+[NSString initialize]
   fun:_class_initialize
   fun:_class_initialize
   fun:_class_initialize
   fun:prepareForMethodLookup
   fun:lookUpMethod
}
{
   <insert_a_suppression_name_here>
   Memcheck:Leak
   fun:malloc_zone_calloc
   fun:attachMethodLists
   fun:realizeClass
   fun:_class_getNonMetaClass
   fun:_class_initialize
   fun:prepareForMethodLookup
   fun:lookUpMethod
   fun:objc_msgSend
   fun:+[NSString initialize]
   fun:_class_initialize
   fun:_class_initialize
   fun:_class_initialize
}
{
   <insert_a_suppression_name_here>
   Memcheck:Leak
   fun:calloc
   fun:_internal_class_createInstanceFromZone
   fun:NSAllocateObject
   fun:+[NSString initialize]
   fun:_class_initialize
   fun:_class_initialize
   fun:_class_initialize
   fun:prepareForMethodLookup
   fun:lookUpMethod
   fun:objc_msgSend
   fun:-[NSProcessInfo arguments]
   fun:-[NSUserDefaults(NSUserDefaults) initWithUser:]
}
{
   <insert_a_suppression_name_here>
   Memcheck:Leak
   fun:malloc_zone_calloc
   fun:attachMethodLists
   fun:realizeClass
   fun:prepareForMethodLookup
   fun:lookUpMethod
   fun:objc_msgSend
   fun:+[NSMutableString initialize]
   fun:_class_initialize
   fun:_class_initialize
   fun:prepareForMethodLookup
   fun:lookUpMethod
   fun:objc_msgSend
}
{
   <insert_a_suppression_name_here>
   Memcheck:Leak
   fun:malloc_zone_calloc
   fun:attachMethodLists
   fun:realizeClass
   fun:_class_getNonMetaClass
   fun:_class_initialize
   fun:prepareForMethodLookup
   fun:lookUpMethod
   fun:objc_msgSend
   fun:+[NSMutableString initialize]
   fun:_class_initialize
   fun:_class_initialize
   fun:prepareForMethodLookup
}
{
   <insert_a_suppression_name_here>
   Memcheck:Leak
   fun:calloc
   fun:_internal_class_createInstanceFromZone
   fun:NSAllocateObject
   fun:+[NSMutableString initialize]
   fun:_class_initialize
   fun:_class_initialize
   fun:prepareForMethodLookup
   fun:lookUpMethod
   fun:objc_msgSend
   fun:-[NSProcessInfo arguments]
   fun:-[NSUserDefaults(NSUserDefaults) initWithUser:]
   fun:+[NSUserDefaults(NSUserDefaults) standardUserDefaults]
}
{
   <insert_a_suppression_name_here>
   Memcheck:Leak
   fun:malloc_zone_calloc
   fun:attachMethodLists
   fun:realizeClass
   fun:prepareForMethodLookup
   fun:lookUpMethod
   fun:objc_msgSend
   fun:-[NSString(NSPathUtilities) _stringByStandardizingPathUsingCache:]
   fun:-[NSProcessInfo arguments]
   fun:-[NSUserDefaults(NSUserDefaults) initWithUser:]
   fun:+[NSUserDefaults(NSUserDefaults) standardUserDefaults]
   fun:+[NSApplication initialize]
   fun:_class_initialize
}
{
   <insert_a_suppression_name_here>
   Memcheck:Leak
   fun:malloc_zone_calloc
   fun:attachMethodLists
   fun:realizeClass
   fun:_class_getNonMetaClass
   fun:_class_initialize
   fun:prepareForMethodLookup
   fun:lookUpMethod
   fun:objc_msgSend
   fun:-[NSString(NSPathUtilities) _stringByStandardizingPathUsingCache:]
   fun:-[NSProcessInfo arguments]
   fun:-[NSUserDefaults(NSUserDefaults) initWithUser:]
   fun:+[NSUserDefaults(NSUserDefaults) standardUserDefaults]
}
{
   <insert_a_suppression_name_here>
   Memcheck:Leak
   fun:calloc
   fun:_internal_class_createInstanceFromZone
   fun:+[NSObject(NSObject) allocWithZone:]
   fun:+[NSLocale allocWithZone:]
   fun:-[NSUserDefaults(NSUserDefaults) initWithUser:]
   fun:+[NSUserDefaults(NSUserDefaults) standardUserDefaults]
   fun:+[NSApplication initialize]
   fun:_class_initialize
   fun:_class_initialize
   fun:prepareForMethodLookup
   fun:lookUpMethod
   fun:_objc_fixupMessageRef
}
{
   <insert_a_suppression_name_here>
   Memcheck:Leak
   fun:malloc
   fun:cf_color_space_state_hash
   fun:___CFBasicHashFindBucket1
   fun:__CFBasicHashAddValue
   fun:CFBasicHashSetValue
   fun:CGColorSpaceRegister
   fun:CGColorSpaceCreateWithICCData
   fun:CGSColorProfileCreateWithColorProfileID
   fun:bindDisplayMapping
   fun:updateAllDisplayInfoAsNeeded
   fun:CGSGetDisplayList
   fun:initDisplays
}
{
   <insert_a_suppression_name_here>
   Memcheck:Leak
   fun:malloc
   fun:_Znwm
   fun:_ZN8Security11ModuleNexusI17DefaultAllocatorsE4makeEv
   fun:_ZN8Security17ModuleNexusCommon6createEPFPvvE
   fun:_ZN8Security11ModuleNexusI17DefaultAllocatorsEclEv
   fun:_ZN8Security9Allocator8standardEj
   fun:_ZN10AuthClientC2Ev
   fun:_ZN8Security11ModuleNexusI10AuthClientE4makeEv
   fun:_ZN8Security17ModuleNexusCommon6createEPFPvvE
   fun:_ZN8Security11ModuleNexusI10AuthClientEclEv
   fun:SessionGetInfo
   fun:_ZL21GetOurLSSessionIDInitv
}
{
   <insert_a_suppression_name_here>
   Memcheck:Leak
   fun:malloc
   fun:_CSCreateSeed
   fun:_LSDatabaseCreate
   fun:_LSContextInit
   fun:_LSRegisterSelf
   fun:_LSApplicationCheckIn
   fun:_RegisterApplication
   fun:GetCurrentProcess
   fun:_Z7qt_initP19QApplicationPrivatei
   fun:_ZN19QApplicationPrivate9constructEv
   fun:_ZN12QApplicationC2ERiPPci
   fun:main
}
{
   <insert_a_suppression_name_here>
   Memcheck:Leak
   fun:calloc
   fun:_internal_class_createInstanceFromZone
   fun:__CFAllocateObject
   fun:+[__NSCFDate __new:]
   fun:CFDateCreate
   fun:_ZN17UnflattenedCFItem6DecodeEv
   fun:_ZN17UnflattenedCFItem6DecodeEv
   fun:_ZN17UnflattenedCFItem7CopyRefEv
   fun:_ZN17UnflattenedCFItem13GetAndReleaseEPKvmb
   fun:_LSSetApplicationInformation
   fun:_LSSetApplicationInformationItem
   fun:TransformProcessType
}
{
   <insert_a_suppression_name_here>
   Memcheck:Leak
   fun:malloc
   fun:_Znwm
   fun:_ZN24LSClientSideSharedMemory25GetClientSideSharedMemoryE11LSSessionIDb
   fun:_LSCopyApplicationInformationItem
   fun:CopyProcessName
   fun:_ZNK19QApplicationPrivate7appNameEv
   fun:_Z7qt_initP19QApplicationPrivatei
   fun:_ZN19QApplicationPrivate9constructEv
   fun:_ZN12QApplicationC2ERiPPci
   fun:main
}
{
   <insert_a_suppression_name_here>
   Memcheck:Leak
   fun:malloc
   fun:_Znwm
   fun:_ZN24LSClientSideSharedMemory25GetClientSideSharedMemoryE11LSSessionIDb
   fun:_LSCopyApplicationInformation
   fun:_LSCopyApplicationInformationItem
   fun:CopyProcessName
   fun:_ZNK19QApplicationPrivate7appNameEv
   fun:_Z7qt_initP19QApplicationPrivatei
   fun:_ZN19QApplicationPrivate9constructEv
   fun:_ZN12QApplicationC2ERiPPci
   fun:main
}
{
   <insert_a_suppression_name_here>
   Memcheck:Leak
   fun:malloc
   fun:CGColorSpaceCreate
   fun:CGColorSpaceCreateICCBased
   fun:create_generic_color_space
   fun:CGColorSpaceCreateWithIndex
   fun:_Z21_CUIColorSpaceGetGrayv
   fun:_Z12_CUIColorGetl
   fun:_ZN11CUIRenderer9CopyColorEPK13CUIDescriptorlPK14__CFDictionary
   fun:_ZN11CUIRenderer16CopyMeasurementsE6CGRectP9CGContextPK14__CFDictionaryPK9__CFArray
   fun:CUICopyMeasurements
   fun:_HIThemeCopyCUIColor
   fun:_HIThemeCopyCUIBackgroundColorForThemeBrush
}
{
   <insert_a_suppression_name_here>
   Memcheck:Leak
   fun:malloc
   fun:cf_color_space_state_hash
   fun:___CFBasicHashFindBucket1
   fun:CFBasicHashFindBucket
   fun:CFSetGetValue
   fun:CGColorSpaceRegister
   fun:CGColorSpaceCreateICCBased
   fun:create_generic_color_space
   fun:CGColorSpaceCreateWithIndex
   fun:_Z21_CUIColorSpaceGetGrayv
   fun:_Z12_CUIColorGetl
   fun:_ZN11CUIRenderer9CopyColorEPK13CUIDescriptorlPK14__CFDictionary
}
{
   <insert_a_suppression_name_here>
   Memcheck:Leak
   fun:malloc
   fun:cf_color_space_state_hash
   fun:___CFBasicHashFindBucket1
   fun:CFBasicHashFindBucket
   fun:CFSetGetValue
   fun:CGColorSpaceRegister
   fun:CGColorSpaceCreateICCBased
   fun:create_generic_color_space
   fun:CGColorSpaceCreateWithIndex
   fun:HICGGetRGBColorspace
   fun:HIThemeBrushCreateCGColor
   fun:_Z14qcolorForThemes
}
{
   <insert_a_suppression_name_here>
   Memcheck:Leak
   fun:malloc_zone_malloc
   fun:_parseComponents
   fun:_retainedComponentString
   fun:CFURLCopyScheme
   fun:CFURLCreateDataAndPropertiesFromResource
   fun:_CFBundleCopyInfoDictionaryInDirectoryWithVersion
   fun:CFBundleGetInfoDictionary
   fun:_CFBundleCreate
   fun:_CFBundleEnsureBundleExistsForImagePath
   fun:CFBundleGetBundleWithIdentifier
   fun:HLTBGetBundle
   fun:MakeThemeFSRef
}
{
   <insert_a_suppression_name_here>
   Memcheck:Leak
   fun:malloc_zone_calloc
   fun:attachMethodLists
   fun:realizeClass
   fun:realizeClass
   fun:realizeClass
   fun:look_up_class
   fun:objc_getFutureClass
   fun:_CFRuntimeBridgeClasses
   fun:_ZN7TCFBaseI11TDescriptorE9GetTypeIDEv
   fun:_ZN7TCFBaseI11TDescriptorEnwEm
   fun:CTFontDescriptorCreateForUIType
   fun:CTFontCreateUIFontForLanguage
}
{
   <insert_a_suppression_name_here>
   Memcheck:Leak
   fun:malloc_zone_malloc
   fun:buildProtocolList
   fun:realizeClass
   fun:realizeClass
   fun:realizeClass
   fun:look_up_class
   fun:objc_getFutureClass
   fun:_CFRuntimeBridgeClasses
   fun:_ZN7TCFBaseI11TDescriptorE9GetTypeIDEv
   fun:_ZN7TCFBaseI11TDescriptorEnwEm
   fun:CTFontDescriptorCreateForUIType
   fun:CTFontCreateUIFontForLanguage
}
{
   <insert_a_suppression_name_here>
   Memcheck:Leak
   fun:malloc_zone_calloc
   fun:attachMethodLists
   fun:realizeClass
   fun:realizeClass
   fun:look_up_class
   fun:objc_getFutureClass
   fun:_CFRuntimeBridgeClasses
   fun:_ZN7TCFBaseI11TDescriptorE9GetTypeIDEv
   fun:_ZN7TCFBaseI11TDescriptorEnwEm
   fun:CTFontDescriptorCreateForUIType
   fun:CTFontCreateUIFontForLanguage
   fun:_Z17qfontForThemeFontt
}
{
   <insert_a_suppression_name_here>
   Memcheck:Leak
   fun:malloc_zone_malloc
   fun:buildProtocolList
   fun:realizeClass
   fun:realizeClass
   fun:look_up_class
   fun:objc_getFutureClass
   fun:_CFRuntimeBridgeClasses
   fun:_ZN7TCFBaseI11TDescriptorE9GetTypeIDEv
   fun:_ZN7TCFBaseI11TDescriptorEnwEm
   fun:CTFontDescriptorCreateForUIType
   fun:CTFontCreateUIFontForLanguage
   fun:_Z17qfontForThemeFontt
}
{
   <insert_a_suppression_name_here>
   Memcheck:Leak
   fun:malloc_zone_calloc
   fun:attachMethodLists
   fun:realizeClass
   fun:realizeClass
   fun:look_up_class
   fun:objc_getFutureClass
   fun:_CFRuntimeBridgeClasses
   fun:_ZN7TCFBaseI11TDescriptorE9GetTypeIDEv
   fun:_ZN7TCFBaseI11TDescriptorEnwEm
   fun:CTFontDescriptorCreateForUIType
   fun:CTFontCreateUIFontForLanguage
   fun:_Z17qfontForThemeFontt
}
{
   <insert_a_suppression_name_here>
   Memcheck:Leak
   fun:malloc_zone_calloc
   fun:attachMethodLists
   fun:realizeClass
   fun:look_up_class
   fun:objc_getFutureClass
   fun:_CFRuntimeBridgeClasses
   fun:_ZN7TCFBaseI11TDescriptorE9GetTypeIDEv
   fun:_ZN7TCFBaseI11TDescriptorEnwEm
   fun:CTFontDescriptorCreateForUIType
   fun:CTFontCreateUIFontForLanguage
   fun:_Z17qfontForThemeFontt
   fun:_Z25qt_mac_update_os_settingsv
}
{
   <insert_a_suppression_name_here>
   Memcheck:Leak
   fun:malloc_zone_calloc
   fun:attachMethodLists
   fun:realizeClass
   fun:realizeClass
   fun:realizeClass
   fun:look_up_class
   fun:objc_getFutureClass
   fun:_CFRuntimeBridgeClasses
   fun:_ZN7TCFBaseI5TFontE9GetTypeIDEv
   fun:_ZN7TCFBaseI5TFontEnwEm
   fun:CTFontCreateWithFontDescriptor
   fun:CTFontCreateUIFontForLanguage
}
{
   <insert_a_suppression_name_here>
   Memcheck:Leak
   fun:malloc_zone_malloc
   fun:buildProtocolList
   fun:realizeClass
   fun:realizeClass
   fun:realizeClass
   fun:look_up_class
   fun:objc_getFutureClass
   fun:_CFRuntimeBridgeClasses
   fun:_ZN7TCFBaseI5TFontE9GetTypeIDEv
   fun:_ZN7TCFBaseI5TFontEnwEm
   fun:CTFontCreateWithFontDescriptor
   fun:CTFontCreateUIFontForLanguage
}
{
   <insert_a_suppression_name_here>
   Memcheck:Leak
   fun:malloc_zone_malloc
   fun:buildProtocolList
   fun:realizeClass
   fun:realizeClass
   fun:look_up_class
   fun:objc_getFutureClass
   fun:_CFRuntimeBridgeClasses
   fun:_ZN7TCFBaseI5TFontE9GetTypeIDEv
   fun:_ZN7TCFBaseI5TFontEnwEm
   fun:CTFontCreateWithFontDescriptor
   fun:CTFontCreateUIFontForLanguage
   fun:_Z17qfontForThemeFontt
}
{
   <insert_a_suppression_name_here>
   Memcheck:Leak
   fun:malloc_zone_calloc
   fun:attachMethodLists
   fun:realizeClass
   fun:realizeClass
   fun:look_up_class
   fun:objc_getFutureClass
   fun:_CFRuntimeBridgeClasses
   fun:_ZN7TCFBaseI5TFontE9GetTypeIDEv
   fun:_ZN7TCFBaseI5TFontEnwEm
   fun:CTFontCreateWithFontDescriptor
   fun:CTFontCreateUIFontForLanguage
   fun:_Z17qfontForThemeFontt
}
{
   <insert_a_suppression_name_here>
   Memcheck:Leak
   fun:malloc_zone_calloc
   fun:attachMethodLists
   fun:realizeClass
   fun:look_up_class
   fun:objc_getFutureClass
   fun:_CFRuntimeBridgeClasses
   fun:_ZN7TCFBaseI5TFontE9GetTypeIDEv
   fun:_ZN7TCFBaseI5TFontEnwEm
   fun:CTFontCreateWithFontDescriptor
   fun:CTFontCreateUIFontForLanguage
   fun:_Z17qfontForThemeFontt
   fun:_Z25qt_mac_update_os_settingsv
}
{
   <insert_a_suppression_name_here>
   Memcheck:Leak
   fun:malloc_zone_calloc
   fun:attachMethodLists
   fun:realizeClass
   fun:prepareForMethodLookup
   fun:lookUpMethod
   fun:objc_msgSend
   fun:-[NSScreen init]
   fun:+[NSScreen screens]
   fun:+[NSScreen _zeroScreen]
   fun:+[NSScreen mainScreen]
   fun:_Z22qt_mac_get_scalefactorv
   fun:_ZN12QStyleHelper9dpiScaledEd
}
{
   <insert_a_suppression_name_here>
   Memcheck:Leak
   fun:malloc_zone_calloc
   fun:attachMethodLists
   fun:realizeClass
   fun:_class_getNonMetaClass
   fun:_class_initialize
   fun:prepareForMethodLookup
   fun:lookUpMethod
   fun:objc_msgSend
   fun:-[NSScreen init]
   fun:+[NSScreen screens]
   fun:+[NSScreen _zeroScreen]
   fun:+[NSScreen mainScreen]
}
{
   <insert_a_suppression_name_here>
   Memcheck:Leak
   fun:calloc
   fun:_internal_class_createInstanceFromZone
   fun:+[NSObject(NSObject) allocWithZone:]
   fun:-[NSScreen init]
   fun:+[NSScreen screens]
   fun:+[NSScreen _zeroScreen]
   fun:+[NSScreen mainScreen]
   fun:_Z22qt_mac_get_scalefactorv
   fun:_ZN12QStyleHelper9dpiScaledEd
   fun:_ZNK12QCommonStyle11pixelMetricEN6QStyle11PixelMetricEPK12QStyleOptionPK7QWidget
   fun:_ZNK13QWindowsStyle11pixelMetricEN6QStyle11PixelMetricEPK12QStyleOptionPK7QWidget
   fun:_ZNK9QMacStyle11pixelMetricEN6QStyle11PixelMetricEPK12QStyleOptionPK7QWidget
}
{
   <insert_a_suppression_name_here>
   Memcheck:Leak
   fun:malloc_zone_calloc
   fun:attachMethodLists
   fun:realizeClass
   fun:realizeClass
   fun:prepareForMethodLookup
   fun:lookUpMethod
   fun:objc_msgSend
   fun:_ZL20qt_mac_create_windowP7QWidgetjmRK5QRect
   fun:_ZN14QWidgetPrivate18qt_create_root_winEv
   fun:_ZN14QWidgetPrivate10create_sysElbb
   fun:_ZN7QWidget6createElbb
   fun:_ZN14QWidgetPrivate4initEP7QWidget6QFlagsIN2Qt10WindowTypeEE
}
{
   <insert_a_suppression_name_here>
   Memcheck:Leak
   fun:malloc_zone_calloc
   fun:attachMethodLists
   fun:realizeClass
   fun:prepareForMethodLookup
   fun:lookUpMethod
   fun:objc_msgSend
   fun:_ZL20qt_mac_create_windowP7QWidgetjmRK5QRect
   fun:_ZN14QWidgetPrivate18qt_create_root_winEv
   fun:_ZN14QWidgetPrivate10create_sysElbb
   fun:_ZN7QWidget6createElbb
   fun:_ZN14QWidgetPrivate4initEP7QWidget6QFlagsIN2Qt10WindowTypeEE
   fun:_ZN7QWidgetC2EPS_6QFlagsIN2Qt10WindowTypeEE
}
{
   <insert_a_suppression_name_here>
   Memcheck:Leak
   fun:malloc_zone_calloc
   fun:attachMethodLists
   fun:realizeClass
   fun:prepareForMethodLookup
   fun:lookUpMethod
   fun:objc_msgSend
   fun:allocAuxiliaryStorage
   fun:-[NSWindow _initContent:styleMask:backing:defer:contentView:]
   fun:-[NSPanel _initContent:styleMask:backing:defer:contentView:]
   fun:-[NSWindow initWithContentRect:styleMask:backing:defer:]
   fun:-[NSPanel initWithContentRect:styleMask:backing:defer:]
   fun:-[QCocoaPanel initWithContentRect:styleMask:backing:defer:]
}
{
   <insert_a_suppression_name_here>
   Memcheck:Leak
   fun:malloc_zone_calloc
   fun:attachMethodLists
   fun:realizeClass
   fun:_class_getNonMetaClass
   fun:_class_initialize
   fun:prepareForMethodLookup
   fun:lookUpMethod
   fun:objc_msgSend
   fun:allocAuxiliaryStorage
   fun:-[NSWindow _initContent:styleMask:backing:defer:contentView:]
   fun:-[NSPanel _initContent:styleMask:backing:defer:contentView:]
   fun:-[NSWindow initWithContentRect:styleMask:backing:defer:]
}
{
   <insert_a_suppression_name_here>
   Memcheck:Leak
   fun:malloc_zone_calloc
   fun:attachMethodLists
   fun:realizeClass
   fun:prepareForMethodLookup
   fun:lookUpMethod
   fun:objc_msgSend
   fun:allocAuxiliaryStorage
   fun:-[NSWindow _initContent:styleMask:backing:defer:contentView:]
   fun:-[NSPanel _initContent:styleMask:backing:defer:contentView:]
   fun:-[NSWindow initWithContentRect:styleMask:backing:defer:]
   fun:-[NSPanel initWithContentRect:styleMask:backing:defer:]
   fun:-[QCocoaPanel initWithContentRect:styleMask:backing:defer:]
}
{
   <insert_a_suppression_name_here>
   Memcheck:Leak
   fun:malloc_zone_calloc
   fun:attachMethodLists
   fun:realizeClass
   fun:_class_getNonMetaClass
   fun:_class_initialize
   fun:prepareForMethodLookup
   fun:lookUpMethod
   fun:objc_msgSend
   fun:allocAuxiliaryStorage
   fun:-[NSWindow _initContent:styleMask:backing:defer:contentView:]
   fun:-[NSPanel _initContent:styleMask:backing:defer:contentView:]
   fun:-[NSWindow initWithContentRect:styleMask:backing:defer:]
}
{
   <insert_a_suppression_name_here>
   Memcheck:Leak
   fun:malloc_zone_calloc
   fun:NXHashInsert
   fun:addRealizedClass
   fun:realizeClass
   fun:_class_getNonMetaClass
   fun:_class_initialize
   fun:prepareForMethodLookup
   fun:lookUpMethod
   fun:objc_msgSend
   fun:allocAuxiliaryStorage
   fun:-[NSWindow _initContent:styleMask:backing:defer:contentView:]
   fun:-[NSPanel _initContent:styleMask:backing:defer:contentView:]
}
{
   <insert_a_suppression_name_here>
   Memcheck:Leak
   fun:malloc_zone_calloc
   fun:attachMethodLists
   fun:realizeClass
   fun:prepareForMethodLookup
   fun:lookUpMethod
   fun:objc_msgSend
   fun:-[NSView(NSInternal) _allocAuxiliary:]
   fun:-[NSView _commonAwake]
   fun:-[NSView initWithFrame:]
   fun:-[NSNextStepFrame initWithFrame:styleMask:owner:]
   fun:-[NSWindow _commonInitFrame:styleMask:backing:defer:]
   fun:-[NSWindow _initContent:styleMask:backing:defer:contentView:]
}
{
   <insert_a_suppression_name_here>
   Memcheck:Leak
   fun:malloc_zone_calloc
   fun:attachMethodLists
   fun:realizeClass
   fun:_class_getNonMetaClass
   fun:_class_initialize
   fun:prepareForMethodLookup
   fun:lookUpMethod
   fun:objc_msgSend
   fun:-[NSView(NSInternal) _allocAuxiliary:]
   fun:-[NSView _commonAwake]
   fun:-[NSView initWithFrame:]
   fun:-[NSNextStepFrame initWithFrame:styleMask:owner:]
}
{
   <insert_a_suppression_name_here>
   Memcheck:Leak
   fun:malloc_zone_calloc
   fun:attachMethodLists
   fun:realizeClass
   fun:prepareForMethodLookup
   fun:lookUpMethod
   fun:objc_msgSend
   fun:-[NSWindow _lockViewHierarchyForDrawingWithExceptionHandler:]
   fun:-[NSNextStepFrame tile]
   fun:-[NSNextStepFrame initWithFrame:styleMask:owner:]
   fun:-[NSWindow _commonInitFrame:styleMask:backing:defer:]
   fun:-[NSWindow _initContent:styleMask:backing:defer:contentView:]
   fun:-[NSPanel _initContent:styleMask:backing:defer:contentView:]
}
{
   <insert_a_suppression_name_here>
   Memcheck:Leak
   fun:malloc_zone_calloc
   fun:attachMethodLists
   fun:realizeClass
   fun:realizeClass
   fun:realizeClass
   fun:_class_getNonMetaClass
   fun:_class_initialize
   fun:prepareForMethodLookup
   fun:lookUpMethod
   fun:objc_msgSend
   fun:-[NSWindow _usesCustomDrawing]
   fun:-[NSWindow _isDarkWindow]
}
{
   <insert_a_suppression_name_here>
   Memcheck:Leak
   fun:malloc_zone_calloc
   fun:attachMethodLists
   fun:realizeClass
   fun:realizeClass
   fun:_class_getNonMetaClass
   fun:_class_initialize
   fun:prepareForMethodLookup
   fun:lookUpMethod
   fun:objc_msgSend
   fun:-[NSWindow _usesCustomDrawing]
   fun:-[NSWindow _isDarkWindow]
   fun:-[NSWindow _commonInitFrame:styleMask:backing:defer:]
}
{
   <insert_a_suppression_name_here>
   Memcheck:Leak
   fun:malloc_zone_calloc
   fun:attachMethodLists
   fun:realizeClass
   fun:_class_getNonMetaClass
   fun:_class_initialize
   fun:prepareForMethodLookup
   fun:lookUpMethod
   fun:objc_msgSend
   fun:-[NSWindow _usesCustomDrawing]
   fun:-[NSWindow _isDarkWindow]
   fun:-[NSWindow _commonInitFrame:styleMask:backing:defer:]
   fun:-[NSWindow _initContent:styleMask:backing:defer:contentView:]
}
{
   <insert_a_suppression_name_here>
   Memcheck:Leak
   fun:malloc_zone_calloc
   fun:NXHashInsert
   fun:addRealizedClass
   fun:realizeClass
   fun:_class_getNonMetaClass
   fun:_class_initialize
   fun:prepareForMethodLookup
   fun:lookUpMethod
   fun:objc_msgSend
   fun:-[NSWindow _usesCustomDrawing]
   fun:-[NSWindow _isDarkWindow]
   fun:-[NSWindow _commonInitFrame:styleMask:backing:defer:]
}
{
   <insert_a_suppression_name_here>
   Memcheck:Leak
   fun:malloc_zone_calloc
   fun:attachMethodLists
   fun:realizeClass
   fun:prepareForMethodLookup
   fun:lookUpMethod
   fun:objc_msgSend
   fun:+[NSTitledFrame initialize]
   fun:_class_initialize
   fun:_class_initialize
   fun:prepareForMethodLookup
   fun:lookUpMethod
   fun:objc_msgSend
}
{
   <insert_a_suppression_name_here>
   Memcheck:Leak
   fun:malloc_zone_malloc
   fun:buildProtocolList
   fun:realizeClass
   fun:prepareForMethodLookup
   fun:lookUpMethod
   fun:objc_msgSend
   fun:+[NSTitledFrame initialize]
   fun:_class_initialize
   fun:_class_initialize
   fun:prepareForMethodLookup
   fun:lookUpMethod
   fun:objc_msgSend
}
{
   <insert_a_suppression_name_here>
   Memcheck:Leak
   fun:malloc_zone_calloc
   fun:attachMethodLists
   fun:realizeClass
   fun:_class_getNonMetaClass
   fun:_class_initialize
   fun:prepareForMethodLookup
   fun:lookUpMethod
   fun:objc_msgSend
   fun:+[NSTitledFrame initialize]
   fun:_class_initialize
   fun:_class_initialize
   fun:prepareForMethodLookup
}
{
   <insert_a_suppression_name_here>
   Memcheck:Leak
   fun:malloc_zone_malloc
   fun:buildProtocolList
   fun:realizeClass
   fun:_class_getNonMetaClass
   fun:_class_initialize
   fun:prepareForMethodLookup
   fun:lookUpMethod
   fun:objc_msgSend
   fun:+[NSTitledFrame initialize]
   fun:_class_initialize
   fun:_class_initialize
   fun:prepareForMethodLookup
}
{
   <insert_a_suppression_name_here>
   Memcheck:Leak
   fun:malloc_zone_calloc
   fun:attachMethodLists
   fun:realizeClass
   fun:_class_getNonMetaClass
   fun:_class_initialize
   fun:prepareForMethodLookup
   fun:lookUpMethod
   fun:objc_msgSend
   fun:-[NSWindow _usesCustomDrawing]
   fun:-[NSWindow _isDarkWindow]
   fun:-[NSWindow _commonInitFrame:styleMask:backing:defer:]
   fun:-[NSWindow _initContent:styleMask:backing:defer:contentView:]
}
{
   <insert_a_suppression_name_here>
   Memcheck:Leak
   fun:malloc_zone_calloc
   fun:attachMethodLists
   fun:realizeClass
   fun:_class_getNonMetaClass
   fun:_class_initialize
   fun:prepareForMethodLookup
   fun:lookUpMethod
   fun:objc_msgSend
   fun:-[NSView _addSubview:]
   fun:-[NSView _setSuperview:]
   fun:-[NSView addSubview:]
   fun:-[NSWindow setContentView:]
}
{
   <insert_a_suppression_name_here>
   Memcheck:Leak
   fun:malloc_zone_calloc
   fun:attachMethodLists
   fun:realizeClass
   fun:prepareForMethodLookup
   fun:lookUpMethod
   fun:objc_msgSend
   fun:_Z20qt_mac_create_widgetP7QWidgetP14QWidgetPrivateP6NSView
   fun:_ZN14QWidgetPrivate10create_sysElbb
   fun:_ZN7QWidget6createElbb
   fun:_ZN7QWidget10setVisibleEb
   fun:_ZN7QWidget4showEv
   fun:main
}
{
   <insert_a_suppression_name_here>
   Memcheck:Leak
   fun:malloc_zone_malloc
   fun:buildProtocolList
   fun:realizeClass
   fun:prepareForMethodLookup
   fun:lookUpMethod
   fun:objc_msgSend
   fun:_Z20qt_mac_create_widgetP7QWidgetP14QWidgetPrivateP6NSView
   fun:_ZN14QWidgetPrivate10create_sysElbb
   fun:_ZN7QWidget6createElbb
   fun:_ZN7QWidget10setVisibleEb
   fun:_ZN7QWidget4showEv
   fun:main
}
{
   <insert_a_suppression_name_here>
   Memcheck:Leak
   fun:malloc_zone_malloc
   fun:buildProtocolList
   fun:realizeClass
   fun:_class_getNonMetaClass
   fun:_class_initialize
   fun:prepareForMethodLookup
   fun:lookUpMethod
   fun:objc_msgSend
   fun:_Z20qt_mac_create_widgetP7QWidgetP14QWidgetPrivateP6NSView
   fun:_ZN14QWidgetPrivate10create_sysElbb
   fun:_ZN7QWidget6createElbb
   fun:_ZN7QWidget10setVisibleEb
}
{
   <insert_a_suppression_name_here>
   Memcheck:Leak
   fun:malloc_zone_realloc
   fun:attachMethodLists
   fun:attachCategoryMethods
   fun:realizeClass
   fun:realizeClass
   fun:realizeClass
   fun:_objc_fixupMessageRef
   fun:objc_msgSend_fixup
   fun:-[NSControl initWithFrame:]
   fun:-[NSView init]
   fun:-[QCocoaView initWithQWidget:widgetPrivate:]
   fun:_Z20qt_mac_create_widgetP7QWidgetP14QWidgetPrivateP6NSView
}
{
   <insert_a_suppression_name_here>
   Memcheck:Leak
   fun:malloc_zone_calloc
   fun:attachMethodLists
   fun:realizeClass
   fun:realizeClass
   fun:_objc_fixupMessageRef
   fun:objc_msgSend_fixup
   fun:-[NSControl initWithFrame:]
   fun:-[NSView init]
   fun:-[QCocoaView initWithQWidget:widgetPrivate:]
   fun:_Z20qt_mac_create_widgetP7QWidgetP14QWidgetPrivateP6NSView
   fun:_ZN14QWidgetPrivate10create_sysElbb
   fun:_ZN7QWidget6createElbb
}
{
   <insert_a_suppression_name_here>
   Memcheck:Leak
   fun:malloc_zone_calloc
   fun:attachMethodLists
   fun:realizeClass
   fun:_objc_fixupMessageRef
   fun:objc_msgSend_fixup
   fun:-[NSControl initWithFrame:]
   fun:-[NSView init]
   fun:-[QCocoaView initWithQWidget:widgetPrivate:]
   fun:_Z20qt_mac_create_widgetP7QWidgetP14QWidgetPrivateP6NSView
   fun:_ZN14QWidgetPrivate10create_sysElbb
   fun:_ZN7QWidget6createElbb
   fun:_ZN7QWidget10setVisibleEb
}
{
   <insert_a_suppression_name_here>
   Memcheck:Leak
   fun:malloc_zone_calloc
   fun:attachMethodLists
   fun:realizeClass
   fun:prepareForMethodLookup
   fun:lookUpMethod
   fun:objc_msgSend
   fun:-[NSCell init]
   fun:-[NSControl initWithFrame:]
   fun:-[NSView init]
   fun:-[QCocoaView initWithQWidget:widgetPrivate:]
   fun:_Z20qt_mac_create_widgetP7QWidgetP14QWidgetPrivateP6NSView
   fun:_ZN14QWidgetPrivate10create_sysElbb
}
{
   <insert_a_suppression_name_here>
   Memcheck:Leak
   fun:malloc_zone_calloc
   fun:attachMethodLists
   fun:realizeClass
   fun:_class_getNonMetaClass
   fun:_class_initialize
   fun:prepareForMethodLookup
   fun:lookUpMethod
   fun:objc_msgSend
   fun:-[NSCell init]
   fun:-[NSControl initWithFrame:]
   fun:-[NSView init]
   fun:-[QCocoaView initWithQWidget:widgetPrivate:]
}
{
   <insert_a_suppression_name_here>
   Memcheck:Leak
   fun:malloc_zone_calloc
   fun:attachMethodLists
   fun:realizeClass
   fun:prepareForMethodLookup
   fun:lookUpMethod
   fun:objc_msgSend
   fun:_ZL20qt_mac_create_windowP7QWidgetjmRK5QRect
   fun:_ZN14QWidgetPrivate16createWindow_sysEv
   fun:_Z17qt_mac_window_forPK7QWidget
   fun:_ZN14QWidgetPrivate12setModal_sysEv
   fun:_ZN7QWidget6createElbb
   fun:_ZN7QWidget10setVisibleEb
}
{
   <insert_a_suppression_name_here>
   Memcheck:Leak
   fun:malloc_zone_calloc
   fun:attachMethodLists
   fun:realizeClass
   fun:_class_getNonMetaClass
   fun:_class_initialize
   fun:prepareForMethodLookup
   fun:lookUpMethod
   fun:objc_msgSend
   fun:_ZL20qt_mac_create_windowP7QWidgetjmRK5QRect
   fun:_ZN14QWidgetPrivate16createWindow_sysEv
   fun:_Z17qt_mac_window_forPK7QWidget
   fun:_ZN14QWidgetPrivate12setModal_sysEv
}
{
   <insert_a_suppression_name_here>
   Memcheck:Leak
   fun:malloc_zone_calloc
   fun:attachMethodLists
   fun:realizeClass
   fun:realizeClass
   fun:realizeClass
   fun:prepareForMethodLookup
   fun:lookUpMethod
   fun:objc_msgSend
   fun:-[NSThemeFrame newCloseButton]
   fun:-[NSThemeFrame _updateButtons]
   fun:-[NSThemeFrame initWithFrame:styleMask:owner:]
   fun:-[NSWindow _commonInitFrame:styleMask:backing:defer:]
}
{
   <insert_a_suppression_name_here>
   Memcheck:Leak
   fun:malloc_zone_malloc
   fun:buildProtocolList
   fun:realizeClass
   fun:realizeClass
   fun:realizeClass
   fun:prepareForMethodLookup
   fun:lookUpMethod
   fun:objc_msgSend
   fun:-[NSThemeFrame newCloseButton]
   fun:-[NSThemeFrame _updateButtons]
   fun:-[NSThemeFrame initWithFrame:styleMask:owner:]
   fun:-[NSWindow _commonInitFrame:styleMask:backing:defer:]
}
{
   <insert_a_suppression_name_here>
   Memcheck:Leak
   fun:malloc_zone_calloc
   fun:attachMethodLists
   fun:realizeClass
   fun:realizeClass
   fun:prepareForMethodLookup
   fun:lookUpMethod
   fun:objc_msgSend
   fun:-[NSThemeFrame newCloseButton]
   fun:-[NSThemeFrame _updateButtons]
   fun:-[NSThemeFrame initWithFrame:styleMask:owner:]
   fun:-[NSWindow _commonInitFrame:styleMask:backing:defer:]
   fun:-[NSWindow _initContent:styleMask:backing:defer:contentView:]
}
{
   <insert_a_suppression_name_here>
   Memcheck:Leak
   fun:malloc_zone_calloc
   fun:attachMethodLists
   fun:realizeClass
   fun:prepareForMethodLookup
   fun:lookUpMethod
   fun:objc_msgSend
   fun:-[NSThemeFrame newCloseButton]
   fun:-[NSThemeFrame _updateButtons]
   fun:-[NSThemeFrame initWithFrame:styleMask:owner:]
   fun:-[NSWindow _commonInitFrame:styleMask:backing:defer:]
   fun:-[NSWindow _initContent:styleMask:backing:defer:contentView:]
   fun:-[NSWindow initWithContentRect:styleMask:backing:defer:]
}
{
   <insert_a_suppression_name_here>
   Memcheck:Leak
   fun:malloc_zone_malloc
   fun:buildProtocolList
   fun:realizeClass
   fun:realizeClass
   fun:realizeClass
   fun:_class_getNonMetaClass
   fun:_class_initialize
   fun:prepareForMethodLookup
   fun:lookUpMethod
   fun:objc_msgSend
   fun:-[NSThemeFrame newCloseButton]
   fun:-[NSThemeFrame _updateButtons]
}
{
   <insert_a_suppression_name_here>
   Memcheck:Leak
   fun:malloc_zone_calloc
   fun:attachMethodLists
   fun:realizeClass
   fun:realizeClass
   fun:_class_getNonMetaClass
   fun:_class_initialize
   fun:prepareForMethodLookup
   fun:lookUpMethod
   fun:objc_msgSend
   fun:-[NSThemeFrame newCloseButton]
   fun:-[NSThemeFrame _updateButtons]
   fun:-[NSThemeFrame initWithFrame:styleMask:owner:]
}
{
   <insert_a_suppression_name_here>
   Memcheck:Leak
   fun:malloc_zone_calloc
   fun:attachMethodLists
   fun:realizeClass
   fun:_class_getNonMetaClass
   fun:_class_initialize
   fun:prepareForMethodLookup
   fun:lookUpMethod
   fun:objc_msgSend
   fun:-[NSThemeFrame newCloseButton]
   fun:-[NSThemeFrame _updateButtons]
   fun:-[NSThemeFrame initWithFrame:styleMask:owner:]
   fun:-[NSWindow _commonInitFrame:styleMask:backing:defer:]
}
{
   <insert_a_suppression_name_here>
   Memcheck:Leak
   fun:malloc_zone_calloc
   fun:NXHashInsert
   fun:realizeClass
   fun:prepareForMethodLookup
   fun:lookUpMethod
   fun:objc_msgSend
   fun:+[NSButton initialize]
   fun:_class_initialize
   fun:_class_initialize
   fun:_class_initialize
   fun:prepareForMethodLookup
   fun:lookUpMethod
}
{
   <insert_a_suppression_name_here>
   Memcheck:Leak
   fun:malloc_zone_calloc
   fun:attachMethodLists
   fun:realizeClass
   fun:prepareForMethodLookup
   fun:lookUpMethod
   fun:objc_msgSend
   fun:+[_NSThemeWidget initialize]
   fun:_class_initialize
   fun:_class_initialize
   fun:prepareForMethodLookup
   fun:lookUpMethod
   fun:objc_msgSend
}
{
   <insert_a_suppression_name_here>
   Memcheck:Leak
   fun:malloc_zone_calloc
   fun:attachMethodLists
   fun:realizeClass
   fun:prepareForMethodLookup
   fun:lookUpMethod
   fun:objc_msgSend
   fun:+[_NSThemeCloseWidget initialize]
   fun:_class_initialize
   fun:prepareForMethodLookup
   fun:lookUpMethod
   fun:objc_msgSend
   fun:-[NSThemeFrame newCloseButton]
}
{
   <insert_a_suppression_name_here>
   Memcheck:Leak
   fun:malloc_zone_calloc
   fun:attachMethodLists
   fun:realizeClass
   fun:prepareForMethodLookup
   fun:lookUpMethod
   fun:objc_msgSend
   fun:__NSGetMetaFontInstance
   fun:-[NSCell _convertToText:]
   fun:-[NSButtonCell _convertToText:]
   fun:-[NSButtonCell initTextCell:]
   fun:-[_NSThemeWidgetCell initTextCell:]
   fun:-[NSButtonCell init]
}
{
   <insert_a_suppression_name_here>
   Memcheck:Leak
   fun:malloc_zone_calloc
   fun:attachMethodLists
   fun:realizeClass
   fun:_class_getNonMetaClass
   fun:_class_initialize
   fun:prepareForMethodLookup
   fun:lookUpMethod
   fun:objc_msgSend
   fun:__NSGetMetaFontInstance
   fun:-[NSCell _convertToText:]
   fun:-[NSButtonCell _convertToText:]
   fun:-[NSButtonCell initTextCell:]
}
{
   <insert_a_suppression_name_here>
   Memcheck:Leak
   fun:malloc_zone_calloc
   fun:attachMethodLists
   fun:realizeClass
   fun:prepareForMethodLookup
   fun:lookUpMethod
   fun:objc_msgSend
   fun:-[__NSFontTypefaceInfo fontInstanceForFontDescriptor:size:affineTransform:renderingMode:]
   fun:__NSGetMetaFontInstance
   fun:-[NSCell _convertToText:]
   fun:-[NSButtonCell _convertToText:]
   fun:-[NSButtonCell initTextCell:]
   fun:-[_NSThemeWidgetCell initTextCell:]
}
{
   <insert_a_suppression_name_here>
   Memcheck:Leak
   fun:malloc_zone_calloc
   fun:attachMethodLists
   fun:realizeClass
   fun:_class_getNonMetaClass
   fun:_class_initialize
   fun:prepareForMethodLookup
   fun:lookUpMethod
   fun:objc_msgSend
   fun:-[__NSFontTypefaceInfo fontInstanceForFontDescriptor:size:affineTransform:renderingMode:]
   fun:__NSGetMetaFontInstance
   fun:-[NSCell _convertToText:]
   fun:-[NSButtonCell _convertToText:]
}
{
   <insert_a_suppression_name_here>
   Memcheck:Leak
   fun:malloc_zone_calloc
   fun:attachMethodLists
   fun:realizeClass
   fun:prepareForMethodLookup
   fun:lookUpMethod
   fun:objc_msgSend
   fun:-[NSView(NSInternal) _addTrackingRect:owner:userData:assumeInside:useTrackingNum:]
   fun:-[NSThemeFrame _updateMouseTracking]
   fun:-[NSThemeFrame _tileTitlebarAndRedisplay:]
   fun:-[NSThemeFrame initWithFrame:styleMask:owner:]
   fun:-[NSWindow _commonInitFrame:styleMask:backing:defer:]
   fun:-[NSWindow _initContent:styleMask:backing:defer:contentView:]
}
{
   <insert_a_suppression_name_here>
   Memcheck:Leak
   fun:malloc_zone_malloc
   fun:buildProtocolList
   fun:realizeClass
   fun:prepareForMethodLookup
   fun:lookUpMethod
   fun:objc_msgSend
   fun:-[NSView(NSInternal) _addTrackingRect:owner:userData:assumeInside:useTrackingNum:]
   fun:-[NSThemeFrame _updateMouseTracking]
   fun:-[NSThemeFrame _tileTitlebarAndRedisplay:]
   fun:-[NSThemeFrame initWithFrame:styleMask:owner:]
   fun:-[NSWindow _commonInitFrame:styleMask:backing:defer:]
   fun:-[NSWindow _initContent:styleMask:backing:defer:contentView:]
}
{
   <insert_a_suppression_name_here>
   Memcheck:Leak
   fun:malloc_zone_calloc
   fun:attachMethodLists
   fun:realizeClass
   fun:_class_getNonMetaClass
   fun:_class_initialize
   fun:prepareForMethodLookup
   fun:lookUpMethod
   fun:objc_msgSend
   fun:-[NSView(NSInternal) _addTrackingRect:owner:userData:assumeInside:useTrackingNum:]
   fun:-[NSThemeFrame _updateMouseTracking]
   fun:-[NSThemeFrame _tileTitlebarAndRedisplay:]
   fun:-[NSThemeFrame initWithFrame:styleMask:owner:]
}
{
   <insert_a_suppression_name_here>
   Memcheck:Leak
   fun:malloc_zone_malloc
   fun:buildProtocolList
   fun:realizeClass
   fun:_class_getNonMetaClass
   fun:_class_initialize
   fun:prepareForMethodLookup
   fun:lookUpMethod
   fun:objc_msgSend
   fun:-[NSView(NSInternal) _addTrackingRect:owner:userData:assumeInside:useTrackingNum:]
   fun:-[NSThemeFrame _updateMouseTracking]
   fun:-[NSThemeFrame _tileTitlebarAndRedisplay:]
   fun:-[NSThemeFrame initWithFrame:styleMask:owner:]
}
{
   <insert_a_suppression_name_here>
   Memcheck:Leak
   fun:malloc_zone_calloc
   fun:attachMethodLists
   fun:realizeClass
   fun:prepareForMethodLookup
   fun:lookUpMethod
   fun:objc_msgSend
   fun:+[NSAttributedString allocWithZone:]
   fun:-[NSTitledFrame setTitle:]
   fun:-[NSWindow _dosetTitle:andDefeatWrap:]
   fun:_ZN14QWidgetPrivate18setWindowTitle_sysERK7QString
   fun:_ZN14QWidgetPrivate21setWindowTitle_helperERK7QString
   fun:_ZN14QWidgetPrivate16transferChildrenEv
}
{
   <insert_a_suppression_name_here>
   Memcheck:Leak
   fun:malloc_zone_calloc
   fun:attachMethodLists
   fun:realizeClass
   fun:_class_getNonMetaClass
   fun:_class_initialize
   fun:prepareForMethodLookup
   fun:lookUpMethod
   fun:objc_msgSend
   fun:+[NSAttributedString allocWithZone:]
   fun:-[NSTitledFrame setTitle:]
   fun:-[NSWindow _dosetTitle:andDefeatWrap:]
   fun:_ZN14QWidgetPrivate18setWindowTitle_sysERK7QString
}
{
   <insert_a_suppression_name_here>
   Memcheck:Leak
   fun:malloc_zone_calloc
   fun:attachMethodLists
   fun:realizeClass
   fun:realizeClass
   fun:prepareForMethodLookup
   fun:lookUpMethod
   fun:objc_msgSend
   fun:-[NSConcreteAttributedString initWithString:attributes:]
   fun:-[NSTitledFrame setTitle:]
   fun:-[NSWindow _dosetTitle:andDefeatWrap:]
   fun:_ZN14QWidgetPrivate18setWindowTitle_sysERK7QString
   fun:_ZN14QWidgetPrivate21setWindowTitle_helperERK7QString
}
{
   <insert_a_suppression_name_here>
   Memcheck:Leak
   fun:malloc_zone_malloc
   fun:buildProtocolList
   fun:realizeClass
   fun:realizeClass
   fun:prepareForMethodLookup
   fun:lookUpMethod
   fun:objc_msgSend
   fun:-[NSConcreteAttributedString initWithString:attributes:]
   fun:-[NSTitledFrame setTitle:]
   fun:-[NSWindow _dosetTitle:andDefeatWrap:]
   fun:_ZN14QWidgetPrivate18setWindowTitle_sysERK7QString
   fun:_ZN14QWidgetPrivate21setWindowTitle_helperERK7QString
}
{
   <insert_a_suppression_name_here>
   Memcheck:Leak
   fun:malloc_zone_calloc
   fun:attachMethodLists
   fun:realizeClass
   fun:prepareForMethodLookup
   fun:lookUpMethod
   fun:objc_msgSend
   fun:-[NSConcreteAttributedString initWithString:attributes:]
   fun:-[NSTitledFrame setTitle:]
   fun:-[NSWindow _dosetTitle:andDefeatWrap:]
   fun:_ZN14QWidgetPrivate18setWindowTitle_sysERK7QString
   fun:_ZN14QWidgetPrivate21setWindowTitle_helperERK7QString
   fun:_ZN14QWidgetPrivate16transferChildrenEv
}
{
   <insert_a_suppression_name_here>
   Memcheck:Leak
   fun:malloc_zone_calloc
   fun:attachMethodLists
   fun:realizeClass
   fun:realizeClass
   fun:_class_getNonMetaClass
   fun:_class_initialize
   fun:prepareForMethodLookup
   fun:lookUpMethod
   fun:objc_msgSend
   fun:-[NSConcreteAttributedString initWithString:attributes:]
   fun:-[NSTitledFrame setTitle:]
   fun:-[NSWindow _dosetTitle:andDefeatWrap:]
}
{
   <insert_a_suppression_name_here>
   Memcheck:Leak
   fun:malloc_zone_malloc
   fun:buildProtocolList
   fun:realizeClass
   fun:realizeClass
   fun:_class_getNonMetaClass
   fun:_class_initialize
   fun:prepareForMethodLookup
   fun:lookUpMethod
   fun:objc_msgSend
   fun:-[NSConcreteAttributedString initWithString:attributes:]
   fun:-[NSTitledFrame setTitle:]
   fun:-[NSWindow _dosetTitle:andDefeatWrap:]
}
{
   <insert_a_suppression_name_here>
   Memcheck:Leak
   fun:malloc_zone_calloc
   fun:attachMethodLists
   fun:realizeClass
   fun:_class_getNonMetaClass
   fun:_class_initialize
   fun:prepareForMethodLookup
   fun:lookUpMethod
   fun:objc_msgSend
   fun:-[NSConcreteAttributedString initWithString:attributes:]
   fun:-[NSTitledFrame setTitle:]
   fun:-[NSWindow _dosetTitle:andDefeatWrap:]
   fun:_ZN14QWidgetPrivate18setWindowTitle_sysERK7QString
}
{
   <insert_a_suppression_name_here>
   Memcheck:Leak
   fun:malloc_zone_calloc
   fun:attachMethodLists
   fun:realizeClass
   fun:realizeClass
   fun:look_up_class
   fun:NSClassFromString
   fun:_NSAttributeDictionaryClass
   fun:-[NSConcreteAttributedString initWithString:attributes:]
   fun:-[NSTitledFrame setTitle:]
   fun:-[NSWindow _dosetTitle:andDefeatWrap:]
   fun:_ZN14QWidgetPrivate18setWindowTitle_sysERK7QString
   fun:_ZN14QWidgetPrivate21setWindowTitle_helperERK7QString
}
{
   <insert_a_suppression_name_here>
   Memcheck:Leak
   fun:malloc_zone_calloc
   fun:attachMethodLists
   fun:realizeClass
   fun:look_up_class
   fun:NSClassFromString
   fun:_NSAttributeDictionaryClass
   fun:-[NSConcreteAttributedString initWithString:attributes:]
   fun:-[NSTitledFrame setTitle:]
   fun:-[NSWindow _dosetTitle:andDefeatWrap:]
   fun:_ZN14QWidgetPrivate18setWindowTitle_sysERK7QString
   fun:_ZN14QWidgetPrivate21setWindowTitle_helperERK7QString
   fun:_ZN14QWidgetPrivate16transferChildrenEv
}
{
   <insert_a_suppression_name_here>
   Memcheck:Leak
   fun:malloc_zone_calloc
   fun:NXHashInsert
   fun:addRealizedClass
   fun:realizeClass
   fun:look_up_class
   fun:NSClassFromString
   fun:_NSAttributeDictionaryClass
   fun:-[NSConcreteAttributedString initWithString:attributes:]
   fun:-[NSTitledFrame setTitle:]
   fun:-[NSWindow _dosetTitle:andDefeatWrap:]
   fun:_ZN14QWidgetPrivate18setWindowTitle_sysERK7QString
   fun:_ZN14QWidgetPrivate21setWindowTitle_helperERK7QString
}
{
   <insert_a_suppression_name_here>
   Memcheck:Leak
   fun:malloc_zone_calloc
   fun:attachMethodLists
   fun:realizeClass
   fun:prepareForMethodLookup
   fun:lookUpMethod
   fun:objc_msgSend
   fun:+[NSAttributeDictionary initialize]
   fun:_class_initialize
   fun:prepareForMethodLookup
   fun:lookUpMethod
   fun:objc_msgSend
   fun:-[NSConcreteAttributedString initWithString:attributes:]
}
{
   <insert_a_suppression_name_here>
   Memcheck:Leak
   fun:malloc_zone_calloc
   fun:attachMethodLists
   fun:realizeClass
   fun:_class_getNonMetaClass
   fun:_class_initialize
   fun:prepareForMethodLookup
   fun:lookUpMethod
   fun:objc_msgSend
   fun:+[NSAttributeDictionary initialize]
   fun:_class_initialize
   fun:prepareForMethodLookup
   fun:lookUpMethod
}
{
   <insert_a_suppression_name_here>
   Memcheck:Leak
   fun:malloc_zone_calloc
   fun:attachMethodLists
   fun:realizeClass
   fun:prepareForMethodLookup
   fun:lookUpMethod
   fun:objc_msgSend
   fun:-[__NSPlaceholderDictionary initWithObjects:forKeys:count:]
   fun:+[NSDictionary dictionary]
   fun:+[NSAttributeDictionary initialize]
   fun:_class_initialize
   fun:prepareForMethodLookup
   fun:lookUpMethod
}
{
   <insert_a_suppression_name_here>
   Memcheck:Leak
   fun:malloc_zone_calloc
   fun:attachMethodLists
   fun:realizeClass
   fun:_class_getNonMetaClass
   fun:_class_initialize
   fun:prepareForMethodLookup
   fun:lookUpMethod
   fun:objc_msgSend
   fun:-[__NSPlaceholderDictionary initWithObjects:forKeys:count:]
   fun:+[NSDictionary dictionary]
   fun:+[NSAttributeDictionary initialize]
   fun:_class_initialize
}
{
   <insert_a_suppression_name_here>
   Memcheck:Leak
   fun:calloc
   fun:_internal_class_createInstanceFromZone
   fun:+[NSObject(NSObject) allocWithZone:]
   fun:+[NSDictionary allocWithZone:]
   fun:-[__NSPlaceholderDictionary initWithObjects:forKeys:count:]
   fun:+[NSDictionary dictionary]
   fun:+[NSAttributeDictionary initialize]
   fun:_class_initialize
   fun:prepareForMethodLookup
   fun:lookUpMethod
   fun:objc_msgSend
   fun:-[NSConcreteAttributedString initWithString:attributes:]
}
{
   <insert_a_suppression_name_here>
   Memcheck:Leak
   fun:malloc_zone_calloc
   fun:attachMethodLists
   fun:realizeClass
   fun:prepareForMethodLookup
   fun:lookUpMethod
   fun:objc_msgSend
   fun:-[NSFrameView titleCell]
   fun:-[NSTitledFrame setTitle:]
   fun:-[NSWindow _dosetTitle:andDefeatWrap:]
   fun:_ZN14QWidgetPrivate18setWindowTitle_sysERK7QString
   fun:_ZN14QWidgetPrivate21setWindowTitle_helperERK7QString
   fun:_ZN14QWidgetPrivate16transferChildrenEv
}
{
   <insert_a_suppression_name_here>
   Memcheck:Leak
   fun:malloc_zone_calloc
   fun:attachMethodLists
   fun:realizeClass
   fun:realizeClass
   fun:prepareForMethodLookup
   fun:lookUpMethod
   fun:objc_msgSend
   fun:__+[NSColor whiteDeviceColor]_block_invoke_1
   fun:_NSFaultingObjectWithStorageLocationNewObjectProviderBlockAndCleanup
   fun:+[NSColor whiteDeviceColor]
   fun:-[NSDynamicSystemColor recacheColor]
   fun:-[NSDynamicSystemColor initWithSelector:]
}
{
   <insert_a_suppression_name_here>
   Memcheck:Leak
   fun:malloc_zone_calloc
   fun:NXHashInsert
   fun:realizeClass
   fun:realizeClass
   fun:prepareForMethodLookup
   fun:lookUpMethod
   fun:objc_msgSend
   fun:__+[NSColor whiteDeviceColor]_block_invoke_1
   fun:_NSFaultingObjectWithStorageLocationNewObjectProviderBlockAndCleanup
   fun:+[NSColor whiteDeviceColor]
   fun:-[NSDynamicSystemColor recacheColor]
   fun:-[NSDynamicSystemColor initWithSelector:]
}
{
   <insert_a_suppression_name_here>
   Memcheck:Leak
   fun:malloc_zone_calloc
   fun:attachMethodLists
   fun:realizeClass
   fun:prepareForMethodLookup
   fun:lookUpMethod
   fun:objc_msgSend
   fun:__+[NSColor whiteDeviceColor]_block_invoke_1
   fun:_NSFaultingObjectWithStorageLocationNewObjectProviderBlockAndCleanup
   fun:+[NSColor whiteDeviceColor]
   fun:-[NSDynamicSystemColor recacheColor]
   fun:-[NSDynamicSystemColor initWithSelector:]
   fun:+[NSColor textBackgroundColor]
}
{
   <insert_a_suppression_name_here>
   Memcheck:Leak
   fun:malloc_zone_calloc
   fun:attachMethodLists
   fun:realizeClass
   fun:realizeClass
   fun:_class_getNonMetaClass
   fun:_class_initialize
   fun:prepareForMethodLookup
   fun:lookUpMethod
   fun:objc_msgSend
   fun:__+[NSColor whiteDeviceColor]_block_invoke_1
   fun:_NSFaultingObjectWithStorageLocationNewObjectProviderBlockAndCleanup
   fun:+[NSColor whiteDeviceColor]
}
{
   <insert_a_suppression_name_here>
   Memcheck:Leak
   fun:malloc_zone_calloc
   fun:attachMethodLists
   fun:realizeClass
   fun:_class_getNonMetaClass
   fun:_class_initialize
   fun:prepareForMethodLookup
   fun:lookUpMethod
   fun:objc_msgSend
   fun:__+[NSColor whiteDeviceColor]_block_invoke_1
   fun:_NSFaultingObjectWithStorageLocationNewObjectProviderBlockAndCleanup
   fun:+[NSColor whiteDeviceColor]
   fun:-[NSDynamicSystemColor recacheColor]
}
{
   <insert_a_suppression_name_here>
   Memcheck:Leak
   fun:malloc_zone_calloc
   fun:NXHashInsert
   fun:addRealizedClass
   fun:realizeClass
   fun:_class_getNonMetaClass
   fun:_class_initialize
   fun:prepareForMethodLookup
   fun:lookUpMethod
   fun:objc_msgSend
   fun:__+[NSColor whiteDeviceColor]_block_invoke_1
   fun:_NSFaultingObjectWithStorageLocationNewObjectProviderBlockAndCleanup
   fun:+[NSColor whiteDeviceColor]
}
{
   <insert_a_suppression_name_here>
   Memcheck:Leak
   fun:malloc_zone_calloc
   fun:attachMethodLists
   fun:realizeClass
   fun:realizeClass
   fun:prepareForMethodLookup
   fun:lookUpMethod
   fun:objc_msgSend
   fun:-[NSWindow standardWindowButton:]
   fun:_ZN14QWidgetPrivate17setWindowIcon_sysEb
   fun:_ZN7QWidget6createElbb
   fun:_ZN7QWidget10setVisibleEb
   fun:_ZN7QWidget4showEv
}
{
   <insert_a_suppression_name_here>
   Memcheck:Leak
   fun:malloc_zone_calloc
   fun:attachMethodLists
   fun:realizeClass
   fun:prepareForMethodLookup
   fun:lookUpMethod
   fun:objc_msgSend
   fun:-[NSWindow standardWindowButton:]
   fun:_ZN14QWidgetPrivate17setWindowIcon_sysEb
   fun:_ZN7QWidget6createElbb
   fun:_ZN7QWidget10setVisibleEb
   fun:_ZN7QWidget4showEv
   fun:main
}
{
   <insert_a_suppression_name_here>
   Memcheck:Leak
   fun:malloc_zone_calloc
   fun:attachMethodLists
   fun:realizeClass
   fun:realizeClass
   fun:_class_getNonMetaClass
   fun:_class_initialize
   fun:prepareForMethodLookup
   fun:lookUpMethod
   fun:objc_msgSend
   fun:-[NSWindow standardWindowButton:]
   fun:_ZN14QWidgetPrivate17setWindowIcon_sysEb
   fun:_ZN7QWidget6createElbb
}
{
   <insert_a_suppression_name_here>
   Memcheck:Leak
   fun:malloc_zone_calloc
   fun:attachMethodLists
   fun:realizeClass
   fun:prepareForMethodLookup
   fun:lookUpMethod
   fun:objc_msgSend
   fun:+[NSThemeDocumentButton initialize]
   fun:_class_initialize
   fun:prepareForMethodLookup
   fun:lookUpMethod
   fun:objc_msgSend
   fun:-[NSWindow standardWindowButton:]
}
{
   <insert_a_suppression_name_here>
   Memcheck:Leak
   fun:malloc_zone_calloc
   fun:attachMethodLists
   fun:realizeClass
   fun:prepareForMethodLookup
   fun:lookUpMethod
   fun:objc_msgSend
   fun:+[NSWindow standardWindowButton:forStyleMask:]
   fun:-[NSThemeFrame newFileButton]
   fun:-[NSThemeFrame setRepresentedURL:]
   fun:_ZN14QWidgetPrivate17setWindowIcon_sysEb
   fun:_ZN7QWidget6createElbb
   fun:_ZN7QWidget10setVisibleEb
}
{
   <insert_a_suppression_name_here>
   Memcheck:Leak
   fun:malloc_zone_calloc
   fun:attachMethodLists
   fun:realizeClass
   fun:prepareForMethodLookup
   fun:lookUpMethod
   fun:objc_msgSend
   fun:+[NSApplication initialize]
   fun:_class_initialize
   fun:_class_initialize
   fun:prepareForMethodLookup
   fun:lookUpMethod
   fun:_objc_fixupMessageRef
}
{
   <insert_a_suppression_name_here>
   Memcheck:Leak
   fun:malloc_zone_calloc
   fun:attachMethodLists
   fun:realizeClass
   fun:realizeClass
   fun:prepareForMethodLookup
   fun:lookUpMethod
   fun:objc_msgSend
   fun:-[NSNotificationCenter postNotificationName:object:userInfo:]
   fun:+[NSApplication _initializeRegisteredDefaults]
   fun:+[NSApplication initialize]
   fun:_class_initialize
   fun:_class_initialize
}
{
   <insert_a_suppression_name_here>
   Memcheck:Leak
   fun:malloc_zone_malloc
   fun:buildProtocolList
   fun:realizeClass
   fun:realizeClass
   fun:prepareForMethodLookup
   fun:lookUpMethod
   fun:objc_msgSend
   fun:-[NSNotificationCenter postNotificationName:object:userInfo:]
   fun:+[NSApplication _initializeRegisteredDefaults]
   fun:+[NSApplication initialize]
   fun:_class_initialize
   fun:_class_initialize
}
{
   <insert_a_suppression_name_here>
   Memcheck:Leak
   fun:malloc_zone_calloc
   fun:attachMethodLists
   fun:realizeClass
   fun:prepareForMethodLookup
   fun:lookUpMethod
   fun:objc_msgSend
   fun:-[NSNotificationCenter postNotificationName:object:userInfo:]
   fun:+[NSApplication _initializeRegisteredDefaults]
   fun:+[NSApplication initialize]
   fun:_class_initialize
   fun:_class_initialize
   fun:prepareForMethodLookup
}
{
   <insert_a_suppression_name_here>
   Memcheck:Leak
   fun:malloc_zone_malloc
   fun:buildProtocolList
   fun:realizeClass
   fun:realizeClass
   fun:_class_getNonMetaClass
   fun:_class_initialize
   fun:prepareForMethodLookup
   fun:lookUpMethod
   fun:objc_msgSend
   fun:-[NSNotificationCenter postNotificationName:object:userInfo:]
   fun:+[NSApplication _initializeRegisteredDefaults]
   fun:+[NSApplication initialize]
}
{
   <insert_a_suppression_name_here>
   Memcheck:Leak
   fun:malloc_zone_calloc
   fun:attachMethodLists
   fun:realizeClass
   fun:_class_getNonMetaClass
   fun:_class_initialize
   fun:prepareForMethodLookup
   fun:lookUpMethod
   fun:objc_msgSend
   fun:-[NSNotificationCenter postNotificationName:object:userInfo:]
   fun:+[NSApplication _initializeRegisteredDefaults]
   fun:+[NSApplication initialize]
   fun:_class_initialize
}
{
   <insert_a_suppression_name_here>
   Memcheck:Leak
   fun:malloc_zone_malloc
   fun:buildProtocolList
   fun:realizeClass
   fun:realizeClass
   fun:realizeClass
   fun:realizeClass
   fun:look_up_class
   fun:NSClassFromString
   fun:+[NSApplication initialize]
   fun:_class_initialize
   fun:_class_initialize
   fun:prepareForMethodLookup
}
{
   <insert_a_suppression_name_here>
   Memcheck:Leak
   fun:malloc_zone_malloc
   fun:buildProtocolList
   fun:realizeClass
   fun:realizeClass
   fun:realizeClass
   fun:look_up_class
   fun:NSClassFromString
   fun:+[NSApplication initialize]
   fun:_class_initialize
   fun:_class_initialize
   fun:prepareForMethodLookup
   fun:lookUpMethod
}
{
   <insert_a_suppression_name_here>
   Memcheck:Leak
   fun:malloc_zone_calloc
   fun:attachMethodLists
   fun:realizeClass
   fun:realizeClass
   fun:realizeClass
   fun:look_up_class
   fun:NSClassFromString
   fun:+[NSApplication initialize]
   fun:_class_initialize
   fun:_class_initialize
   fun:prepareForMethodLookup
   fun:lookUpMethod
}
{
   <insert_a_suppression_name_here>
   Memcheck:Leak
   fun:malloc_zone_calloc
   fun:attachMethodLists
   fun:realizeClass
   fun:realizeClass
   fun:look_up_class
   fun:NSClassFromString
   fun:+[NSApplication initialize]
   fun:_class_initialize
   fun:_class_initialize
   fun:prepareForMethodLookup
   fun:lookUpMethod
   fun:_objc_fixupMessageRef
}
{
   <insert_a_suppression_name_here>
   Memcheck:Leak
   fun:malloc_zone_calloc
   fun:attachMethodLists
   fun:realizeClass
   fun:realizeClass
   fun:look_up_class
   fun:NSClassFromString
   fun:+[NSApplication initialize]
   fun:_class_initialize
   fun:_class_initialize
   fun:prepareForMethodLookup
   fun:lookUpMethod
   fun:_objc_fixupMessageRef
}
{
   <insert_a_suppression_name_here>
   Memcheck:Leak
   fun:malloc_zone_calloc
   fun:attachMethodLists
   fun:realizeClass
   fun:look_up_class
   fun:NSClassFromString
   fun:+[NSApplication initialize]
   fun:_class_initialize
   fun:_class_initialize
   fun:prepareForMethodLookup
   fun:lookUpMethod
   fun:_objc_fixupMessageRef
   fun:objc_msgSend_fixup
}
{
   <insert_a_suppression_name_here>
   Memcheck:Leak
   fun:malloc_zone_calloc
   fun:attachMethodLists
   fun:realizeClass
   fun:prepareForMethodLookup
   fun:lookUpMethod
   fun:objc_msgSend
   fun:+[NSDynamicSystemColor initialize]
   fun:_class_initialize
   fun:prepareForMethodLookup
   fun:lookUpMethod
   fun:objc_msgSend
   fun:+[NSApplication initialize]
}
{
   <insert_a_suppression_name_here>
   Memcheck:Leak
   fun:malloc_zone_calloc
   fun:attachMethodLists
   fun:realizeClass
   fun:_class_getNonMetaClass
   fun:_class_initialize
   fun:prepareForMethodLookup
   fun:lookUpMethod
   fun:objc_msgSend
   fun:+[NSDynamicSystemColor initialize]
   fun:_class_initialize
   fun:prepareForMethodLookup
   fun:lookUpMethod
}
{
   <insert_a_suppression_name_here>
   Memcheck:Leak
   fun:malloc_zone_calloc
   fun:attachMethodLists
   fun:realizeClass
   fun:realizeClass
   fun:look_up_class
   fun:NSClassFromString
   fun:+[NSDistributedNotificationCenter notificationCenterForType:]
   fun:+[NSDynamicSystemColor initialize]
   fun:_class_initialize
   fun:prepareForMethodLookup
   fun:lookUpMethod
   fun:objc_msgSend
}
{
   <insert_a_suppression_name_here>
   Memcheck:Leak
   fun:malloc_zone_calloc
   fun:attachMethodLists
   fun:realizeClass
   fun:look_up_class
   fun:NSClassFromString
   fun:+[NSDistributedNotificationCenter notificationCenterForType:]
   fun:+[NSDynamicSystemColor initialize]
   fun:_class_initialize
   fun:prepareForMethodLookup
   fun:lookUpMethod
   fun:objc_msgSend
   fun:+[NSApplication initialize]
}
{
   <insert_a_suppression_name_here>
   Memcheck:Leak
   fun:malloc_zone_calloc
   fun:attachMethodLists
   fun:realizeClass
   fun:realizeClass
   fun:prepareForMethodLookup
   fun:lookUpMethod
   fun:objc_msgSend
   fun:+[NSApplication initialize]
   fun:_class_initialize
   fun:_class_initialize
   fun:prepareForMethodLookup
   fun:lookUpMethod
}
{
   <insert_a_suppression_name_here>
   Memcheck:Leak
   fun:malloc_zone_calloc
   fun:attachMethodLists
   fun:realizeClass
   fun:prepareForMethodLookup
   fun:lookUpMethod
   fun:objc_msgSend
   fun:+[NSApplication initialize]
   fun:_class_initialize
   fun:_class_initialize
   fun:prepareForMethodLookup
   fun:lookUpMethod
   fun:_objc_fixupMessageRef
}
{
   <insert_a_suppression_name_here>
   Memcheck:Leak
   fun:malloc_zone_calloc
   fun:attachMethodLists
   fun:realizeClass
   fun:_class_getNonMetaClass
   fun:_class_initialize
   fun:prepareForMethodLookup
   fun:lookUpMethod
   fun:objc_msgSend
   fun:+[NSApplication initialize]
   fun:_class_initialize
   fun:_class_initialize
   fun:prepareForMethodLookup
}
{
   <insert_a_suppression_name_here>
   Memcheck:Leak
   fun:malloc_zone_calloc
   fun:attachMethodLists
   fun:realizeClass
   fun:realizeClass
   fun:prepareForMethodLookup
   fun:lookUpMethod
   fun:objc_msgSend
   fun:__+[NSColor redColor]_block_invoke_1
   fun:_NSFaultingObjectWithStorageLocationNewObjectProviderBlockAndCleanup
   fun:+[NSColor redColor]
   fun:+[NSApplication initialize]
   fun:_class_initialize
}
{
   <insert_a_suppression_name_here>
   Memcheck:Leak
   fun:malloc_zone_calloc
   fun:attachMethodLists
   fun:realizeClass
   fun:prepareForMethodLookup
   fun:lookUpMethod
   fun:objc_msgSend
   fun:__+[NSColor redColor]_block_invoke_1
   fun:_NSFaultingObjectWithStorageLocationNewObjectProviderBlockAndCleanup
   fun:+[NSColor redColor]
   fun:+[NSApplication initialize]
   fun:_class_initialize
   fun:_class_initialize
}
{
   <insert_a_suppression_name_here>
   Memcheck:Leak
   fun:malloc_zone_calloc
   fun:attachMethodLists
   fun:realizeClass
   fun:realizeClass
   fun:_class_getNonMetaClass
   fun:_class_initialize
   fun:prepareForMethodLookup
   fun:lookUpMethod
   fun:objc_msgSend
   fun:__+[NSColor redColor]_block_invoke_1
   fun:_NSFaultingObjectWithStorageLocationNewObjectProviderBlockAndCleanup
   fun:+[NSColor redColor]
}
{
   <insert_a_suppression_name_here>
   Memcheck:Leak
   fun:malloc_zone_calloc
   fun:attachMethodLists
   fun:realizeClass
   fun:_class_getNonMetaClass
   fun:_class_initialize
   fun:prepareForMethodLookup
   fun:lookUpMethod
   fun:objc_msgSend
   fun:__+[NSColor redColor]_block_invoke_1
   fun:_NSFaultingObjectWithStorageLocationNewObjectProviderBlockAndCleanup
   fun:+[NSColor redColor]
   fun:+[NSApplication initialize]
}
{
   <insert_a_suppression_name_here>
   Memcheck:Leak
   fun:malloc_zone_calloc
   fun:attachMethodLists
   fun:realizeClass
   fun:prepareForMethodLookup
   fun:lookUpMethod
   fun:objc_msgSend
   fun:_NSPlaceholderValueOrNumber
   fun:_class_initialize
   fun:_class_initialize
   fun:_class_initialize
   fun:prepareForMethodLookup
   fun:lookUpMethod
}
{
   <insert_a_suppression_name_here>
   Memcheck:Leak
   fun:malloc_zone_calloc
   fun:attachMethodLists
   fun:realizeClass
   fun:_class_getNonMetaClass
   fun:_class_initialize
   fun:prepareForMethodLookup
   fun:lookUpMethod
   fun:objc_msgSend
   fun:_NSPlaceholderValueOrNumber
   fun:_class_initialize
   fun:_class_initialize
   fun:_class_initialize
}
{
   <insert_a_suppression_name_here>
   Memcheck:Leak
   fun:calloc
   fun:_internal_class_createInstanceFromZone
   fun:NSAllocateObject
   fun:_NSPlaceholderValueOrNumber
   fun:_class_initialize
   fun:_class_initialize
   fun:_class_initialize
   fun:prepareForMethodLookup
   fun:lookUpMethod
   fun:objc_msgSend
   fun:-[NSApplication _setSpacesSwitchOnActivation]
   fun:-[NSApplication init]
}
{
   <insert_a_suppression_name_here>
   Memcheck:Leak
   fun:malloc_zone_calloc
   fun:attachMethodLists
   fun:realizeClass
   fun:prepareForMethodLookup
   fun:lookUpMethod
   fun:objc_msgSend
   fun:_NSPlaceholderValueOrNumber
   fun:_class_initialize
   fun:_class_initialize
   fun:_class_initialize
   fun:prepareForMethodLookup
   fun:lookUpMethod
}
{
   <insert_a_suppression_name_here>
   Memcheck:Leak
   fun:malloc_zone_calloc
   fun:attachMethodLists
   fun:realizeClass
   fun:_class_getNonMetaClass
   fun:_class_initialize
   fun:prepareForMethodLookup
   fun:lookUpMethod
   fun:objc_msgSend
   fun:_NSPlaceholderValueOrNumber
   fun:_class_initialize
   fun:_class_initialize
   fun:_class_initialize
}
{
   <insert_a_suppression_name_here>
   Memcheck:Leak
   fun:calloc
   fun:_internal_class_createInstanceFromZone
   fun:NSAllocateObject
   fun:_NSPlaceholderValueOrNumber
   fun:_class_initialize
   fun:_class_initialize
   fun:_class_initialize
   fun:prepareForMethodLookup
   fun:lookUpMethod
   fun:objc_msgSend
   fun:-[NSApplication _setSpacesSwitchOnActivation]
   fun:-[NSApplication init]
}
{
   <insert_a_suppression_name_here>
   Memcheck:Leak
   fun:malloc
   fun:CreateEventLoop
   fun:GetMainEventLoop
   fun:GetMainRunLoop
   fun:_HLTBAddEventSourceToMode
   fun:_NSInitializeAppContext
   fun:-[NSApplication init]
   fun:+[NSApplication sharedApplication]
   fun:_Z7qt_initP19QApplicationPrivatei
   fun:_ZN19QApplicationPrivate9constructEv
   fun:_ZN12QApplicationC2ERiPPci
   fun:main
}
{
   <insert_a_suppression_name_here>
   Memcheck:Leak
   fun:malloc_zone_calloc
   fun:attachMethodLists
   fun:realizeClass
   fun:realizeClass
   fun:look_up_class
   fun:objc_getFutureClass
   fun:_CFRuntimeBridgeClasses
   fun:_ZN8HIObject11GetCFTypeIDEv
   fun:_ZN8HIObjectC2EP17OpaqueHIObjectRef
   fun:_ZN13HIApplicationC2EP17OpaqueHIObjectRef
   fun:_ZN13HIApplication12EventHandlerEP25OpaqueEventHandlerCallRefP14OpaqueEventRefPv
   fun:_ZN8HIObject9ConstructEP13HIObjectClassPPS_P17OpaqueHIObjectRef
}
{
   <insert_a_suppression_name_here>
   Memcheck:Leak
   fun:malloc_zone_calloc
   fun:attachMethodLists
   fun:realizeClass
   fun:look_up_class
   fun:objc_getFutureClass
   fun:_CFRuntimeBridgeClasses
   fun:_ZN8HIObject11GetCFTypeIDEv
   fun:_ZN8HIObjectC2EP17OpaqueHIObjectRef
   fun:_ZN13HIApplicationC2EP17OpaqueHIObjectRef
   fun:_ZN13HIApplication12EventHandlerEP25OpaqueEventHandlerCallRefP14OpaqueEventRefPv
   fun:_ZN8HIObject9ConstructEP13HIObjectClassPPS_P17OpaqueHIObjectRef
   fun:_ZN8HIObject6CreateEPK10__CFStringP14OpaqueEventRefPPS_
}
{
   <insert_a_suppression_name_here>
   Memcheck:Leak
   fun:malloc_zone_calloc
   fun:NXHashInsert
   fun:addRealizedClass
   fun:realizeClass
   fun:look_up_class
   fun:objc_getFutureClass
   fun:_CFRuntimeBridgeClasses
   fun:_ZN8HIObject11GetCFTypeIDEv
   fun:_ZN8HIObjectC2EP17OpaqueHIObjectRef
   fun:_ZN13HIApplicationC2EP17OpaqueHIObjectRef
   fun:_ZN13HIApplication12EventHandlerEP25OpaqueEventHandlerCallRefP14OpaqueEventRefPv
   fun:_ZN8HIObject9ConstructEP13HIObjectClassPPS_P17OpaqueHIObjectRef
}
{
   <insert_a_suppression_name_here>
   Memcheck:Leak
   fun:malloc
   fun:_ZN15TEventTypeIndex8AddTypesEmPK13EventTypeSpec
   fun:_ZL18AddHandlersToIndexP14EventTargetRecP10HandlerRecmPK13EventTypeSpec
   fun:_ZL16PushEventHandlerP14EventTargetRecPFiP25OpaqueEventHandlerCallRefP14OpaqueEventRefPvEhmPK13EventTypeSpecS5_PP21OpaqueEventHandlerRef
   fun:InstallEventHandler
   fun:_NSInitializeAppContext
   fun:-[NSApplication init]
   fun:+[NSApplication sharedApplication]
   fun:_Z7qt_initP19QApplicationPrivatei
   fun:_ZN19QApplicationPrivate9constructEv
   fun:_ZN12QApplicationC2ERiPPci
   fun:main
}
{
   <insert_a_suppression_name_here>
   Memcheck:Leak
   fun:malloc_zone_malloc
   fun:buildProtocolList
   fun:realizeClass
   fun:prepareForMethodLookup
   fun:lookUpMethod
   fun:objc_msgSend
   fun:-[NSApplication init]
   fun:+[NSApplication sharedApplication]
   fun:_Z7qt_initP19QApplicationPrivatei
   fun:_ZN19QApplicationPrivate9constructEv
   fun:_ZN12QApplicationC2ERiPPci
   fun:main
}
{
   <insert_a_suppression_name_here>
   Memcheck:Leak
   fun:malloc_zone_malloc
   fun:buildProtocolList
   fun:realizeClass
   fun:_class_getNonMetaClass
   fun:_class_initialize
   fun:prepareForMethodLookup
   fun:lookUpMethod
   fun:objc_msgSend
   fun:-[NSApplication init]
   fun:+[NSApplication sharedApplication]
   fun:_Z7qt_initP19QApplicationPrivatei
   fun:_ZN19QApplicationPrivate9constructEv
}
{
   <insert_a_suppression_name_here>
   Memcheck:Leak
   fun:malloc_zone_calloc
   fun:attachMethodLists
   fun:realizeClass
   fun:prepareForMethodLookup
   fun:lookUpMethod
   fun:objc_msgSend
   fun:+[NSPointerArray allocWithZone:]
   fun:-[NSApplication init]
   fun:+[NSApplication sharedApplication]
   fun:_Z7qt_initP19QApplicationPrivatei
   fun:_ZN19QApplicationPrivate9constructEv
   fun:_ZN12QApplicationC2ERiPPci
}
{
   <insert_a_suppression_name_here>
   Memcheck:Leak
   fun:malloc_zone_calloc
   fun:attachMethodLists
   fun:realizeClass
   fun:_class_getNonMetaClass
   fun:_class_initialize
   fun:prepareForMethodLookup
   fun:lookUpMethod
   fun:objc_msgSend
   fun:+[NSPointerArray allocWithZone:]
   fun:-[NSApplication init]
   fun:+[NSApplication sharedApplication]
   fun:_Z7qt_initP19QApplicationPrivatei
}
{
   <insert_a_suppression_name_here>
   Memcheck:Leak
   fun:malloc_zone_calloc
   fun:attachMethodLists
   fun:realizeClass
   fun:realizeClass
   fun:prepareForMethodLookup
   fun:lookUpMethod
   fun:objc_msgSend
   fun:-[NSConcretePointerArray initWithOptions:]
   fun:-[NSApplication init]
   fun:+[NSApplication sharedApplication]
   fun:_Z7qt_initP19QApplicationPrivatei
   fun:_ZN19QApplicationPrivate9constructEv
}
{
   <insert_a_suppression_name_here>
   Memcheck:Leak
   fun:malloc_zone_malloc
   fun:buildProtocolList
   fun:realizeClass
   fun:realizeClass
   fun:prepareForMethodLookup
   fun:lookUpMethod
   fun:objc_msgSend
   fun:-[NSConcretePointerArray initWithOptions:]
   fun:-[NSApplication init]
   fun:+[NSApplication sharedApplication]
   fun:_Z7qt_initP19QApplicationPrivatei
   fun:_ZN19QApplicationPrivate9constructEv
}
{
   <insert_a_suppression_name_here>
   Memcheck:Leak
   fun:malloc_zone_calloc
   fun:attachMethodLists
   fun:realizeClass
   fun:prepareForMethodLookup
   fun:lookUpMethod
   fun:objc_msgSend
   fun:-[NSConcretePointerArray initWithOptions:]
   fun:-[NSApplication init]
   fun:+[NSApplication sharedApplication]
   fun:_Z7qt_initP19QApplicationPrivatei
   fun:_ZN19QApplicationPrivate9constructEv
   fun:_ZN12QApplicationC2ERiPPci
}
{
   <insert_a_suppression_name_here>
   Memcheck:Leak
   fun:malloc_zone_calloc
   fun:attachMethodLists
   fun:realizeClass
   fun:realizeClass
   fun:_class_getNonMetaClass
   fun:_class_initialize
   fun:prepareForMethodLookup
   fun:lookUpMethod
   fun:objc_msgSend
   fun:-[NSConcretePointerArray initWithOptions:]
   fun:-[NSApplication init]
   fun:+[NSApplication sharedApplication]
}
{
   <insert_a_suppression_name_here>
   Memcheck:Leak
   fun:malloc_zone_malloc
   fun:buildProtocolList
   fun:realizeClass
   fun:realizeClass
   fun:_class_getNonMetaClass
   fun:_class_initialize
   fun:prepareForMethodLookup
   fun:lookUpMethod
   fun:objc_msgSend
   fun:-[NSConcretePointerArray initWithOptions:]
   fun:-[NSApplication init]
   fun:+[NSApplication sharedApplication]
}
{
   <insert_a_suppression_name_here>
   Memcheck:Leak
   fun:malloc_zone_calloc
   fun:attachMethodLists
   fun:realizeClass
   fun:_class_getNonMetaClass
   fun:_class_initialize
   fun:prepareForMethodLookup
   fun:lookUpMethod
   fun:objc_msgSend
   fun:-[NSConcretePointerArray initWithOptions:]
   fun:-[NSApplication init]
   fun:+[NSApplication sharedApplication]
   fun:_Z7qt_initP19QApplicationPrivatei
}
{
   <insert_a_suppression_name_here>
   Memcheck:Leak
   fun:malloc_zone_calloc
   fun:attachMethodLists
   fun:realizeClass
   fun:prepareForMethodLookup
   fun:lookUpMethod
   fun:objc_msgSend
   fun:-[NSApplication init]
   fun:+[NSApplication sharedApplication]
   fun:_Z7qt_initP19QApplicationPrivatei
   fun:_ZN19QApplicationPrivate9constructEv
   fun:_ZN12QApplicationC2ERiPPci
   fun:main
}
{
   <insert_a_suppression_name_here>
   Memcheck:Leak
   fun:malloc_zone_malloc
   fun:buildProtocolList
   fun:realizeClass
   fun:prepareForMethodLookup
   fun:lookUpMethod
   fun:objc_msgSend
   fun:-[NSApplication init]
   fun:+[NSApplication sharedApplication]
   fun:_Z7qt_initP19QApplicationPrivatei
   fun:_ZN19QApplicationPrivate9constructEv
   fun:_ZN12QApplicationC2ERiPPci
   fun:main
}
{
   <insert_a_suppression_name_here>
   Memcheck:Leak
   fun:malloc_zone_calloc
   fun:attachMethodLists
   fun:realizeClass
   fun:_class_getNonMetaClass
   fun:_class_initialize
   fun:prepareForMethodLookup
   fun:lookUpMethod
   fun:objc_msgSend
   fun:-[NSApplication init]
   fun:+[NSApplication sharedApplication]
   fun:_Z7qt_initP19QApplicationPrivatei
   fun:_ZN19QApplicationPrivate9constructEv
}
{
   <insert_a_suppression_name_here>
   Memcheck:Leak
   fun:malloc_zone_malloc
   fun:buildProtocolList
   fun:realizeClass
   fun:_class_getNonMetaClass
   fun:_class_initialize
   fun:prepareForMethodLookup
   fun:lookUpMethod
   fun:objc_msgSend
   fun:-[NSApplication init]
   fun:+[NSApplication sharedApplication]
   fun:_Z7qt_initP19QApplicationPrivatei
   fun:_ZN19QApplicationPrivate9constructEv
}
{
   <insert_a_suppression_name_here>
   Memcheck:Leak
   fun:malloc_zone_calloc
   fun:attachMethodLists
   fun:realizeClass
   fun:realizeClass
   fun:_objc_fixupMessageRef
   fun:objc_msgSend_fixup
   fun:_ZN24QMacCocoaAutoReleasePoolC2Ev
   fun:_Z7qt_initP19QApplicationPrivatei
   fun:_ZN19QApplicationPrivate9constructEv
   fun:_ZN12QApplicationC2ERiPPci
   fun:main
}
{
   <insert_a_suppression_name_here>
   Memcheck:Leak
   fun:malloc_zone_calloc
   fun:attachMethodLists
   fun:realizeClass
   fun:_objc_fixupMessageRef
   fun:objc_msgSend_fixup
   fun:_ZN24QMacCocoaAutoReleasePoolC2Ev
   fun:_Z7qt_initP19QApplicationPrivatei
   fun:_ZN19QApplicationPrivate9constructEv
   fun:_ZN12QApplicationC2ERiPPci
   fun:main
}
{
   <insert_a_suppression_name_here>
   Memcheck:Leak
   fun:malloc_zone_calloc
   fun:attachMethodLists
   fun:realizeClass
   fun:realizeClass
   fun:_objc_fixupMessageRef
   fun:objc_msgSend_fixup
   fun:_Z7qt_initP19QApplicationPrivatei
   fun:_ZN19QApplicationPrivate9constructEv
   fun:_ZN12QApplicationC2ERiPPci
   fun:main
}
{
   <insert_a_suppression_name_here>
   Memcheck:Leak
   fun:malloc_zone_malloc
   fun:buildProtocolList
   fun:realizeClass
   fun:realizeClass
   fun:_objc_fixupMessageRef
   fun:objc_msgSend_fixup
   fun:_Z7qt_initP19QApplicationPrivatei
   fun:_ZN19QApplicationPrivate9constructEv
   fun:_ZN12QApplicationC2ERiPPci
   fun:main
}
{
   <insert_a_suppression_name_here>
   Memcheck:Leak
   fun:malloc_zone_calloc
   fun:attachMethodLists
   fun:realizeClass
   fun:_objc_fixupMessageRef
   fun:objc_msgSend_fixup
   fun:_Z7qt_initP19QApplicationPrivatei
   fun:_ZN19QApplicationPrivate9constructEv
   fun:_ZN12QApplicationC2ERiPPci
   fun:main
}
{
   <insert_a_suppression_name_here>
   Memcheck:Leak
   fun:malloc_zone_malloc
   fun:buildProtocolList
   fun:realizeClass
   fun:_objc_fixupMessageRef
   fun:objc_msgSend_fixup
   fun:_Z7qt_initP19QApplicationPrivatei
   fun:_ZN19QApplicationPrivate9constructEv
   fun:_ZN12QApplicationC2ERiPPci
   fun:main
}
{
   <insert_a_suppression_name_here>
   Memcheck:Leak
   fun:malloc_zone_calloc
   fun:attachMethodLists
   fun:realizeClass
   fun:realizeClass
   fun:realizeClass
   fun:look_up_class
   fun:-[NSCFDictionary keyEnumerator]
   fun:-[NSNotificationCenter(NSNotificationCenterAppKitExtensions) _addObserver:notificationNamesAndSelectorNames:object:onlyIfSelectorIsImplemented:]
   fun:-[NSApplication setDelegate:]
   fun:_Z7qt_initP19QApplicationPrivatei
   fun:_ZN19QApplicationPrivate9constructEv
   fun:_ZN12QApplicationC2ERiPPci
}
{
   <insert_a_suppression_name_here>
   Memcheck:Leak
   fun:malloc_zone_malloc
   fun:buildProtocolList
   fun:realizeClass
   fun:realizeClass
   fun:realizeClass
   fun:look_up_class
   fun:-[NSCFDictionary keyEnumerator]
   fun:-[NSNotificationCenter(NSNotificationCenterAppKitExtensions) _addObserver:notificationNamesAndSelectorNames:object:onlyIfSelectorIsImplemented:]
   fun:-[NSApplication setDelegate:]
   fun:_Z7qt_initP19QApplicationPrivatei
   fun:_ZN19QApplicationPrivate9constructEv
   fun:_ZN12QApplicationC2ERiPPci
}
{
   <insert_a_suppression_name_here>
   Memcheck:Leak
   fun:malloc_zone_calloc
   fun:attachMethodLists
   fun:realizeClass
   fun:realizeClass
   fun:look_up_class
   fun:-[NSCFDictionary keyEnumerator]
   fun:-[NSNotificationCenter(NSNotificationCenterAppKitExtensions) _addObserver:notificationNamesAndSelectorNames:object:onlyIfSelectorIsImplemented:]
   fun:-[NSApplication setDelegate:]
   fun:_Z7qt_initP19QApplicationPrivatei
   fun:_ZN19QApplicationPrivate9constructEv
   fun:_ZN12QApplicationC2ERiPPci
   fun:main
}
{
   <insert_a_suppression_name_here>
   Memcheck:Leak
   fun:malloc_zone_malloc
   fun:buildProtocolList
   fun:realizeClass
   fun:realizeClass
   fun:look_up_class
   fun:-[NSCFDictionary keyEnumerator]
   fun:-[NSNotificationCenter(NSNotificationCenterAppKitExtensions) _addObserver:notificationNamesAndSelectorNames:object:onlyIfSelectorIsImplemented:]
   fun:-[NSApplication setDelegate:]
   fun:_Z7qt_initP19QApplicationPrivatei
   fun:_ZN19QApplicationPrivate9constructEv
   fun:_ZN12QApplicationC2ERiPPci
   fun:main
}
{
   <insert_a_suppression_name_here>
   Memcheck:Leak
   fun:malloc_zone_calloc
   fun:attachMethodLists
   fun:realizeClass
   fun:realizeClass
   fun:look_up_class
   fun:-[NSCFDictionary keyEnumerator]
   fun:-[NSNotificationCenter(NSNotificationCenterAppKitExtensions) _addObserver:notificationNamesAndSelectorNames:object:onlyIfSelectorIsImplemented:]
   fun:-[NSApplication setDelegate:]
   fun:_Z7qt_initP19QApplicationPrivatei
   fun:_ZN19QApplicationPrivate9constructEv
   fun:_ZN12QApplicationC2ERiPPci
   fun:main
}
{
   <insert_a_suppression_name_here>
   Memcheck:Leak
   fun:malloc_zone_calloc
   fun:attachMethodLists
   fun:realizeClass
   fun:look_up_class
   fun:-[NSCFDictionary keyEnumerator]
   fun:-[NSNotificationCenter(NSNotificationCenterAppKitExtensions) _addObserver:notificationNamesAndSelectorNames:object:onlyIfSelectorIsImplemented:]
   fun:-[NSApplication setDelegate:]
   fun:_Z7qt_initP19QApplicationPrivatei
   fun:_ZN19QApplicationPrivate9constructEv
   fun:_ZN12QApplicationC2ERiPPci
   fun:main
}
{
   <insert_a_suppression_name_here>
   Memcheck:Leak
   fun:malloc_zone_calloc
   fun:attachMethodLists
   fun:realizeClass
   fun:prepareForMethodLookup
   fun:lookUpMethod
   fun:objc_msgSend
   fun:_Z7qt_initP19QApplicationPrivatei
   fun:_ZN19QApplicationPrivate9constructEv
   fun:_ZN12QApplicationC2ERiPPci
   fun:main
}
{
   <insert_a_suppression_name_here>
   Memcheck:Leak
   fun:malloc_zone_calloc
   fun:attachMethodLists
   fun:realizeClass
   fun:_class_getNonMetaClass
   fun:_class_initialize
   fun:prepareForMethodLookup
   fun:lookUpMethod
   fun:objc_msgSend
   fun:_Z7qt_initP19QApplicationPrivatei
   fun:_ZN19QApplicationPrivate9constructEv
   fun:_ZN12QApplicationC2ERiPPci
   fun:main
}
{
   <insert_a_suppression_name_here>
   Memcheck:Leak
   fun:malloc_zone_calloc
   fun:attachMethodLists
   fun:realizeClass
   fun:prepareForMethodLookup
   fun:lookUpMethod
   fun:objc_msgSend
   fun:+[NSBundle bundleForClass:]
   fun:+[NSBundle(NSNibLoading) loadNibNamed:owner:]
   fun:_Z7qt_initP19QApplicationPrivatei
   fun:_ZN19QApplicationPrivate9constructEv
   fun:_ZN12QApplicationC2ERiPPci
   fun:main
}
{
   <insert_a_suppression_name_here>
   Memcheck:Leak
   fun:calloc
   fun:_internal_class_createInstanceFromZone
   fun:+[NSObject(NSObject) allocWithZone:]
   fun:+[NSFileManager defaultManager]
   fun:+[NSBundle bundleForClass:]
   fun:+[NSBundle(NSNibLoading) loadNibNamed:owner:]
   fun:_Z7qt_initP19QApplicationPrivatei
   fun:_ZN19QApplicationPrivate9constructEv
   fun:_ZN12QApplicationC2ERiPPci
   fun:main
}
{
   <insert_a_suppression_name_here>
   Memcheck:Leak
   fun:malloc_zone_calloc
   fun:attachMethodLists
   fun:realizeClass
   fun:prepareForMethodLookup
   fun:lookUpMethod
   fun:objc_msgSend
   fun:_convertToFileSystemRepresentation
   fun:_NSResolveSymlinksInPathUsingCache
   fun:-[NSString(NSPathUtilities) _stringByResolvingSymlinksInPathUsingCache:]
   fun:_NSFrameworkPathFromLibraryPath
   fun:+[NSBundle bundleForClass:]
   fun:+[NSBundle(NSNibLoading) loadNibNamed:owner:]
}
{
   <insert_a_suppression_name_here>
   Memcheck:Leak
   fun:malloc_zone_calloc
   fun:attachMethodLists
   fun:realizeClass
   fun:_class_getNonMetaClass
   fun:_class_initialize
   fun:prepareForMethodLookup
   fun:lookUpMethod
   fun:objc_msgSend
   fun:_convertToFileSystemRepresentation
   fun:_NSResolveSymlinksInPathUsingCache
   fun:-[NSString(NSPathUtilities) _stringByResolvingSymlinksInPathUsingCache:]
   fun:_NSFrameworkPathFromLibraryPath
}
{
   <insert_a_suppression_name_here>
   Memcheck:Leak
   fun:malloc_zone_calloc
   fun:attachMethodLists
   fun:realizeClass
   fun:prepareForMethodLookup
   fun:lookUpMethod
   fun:objc_msgSend
   fun:__NSAppKitGetThreadSpecificData
   fun:NSCurrentNibLoadingBundles
   fun:+[NSBundle(NSNibLoadingInternal) pushNibLoadingBundle:]
   fun:+[NSBundle(NSNibLoading) _loadNibFile:nameTable:withZone:ownerBundle:]
   fun:+[NSBundle(NSNibLoading) loadNibNamed:owner:]
   fun:_Z7qt_initP19QApplicationPrivatei
}
{
   <insert_a_suppression_name_here>
   Memcheck:Leak
   fun:malloc_zone_calloc
   fun:attachMethodLists
   fun:realizeClass
   fun:_class_getNonMetaClass
   fun:_class_initialize
   fun:prepareForMethodLookup
   fun:lookUpMethod
   fun:objc_msgSend
   fun:__NSAppKitGetThreadSpecificData
   fun:NSCurrentNibLoadingBundles
   fun:+[NSBundle(NSNibLoadingInternal) pushNibLoadingBundle:]
   fun:+[NSBundle(NSNibLoading) _loadNibFile:nameTable:withZone:ownerBundle:]
}
{
   <insert_a_suppression_name_here>
   Memcheck:Leak
   fun:malloc_zone_calloc
   fun:attachMethodLists
   fun:realizeClass
   fun:prepareForMethodLookup
   fun:lookUpMethod
   fun:objc_msgSend
   fun:+[NSArray allocWithZone:]
   fun:NSCurrentNibLoadingBundles
   fun:+[NSBundle(NSNibLoadingInternal) pushNibLoadingBundle:]
   fun:+[NSBundle(NSNibLoading) _loadNibFile:nameTable:withZone:ownerBundle:]
   fun:+[NSBundle(NSNibLoading) loadNibNamed:owner:]
   fun:_Z7qt_initP19QApplicationPrivatei
}
{
   <insert_a_suppression_name_here>
   Memcheck:Leak
   fun:malloc_zone_calloc
   fun:attachMethodLists
   fun:realizeClass
   fun:_class_getNonMetaClass
   fun:_class_initialize
   fun:prepareForMethodLookup
   fun:lookUpMethod
   fun:objc_msgSend
   fun:+[NSArray allocWithZone:]
   fun:NSCurrentNibLoadingBundles
   fun:+[NSBundle(NSNibLoadingInternal) pushNibLoadingBundle:]
   fun:+[NSBundle(NSNibLoading) _loadNibFile:nameTable:withZone:ownerBundle:]
}
{
   <insert_a_suppression_name_here>
   Memcheck:Leak
   fun:calloc
   fun:_internal_class_createInstanceFromZone
   fun:+[NSObject(NSObject) allocWithZone:]
   fun:+[NSArray allocWithZone:]
   fun:+[__NSPlaceholderArray initialize]
   fun:_class_initialize
   fun:prepareForMethodLookup
   fun:lookUpMethod
   fun:objc_msgSend
   fun:+[NSArray allocWithZone:]
   fun:NSCurrentNibLoadingBundles
   fun:+[NSBundle(NSNibLoadingInternal) pushNibLoadingBundle:]
}
{
   <insert_a_suppression_name_here>
   Memcheck:Leak
   fun:calloc
   fun:_internal_class_createInstanceFromZone
   fun:+[NSObject(NSObject) allocWithZone:]
   fun:+[NSArray allocWithZone:]
   fun:+[__NSPlaceholderArray initialize]
   fun:_class_initialize
   fun:prepareForMethodLookup
   fun:lookUpMethod
   fun:objc_msgSend
   fun:+[NSArray allocWithZone:]
   fun:NSCurrentNibLoadingBundles
   fun:+[NSBundle(NSNibLoadingInternal) pushNibLoadingBundle:]
}
{
   <insert_a_suppression_name_here>
   Memcheck:Leak
   fun:malloc_zone_malloc
   fun:_parseComponents
   fun:_retainedComponentString
   fun:CFURLCopyScheme
   fun:CFURLCreateDataAndPropertiesFromResource
   fun:_CFBundleCopyInfoDictionaryInDirectoryWithVersion
   fun:CFBundleGetInfoDictionary
   fun:_CFBundleCreate
   fun:_CFBundleEnsureBundleExistsForImagePath
   fun:CFBundleGetBundleWithIdentifier
   fun:+[NSBundle bundleWithIdentifier:]
   fun:_NSLocateKitBundle
}
{
   <insert_a_suppression_name_here>
   Memcheck:Leak
   fun:malloc_zone_malloc
   fun:_parseComponents
   fun:_retainedComponentString
   fun:CFURLCopyScheme
   fun:CFURLCreateDataAndPropertiesFromResource
   fun:_CFBundleCopyInfoDictionaryInDirectoryWithVersion
   fun:CFBundleGetInfoDictionary
   fun:_CFBundleCreate
   fun:_CFBundleEnsureBundleExistsForImagePath
   fun:_CFBundleEnsureBundlesExistForImagePaths
   fun:CFBundleGetBundleWithIdentifier
   fun:+[NSBundle bundleWithIdentifier:]
}
{
   <insert_a_suppression_name_here>
   Memcheck:Leak
   fun:malloc_zone_calloc
   fun:attachMethodLists
   fun:realizeClass
   fun:prepareForMethodLookup
   fun:lookUpMethod
   fun:objc_msgSend
   fun:loadNib
   fun:+[NSBundle(NSNibLoading) _loadNibFile:nameTable:withZone:ownerBundle:]
   fun:+[NSBundle(NSNibLoading) loadNibNamed:owner:]
   fun:_Z7qt_initP19QApplicationPrivatei
   fun:_ZN19QApplicationPrivate9constructEv
   fun:_ZN12QApplicationC2ERiPPci
}
{
   <insert_a_suppression_name_here>
   Memcheck:Leak
   fun:malloc_zone_calloc
   fun:attachMethodLists
   fun:realizeClass
   fun:_class_getNonMetaClass
   fun:_class_initialize
   fun:prepareForMethodLookup
   fun:lookUpMethod
   fun:objc_msgSend
   fun:loadNib
   fun:+[NSBundle(NSNibLoading) _loadNibFile:nameTable:withZone:ownerBundle:]
   fun:+[NSBundle(NSNibLoading) loadNibNamed:owner:]
   fun:_Z7qt_initP19QApplicationPrivatei
}
{
   <insert_a_suppression_name_here>
   Memcheck:Leak
   fun:malloc_zone_calloc
   fun:attachMethodLists
   fun:realizeClass
   fun:realizeClass
   fun:look_up_class
   fun:NSClassFromString
   fun:+[NSKeyedUnarchiver initialize]
   fun:_class_initialize
   fun:prepareForMethodLookup
   fun:lookUpMethod
   fun:objc_msgSend
   fun:loadNib
}
{
   <insert_a_suppression_name_here>
   Memcheck:Leak
   fun:malloc_zone_calloc
   fun:attachMethodLists
   fun:realizeClass
   fun:look_up_class
   fun:NSClassFromString
   fun:+[NSKeyedUnarchiver initialize]
   fun:_class_initialize
   fun:prepareForMethodLookup
   fun:lookUpMethod
   fun:objc_msgSend
   fun:loadNib
   fun:+[NSBundle(NSNibLoading) _loadNibFile:nameTable:withZone:ownerBundle:]
}
{
   <insert_a_suppression_name_here>
   Memcheck:Leak
   fun:malloc_zone_calloc
   fun:attachMethodLists
   fun:realizeClass
   fun:realizeClass
   fun:look_up_class
   fun:NSClassFromString
   fun:_decodeObjectBinary
   fun:_decodeObject
   fun:loadNib
   fun:+[NSBundle(NSNibLoading) _loadNibFile:nameTable:withZone:ownerBundle:]
   fun:+[NSBundle(NSNibLoading) loadNibNamed:owner:]
   fun:_Z7qt_initP19QApplicationPrivatei
}
{
   <insert_a_suppression_name_here>
   Memcheck:Leak
   fun:malloc_zone_malloc
   fun:buildProtocolList
   fun:realizeClass
   fun:realizeClass
   fun:look_up_class
   fun:NSClassFromString
   fun:_decodeObjectBinary
   fun:_decodeObject
   fun:loadNib
   fun:+[NSBundle(NSNibLoading) _loadNibFile:nameTable:withZone:ownerBundle:]
   fun:+[NSBundle(NSNibLoading) loadNibNamed:owner:]
   fun:_Z7qt_initP19QApplicationPrivatei
}
{
   <insert_a_suppression_name_here>
   Memcheck:Leak
   fun:malloc_zone_malloc
   fun:buildProtocolList
   fun:realizeClass
   fun:look_up_class
   fun:NSClassFromString
   fun:_decodeObjectBinary
   fun:_decodeObject
   fun:loadNib
   fun:+[NSBundle(NSNibLoading) _loadNibFile:nameTable:withZone:ownerBundle:]
   fun:+[NSBundle(NSNibLoading) loadNibNamed:owner:]
   fun:_Z7qt_initP19QApplicationPrivatei
   fun:_ZN19QApplicationPrivate9constructEv
}
{
   <insert_a_suppression_name_here>
   Memcheck:Leak
   fun:malloc_zone_calloc
   fun:attachMethodLists
   fun:realizeClass
   fun:realizeClass
   fun:look_up_class
   fun:NSClassFromString
   fun:_decodeObjectBinary
   fun:_decodeObject
   fun:-[NSIBObjectData initWithCoder:]
   fun:_decodeObjectBinary
   fun:_decodeObject
   fun:loadNib
}
{
   <insert_a_suppression_name_here>
   Memcheck:Leak
   fun:malloc_zone_malloc
   fun:buildProtocolList
   fun:realizeClass
   fun:realizeClass
   fun:look_up_class
   fun:NSClassFromString
   fun:_decodeObjectBinary
   fun:_decodeObject
   fun:-[NSIBObjectData initWithCoder:]
   fun:_decodeObjectBinary
   fun:_decodeObject
   fun:loadNib
}
{
   <insert_a_suppression_name_here>
   Memcheck:Leak
   fun:malloc_zone_calloc
   fun:attachMethodLists
   fun:realizeClass
   fun:look_up_class
   fun:NSClassFromString
   fun:_decodeObjectBinary
   fun:_decodeObject
   fun:-[NSIBObjectData initWithCoder:]
   fun:_decodeObjectBinary
   fun:_decodeObject
   fun:loadNib
   fun:+[NSBundle(NSNibLoading) _loadNibFile:nameTable:withZone:ownerBundle:]
}
{
   <insert_a_suppression_name_here>
   Memcheck:Leak
   fun:malloc_zone_malloc
   fun:buildProtocolList
   fun:realizeClass
   fun:look_up_class
   fun:NSClassFromString
   fun:_decodeObjectBinary
   fun:_decodeObject
   fun:-[NSIBObjectData initWithCoder:]
   fun:_decodeObjectBinary
   fun:_decodeObject
   fun:loadNib
   fun:+[NSBundle(NSNibLoading) _loadNibFile:nameTable:withZone:ownerBundle:]
}
{
   <insert_a_suppression_name_here>
   Memcheck:Leak
   fun:malloc_zone_calloc
   fun:attachMethodLists
   fun:realizeClass
   fun:prepareForMethodLookup
   fun:lookUpMethod
   fun:objc_msgSend
   fun:+[NSSet allocWithZone:]
   fun:_decodeObjectBinary
   fun:_decodeObject
   fun:-[NSIBObjectData initWithCoder:]
   fun:_decodeObjectBinary
   fun:_decodeObject
}
{
   <insert_a_suppression_name_here>
   Memcheck:Leak
   fun:malloc_zone_calloc
   fun:attachMethodLists
   fun:realizeClass
   fun:_class_getNonMetaClass
   fun:_class_initialize
   fun:prepareForMethodLookup
   fun:lookUpMethod
   fun:objc_msgSend
   fun:+[NSSet allocWithZone:]
   fun:_decodeObjectBinary
   fun:_decodeObject
   fun:-[NSIBObjectData initWithCoder:]
}
{
   <insert_a_suppression_name_here>
   Memcheck:Leak
   fun:calloc
   fun:_internal_class_createInstanceFromZone
   fun:+[NSObject(NSObject) allocWithZone:]
   fun:+[NSSet allocWithZone:]
   fun:+[__NSPlaceholderSet initialize]
   fun:_class_initialize
   fun:prepareForMethodLookup
   fun:lookUpMethod
   fun:objc_msgSend
   fun:+[NSSet allocWithZone:]
   fun:_decodeObjectBinary
   fun:_decodeObject
}
{
   <insert_a_suppression_name_here>
   Memcheck:Leak
   fun:calloc
   fun:_internal_class_createInstanceFromZone
   fun:+[NSObject(NSObject) allocWithZone:]
   fun:+[NSSet allocWithZone:]
   fun:+[__NSPlaceholderSet initialize]
   fun:_class_initialize
   fun:prepareForMethodLookup
   fun:lookUpMethod
   fun:objc_msgSend
   fun:+[NSSet allocWithZone:]
   fun:_decodeObjectBinary
   fun:_decodeObject
}
{
   <insert_a_suppression_name_here>
   Memcheck:Leak
   fun:malloc_zone_calloc
   fun:attachMethodLists
   fun:realizeClass
   fun:prepareForMethodLookup
   fun:lookUpMethod
   fun:objc_msgSend
   fun:-[__NSPlaceholderArray initWithObjects:count:]
   fun:-[NSKeyedUnarchiver _decodeArrayOfObjectsForKey:]
   fun:-[NSSet(NSSet) initWithCoder:]
   fun:_decodeObjectBinary
   fun:_decodeObject
   fun:-[NSIBObjectData initWithCoder:]
}
{
   <insert_a_suppression_name_here>
   Memcheck:Leak
   fun:malloc_zone_calloc
   fun:attachMethodLists
   fun:realizeClass
   fun:_class_getNonMetaClass
   fun:_class_initialize
   fun:prepareForMethodLookup
   fun:lookUpMethod
   fun:objc_msgSend
   fun:-[__NSPlaceholderArray initWithObjects:count:]
   fun:-[NSKeyedUnarchiver _decodeArrayOfObjectsForKey:]
   fun:-[NSSet(NSSet) initWithCoder:]
   fun:_decodeObjectBinary
}
{
   <insert_a_suppression_name_here>
   Memcheck:Leak
   fun:calloc
   fun:_internal_class_createInstanceFromZone
   fun:+[NSObject(NSObject) allocWithZone:]
   fun:+[NSArray allocWithZone:]
   fun:-[__NSPlaceholderArray initWithObjects:count:]
   fun:-[NSKeyedUnarchiver _decodeArrayOfObjectsForKey:]
   fun:-[NSSet(NSSet) initWithCoder:]
   fun:_decodeObjectBinary
   fun:_decodeObject
   fun:-[NSIBObjectData initWithCoder:]
   fun:_decodeObjectBinary
   fun:_decodeObject
}
{
   <insert_a_suppression_name_here>
   Memcheck:Leak
   fun:malloc_zone_calloc
   fun:attachMethodLists
   fun:realizeClass
   fun:realizeClass
   fun:realizeClass
   fun:look_up_class
   fun:NSClassFromString
   fun:_decodeObjectBinary
   fun:-[NSKeyedUnarchiver _decodeArrayOfObjectsForKey:]
   fun:-[NSArray(NSArray) initWithCoder:]
   fun:_decodeObjectBinary
   fun:_decodeObject
}
{
   <insert_a_suppression_name_here>
   Memcheck:Leak
   fun:malloc_zone_malloc
   fun:buildProtocolList
   fun:realizeClass
   fun:realizeClass
   fun:realizeClass
   fun:look_up_class
   fun:NSClassFromString
   fun:_decodeObjectBinary
   fun:-[NSKeyedUnarchiver _decodeArrayOfObjectsForKey:]
   fun:-[NSArray(NSArray) initWithCoder:]
   fun:_decodeObjectBinary
   fun:_decodeObject
}
{
   <insert_a_suppression_name_here>
   Memcheck:Leak
   fun:malloc_zone_calloc
   fun:attachMethodLists
   fun:realizeClass
   fun:realizeClass
   fun:look_up_class
   fun:NSClassFromString
   fun:_decodeObjectBinary
   fun:-[NSKeyedUnarchiver _decodeArrayOfObjectsForKey:]
   fun:-[NSArray(NSArray) initWithCoder:]
   fun:_decodeObjectBinary
   fun:_decodeObject
   fun:-[NSIBObjectData initWithCoder:]
}
{
   <insert_a_suppression_name_here>
   Memcheck:Leak
   fun:malloc_zone_malloc
   fun:buildProtocolList
   fun:realizeClass
   fun:realizeClass
   fun:look_up_class
   fun:NSClassFromString
   fun:_decodeObjectBinary
   fun:-[NSKeyedUnarchiver _decodeArrayOfObjectsForKey:]
   fun:-[NSArray(NSArray) initWithCoder:]
   fun:_decodeObjectBinary
   fun:_decodeObject
   fun:-[NSIBObjectData initWithCoder:]
}
{
   <insert_a_suppression_name_here>
   Memcheck:Leak
   fun:malloc_zone_realloc
   fun:attachMethodLists
   fun:attachCategoryMethods
   fun:realizeClass
   fun:realizeClass
   fun:look_up_class
   fun:NSClassFromString
   fun:_decodeObjectBinary
   fun:_decodeObject
   fun:-[NSNibConnector initWithCoder:]
   fun:-[NSNibOutletConnector initWithCoder:]
   fun:_decodeObjectBinary
}
{
   <insert_a_suppression_name_here>
   Memcheck:Leak
   fun:malloc_zone_calloc
   fun:attachMethodLists
   fun:realizeClass
   fun:realizeClass
   fun:look_up_class
   fun:NSClassFromString
   fun:_decodeObjectBinary
   fun:_decodeObject
   fun:-[NSMenuItem initWithCoder:]
   fun:_decodeObjectBinary
   fun:_decodeObject
   fun:-[NSNibConnector initWithCoder:]
}
{
   <insert_a_suppression_name_here>
   Memcheck:Leak
   fun:malloc_zone_malloc
   fun:buildProtocolList
   fun:realizeClass
   fun:realizeClass
   fun:look_up_class
   fun:NSClassFromString
   fun:_decodeObjectBinary
   fun:_decodeObject
   fun:-[NSMenuItem initWithCoder:]
   fun:_decodeObjectBinary
   fun:_decodeObject
   fun:-[NSNibConnector initWithCoder:]
}
{
   <insert_a_suppression_name_here>
   Memcheck:Leak
   fun:malloc_zone_calloc
   fun:attachMethodLists
   fun:realizeClass
   fun:look_up_class
   fun:NSClassFromString
   fun:_decodeObjectBinary
   fun:_decodeObject
   fun:-[NSMenuItem initWithCoder:]
   fun:_decodeObjectBinary
   fun:_decodeObject
   fun:-[NSNibConnector initWithCoder:]
   fun:-[NSNibOutletConnector initWithCoder:]
}
{
   <insert_a_suppression_name_here>
   Memcheck:Leak
   fun:malloc_zone_malloc
   fun:buildProtocolList
   fun:realizeClass
   fun:look_up_class
   fun:NSClassFromString
   fun:_decodeObjectBinary
   fun:_decodeObject
   fun:-[NSMenuItem initWithCoder:]
   fun:_decodeObjectBinary
   fun:_decodeObject
   fun:-[NSNibConnector initWithCoder:]
   fun:-[NSNibOutletConnector initWithCoder:]
}
{
   <insert_a_suppression_name_here>
   Memcheck:Leak
   fun:malloc_zone_calloc
   fun:attachMethodLists
   fun:realizeClass
   fun:realizeClass
   fun:look_up_class
   fun:NSClassFromString
   fun:-[NSCustomResource awakeAfterUsingCoder:]
   fun:_decodeObjectBinary
   fun:_decodeObject
   fun:-[NSMenuItem initWithCoder:]
   fun:_decodeObjectBinary
   fun:_decodeObject
}
{
   <insert_a_suppression_name_here>
   Memcheck:Leak
   fun:malloc_zone_malloc
   fun:buildProtocolList
   fun:realizeClass
   fun:realizeClass
   fun:look_up_class
   fun:NSClassFromString
   fun:-[NSCustomResource awakeAfterUsingCoder:]
   fun:_decodeObjectBinary
   fun:_decodeObject
   fun:-[NSMenuItem initWithCoder:]
   fun:_decodeObjectBinary
   fun:_decodeObject
}
{
   <insert_a_suppression_name_here>
   Memcheck:Leak
   fun:malloc_zone_malloc
   fun:buildProtocolList
   fun:realizeClass
   fun:look_up_class
   fun:NSClassFromString
   fun:-[NSCustomResource awakeAfterUsingCoder:]
   fun:_decodeObjectBinary
   fun:_decodeObject
   fun:-[NSMenuItem initWithCoder:]
   fun:_decodeObjectBinary
   fun:_decodeObject
   fun:-[NSNibConnector initWithCoder:]
}
{
   <insert_a_suppression_name_here>
   Memcheck:Leak
   fun:malloc_zone_calloc
   fun:attachMethodLists
   fun:realizeClass
   fun:realizeClass
   fun:prepareForMethodLookup
   fun:lookUpMethod
   fun:objc_msgSend
   fun:+[NSImage initialize]
   fun:_class_initialize
   fun:prepareForMethodLookup
   fun:lookUpMethod
   fun:objc_msgSend
}
{
   <insert_a_suppression_name_here>
   Memcheck:Leak
   fun:malloc_zone_malloc
   fun:buildProtocolList
   fun:realizeClass
   fun:realizeClass
   fun:prepareForMethodLookup
   fun:lookUpMethod
   fun:objc_msgSend
   fun:+[NSImage initialize]
   fun:_class_initialize
   fun:prepareForMethodLookup
   fun:lookUpMethod
   fun:objc_msgSend
}
{
   <insert_a_suppression_name_here>
   Memcheck:Leak
   fun:malloc_zone_calloc
   fun:attachMethodLists
   fun:realizeClass
   fun:prepareForMethodLookup
   fun:lookUpMethod
   fun:objc_msgSend
   fun:+[NSImage initialize]
   fun:_class_initialize
   fun:prepareForMethodLookup
   fun:lookUpMethod
   fun:objc_msgSend
   fun:-[NSCustomResource awakeAfterUsingCoder:]
}
{
   <insert_a_suppression_name_here>
   Memcheck:Leak
   fun:malloc_zone_calloc
   fun:attachMethodLists
   fun:realizeClass
   fun:realizeClass
   fun:_class_getNonMetaClass
   fun:_class_initialize
   fun:prepareForMethodLookup
   fun:lookUpMethod
   fun:objc_msgSend
   fun:+[NSImage initialize]
   fun:_class_initialize
   fun:prepareForMethodLookup
}
{
   <insert_a_suppression_name_here>
   Memcheck:Leak
   fun:malloc_zone_malloc
   fun:buildProtocolList
   fun:realizeClass
   fun:realizeClass
   fun:_class_getNonMetaClass
   fun:_class_initialize
   fun:prepareForMethodLookup
   fun:lookUpMethod
   fun:objc_msgSend
   fun:+[NSImage initialize]
   fun:_class_initialize
   fun:prepareForMethodLookup
}
{
   <insert_a_suppression_name_here>
   Memcheck:Leak
   fun:malloc_zone_calloc
   fun:attachMethodLists
   fun:realizeClass
   fun:_class_getNonMetaClass
   fun:_class_initialize
   fun:prepareForMethodLookup
   fun:lookUpMethod
   fun:objc_msgSend
   fun:+[NSImage initialize]
   fun:_class_initialize
   fun:prepareForMethodLookup
   fun:lookUpMethod
}
{
   <insert_a_suppression_name_here>
   Memcheck:Leak
   fun:malloc_zone_calloc
   fun:attachMethodLists
   fun:realizeClass
   fun:prepareForMethodLookup
   fun:lookUpMethod
   fun:objc_msgSend
   fun:+[NSImage initialize]
   fun:_class_initialize
   fun:prepareForMethodLookup
   fun:lookUpMethod
   fun:objc_msgSend
   fun:-[NSCustomResource awakeAfterUsingCoder:]
}
{
   <insert_a_suppression_name_here>
   Memcheck:Leak
   fun:malloc_zone_calloc
   fun:attachMethodLists
   fun:realizeClass
   fun:_class_getNonMetaClass
   fun:_class_initialize
   fun:prepareForMethodLookup
   fun:lookUpMethod
   fun:objc_msgSend
   fun:+[NSImage initialize]
   fun:_class_initialize
   fun:prepareForMethodLookup
   fun:lookUpMethod
}
{
   <insert_a_suppression_name_here>
   Memcheck:Leak
   fun:malloc_zone_calloc
   fun:attachMethodLists
   fun:realizeClass
   fun:prepareForMethodLookup
   fun:lookUpMethod
   fun:objc_msgSend
   fun:+[NSImage initialize]
   fun:_class_initialize
   fun:prepareForMethodLookup
   fun:lookUpMethod
   fun:objc_msgSend
   fun:-[NSCustomResource awakeAfterUsingCoder:]
}
{
   <insert_a_suppression_name_here>
   Memcheck:Leak
   fun:malloc_zone_calloc
   fun:attachMethodLists
   fun:realizeClass
   fun:_class_getNonMetaClass
   fun:_class_initialize
   fun:prepareForMethodLookup
   fun:lookUpMethod
   fun:objc_msgSend
   fun:+[NSImage initialize]
   fun:_class_initialize
   fun:prepareForMethodLookup
   fun:lookUpMethod
}
{
   <insert_a_suppression_name_here>
   Memcheck:Leak
   fun:malloc_zone_calloc
   fun:NXHashInsert
   fun:addRealizedClass
   fun:realizeClass
   fun:_class_getNonMetaClass
   fun:_class_initialize
   fun:prepareForMethodLookup
   fun:lookUpMethod
   fun:objc_msgSend
   fun:+[NSImage initialize]
   fun:_class_initialize
   fun:prepareForMethodLookup
}
{
   <insert_a_suppression_name_here>
   Memcheck:Leak
   fun:malloc_zone_calloc
   fun:attachMethodLists
   fun:realizeClass
   fun:prepareForMethodLookup
   fun:lookUpMethod
   fun:objc_msgSend
   fun:-[NSImage _allocAuxiliaryStorage]
   fun:-[NSImage initWithSize:]
   fun:+[NSImage _findSystemImageNamed:]
   fun:+[NSImage imageNamed:]
   fun:-[NSCustomResource _loadImageWithName:]
   fun:-[NSCustomResource loadImageWithName:]
}
{
   <insert_a_suppression_name_here>
   Memcheck:Leak
   fun:malloc_zone_calloc
   fun:attachMethodLists
   fun:realizeClass
   fun:_class_getNonMetaClass
   fun:_class_initialize
   fun:prepareForMethodLookup
   fun:lookUpMethod
   fun:objc_msgSend
   fun:-[NSImage _allocAuxiliaryStorage]
   fun:-[NSImage initWithSize:]
   fun:+[NSImage _findSystemImageNamed:]
   fun:+[NSImage imageNamed:]
}
{
   <insert_a_suppression_name_here>
   Memcheck:Leak
   fun:malloc_zone_calloc
   fun:attachMethodLists
   fun:realizeClass
   fun:realizeClass
   fun:prepareForMethodLookup
   fun:lookUpMethod
   fun:objc_msgSend
   fun:__+[NSColor clearColor]_block_invoke_1
   fun:_NSFaultingObjectWithStorageLocationNewObjectProviderBlockAndCleanup
   fun:+[NSColor clearColor]
   fun:-[NSImage _allocAuxiliaryStorage]
   fun:-[NSImage initWithSize:]
}
{
   <insert_a_suppression_name_here>
   Memcheck:Leak
   fun:malloc_zone_calloc
   fun:attachMethodLists
   fun:realizeClass
   fun:prepareForMethodLookup
   fun:lookUpMethod
   fun:objc_msgSend
   fun:__+[NSColor clearColor]_block_invoke_1
   fun:_NSFaultingObjectWithStorageLocationNewObjectProviderBlockAndCleanup
   fun:+[NSColor clearColor]
   fun:-[NSImage _allocAuxiliaryStorage]
   fun:-[NSImage initWithSize:]
   fun:+[NSImage _findSystemImageNamed:]
}
{
   <insert_a_suppression_name_here>
   Memcheck:Leak
   fun:malloc_zone_calloc
   fun:attachMethodLists
   fun:realizeClass
   fun:realizeClass
   fun:_class_getNonMetaClass
   fun:_class_initialize
   fun:prepareForMethodLookup
   fun:lookUpMethod
   fun:objc_msgSend
   fun:__+[NSColor clearColor]_block_invoke_1
   fun:_NSFaultingObjectWithStorageLocationNewObjectProviderBlockAndCleanup
   fun:+[NSColor clearColor]
}
{
   <insert_a_suppression_name_here>
   Memcheck:Leak
   fun:malloc_zone_calloc
   fun:attachMethodLists
   fun:realizeClass
   fun:_class_getNonMetaClass
   fun:_class_initialize
   fun:prepareForMethodLookup
   fun:lookUpMethod
   fun:objc_msgSend
   fun:__+[NSColor clearColor]_block_invoke_1
   fun:_NSFaultingObjectWithStorageLocationNewObjectProviderBlockAndCleanup
   fun:+[NSColor clearColor]
   fun:-[NSImage _allocAuxiliaryStorage]
}
{
   <insert_a_suppression_name_here>
   Memcheck:Leak
   fun:malloc_zone_calloc
   fun:attachMethodLists
   fun:realizeClass
   fun:prepareForMethodLookup
   fun:lookUpMethod
   fun:objc_msgSend
   fun:___NSImageNameTable_block_invoke_1
   fun:_NSFaultingObjectWithStorageLocationAndNewObjectProviderBlock
   fun:-[NSImage setName:]
   fun:+[NSImage _findSystemImageNamed:]
   fun:+[NSImage imageNamed:]
   fun:-[NSCustomResource _loadImageWithName:]
}
{
   <insert_a_suppression_name_here>
   Memcheck:Leak
   fun:malloc_zone_malloc
   fun:buildProtocolList
   fun:realizeClass
   fun:prepareForMethodLookup
   fun:lookUpMethod
   fun:objc_msgSend
   fun:___NSImageNameTable_block_invoke_1
   fun:_NSFaultingObjectWithStorageLocationAndNewObjectProviderBlock
   fun:-[NSImage setName:]
   fun:+[NSImage _findSystemImageNamed:]
   fun:+[NSImage imageNamed:]
   fun:-[NSCustomResource _loadImageWithName:]
}
{
   <insert_a_suppression_name_here>
   Memcheck:Leak
   fun:malloc_zone_calloc
   fun:attachMethodLists
   fun:realizeClass
   fun:_class_getNonMetaClass
   fun:_class_initialize
   fun:prepareForMethodLookup
   fun:lookUpMethod
   fun:objc_msgSend
   fun:___NSImageNameTable_block_invoke_1
   fun:_NSFaultingObjectWithStorageLocationAndNewObjectProviderBlock
   fun:-[NSImage setName:]
   fun:+[NSImage _findSystemImageNamed:]
}
{
   <insert_a_suppression_name_here>
   Memcheck:Leak
   fun:malloc_zone_malloc
   fun:buildProtocolList
   fun:realizeClass
   fun:_class_getNonMetaClass
   fun:_class_initialize
   fun:prepareForMethodLookup
   fun:lookUpMethod
   fun:objc_msgSend
   fun:___NSImageNameTable_block_invoke_1
   fun:_NSFaultingObjectWithStorageLocationAndNewObjectProviderBlock
   fun:-[NSImage setName:]
   fun:+[NSImage _findSystemImageNamed:]
}
{
   <insert_a_suppression_name_here>
   Memcheck:Leak
   fun:malloc_zone_calloc
   fun:attachMethodLists
   fun:realizeClass
   fun:prepareForMethodLookup
   fun:lookUpMethod
   fun:objc_msgSend
   fun:+[NSMapTable alloc]
   fun:___NSImageNameTable_block_invoke_1
   fun:_NSFaultingObjectWithStorageLocationAndNewObjectProviderBlock
   fun:-[NSImage setName:]
   fun:+[NSImage _findSystemImageNamed:]
   fun:+[NSImage imageNamed:]
}
{
   <insert_a_suppression_name_here>
   Memcheck:Leak
   fun:malloc_zone_calloc
   fun:attachMethodLists
   fun:realizeClass
   fun:_class_getNonMetaClass
   fun:_class_initialize
   fun:prepareForMethodLookup
   fun:lookUpMethod
   fun:objc_msgSend
   fun:+[NSMapTable alloc]
   fun:___NSImageNameTable_block_invoke_1
   fun:_NSFaultingObjectWithStorageLocationAndNewObjectProviderBlock
   fun:-[NSImage setName:]
}
{
   <insert_a_suppression_name_here>
   Memcheck:Leak
   fun:malloc_zone_calloc
   fun:attachMethodLists
   fun:realizeClass
   fun:prepareForMethodLookup
   fun:lookUpMethod
   fun:objc_msgSend
   fun:-[NSBitmapImageRep _bitmapImageRep_setColorSpaceName:]
   fun:-[NSBitmapImageRep initWithBitmapDataPlanes:pixelsWide:pixelsHigh:bitsPerSample:samplesPerPixel:hasAlpha:isPlanar:colorSpaceName:bitmapFormat:bytesPerRow:bitsPerPixel:]
   fun:-[NSBitmapImageRep _initWithSharedBitmap:rect:]
   fun:-[NSImage _addRepresentationWithSharedKitWindow:rect:]
   fun:+[NSImage _findSystemImageNamed:]
   fun:+[NSImage imageNamed:]
}
{
   <insert_a_suppression_name_here>
   Memcheck:Leak
   fun:malloc_zone_malloc
   fun:buildProtocolList
   fun:realizeClass
   fun:prepareForMethodLookup
   fun:lookUpMethod
   fun:objc_msgSend
   fun:-[NSBitmapImageRep _bitmapImageRep_setColorSpaceName:]
   fun:-[NSBitmapImageRep initWithBitmapDataPlanes:pixelsWide:pixelsHigh:bitsPerSample:samplesPerPixel:hasAlpha:isPlanar:colorSpaceName:bitmapFormat:bytesPerRow:bitsPerPixel:]
   fun:-[NSBitmapImageRep _initWithSharedBitmap:rect:]
   fun:-[NSImage _addRepresentationWithSharedKitWindow:rect:]
   fun:+[NSImage _findSystemImageNamed:]
   fun:+[NSImage imageNamed:]
}
{
   <insert_a_suppression_name_here>
   Memcheck:Leak
   fun:malloc_zone_calloc
   fun:attachMethodLists
   fun:realizeClass
   fun:_class_getNonMetaClass
   fun:_class_initialize
   fun:prepareForMethodLookup
   fun:lookUpMethod
   fun:objc_msgSend
   fun:-[NSBitmapImageRep _bitmapImageRep_setColorSpaceName:]
   fun:-[NSBitmapImageRep initWithBitmapDataPlanes:pixelsWide:pixelsHigh:bitsPerSample:samplesPerPixel:hasAlpha:isPlanar:colorSpaceName:bitmapFormat:bytesPerRow:bitsPerPixel:]
   fun:-[NSBitmapImageRep _initWithSharedBitmap:rect:]
   fun:-[NSImage _addRepresentationWithSharedKitWindow:rect:]
}
{
   <insert_a_suppression_name_here>
   Memcheck:Leak
   fun:malloc_zone_malloc
   fun:buildProtocolList
   fun:realizeClass
   fun:_class_getNonMetaClass
   fun:_class_initialize
   fun:prepareForMethodLookup
   fun:lookUpMethod
   fun:objc_msgSend
   fun:-[NSBitmapImageRep _bitmapImageRep_setColorSpaceName:]
   fun:-[NSBitmapImageRep initWithBitmapDataPlanes:pixelsWide:pixelsHigh:bitsPerSample:samplesPerPixel:hasAlpha:isPlanar:colorSpaceName:bitmapFormat:bytesPerRow:bitsPerPixel:]
   fun:-[NSBitmapImageRep _initWithSharedBitmap:rect:]
   fun:-[NSImage _addRepresentationWithSharedKitWindow:rect:]
}
{
   <insert_a_suppression_name_here>
   Memcheck:Leak
   fun:malloc_zone_calloc
   fun:attachMethodLists
   fun:realizeClass
   fun:prepareForMethodLookup
   fun:lookUpMethod
   fun:objc_msgSend
   fun:-[NSBitmapImageRep initWithBitmapDataPlanes:pixelsWide:pixelsHigh:bitsPerSample:samplesPerPixel:hasAlpha:isPlanar:colorSpaceName:bitmapFormat:bytesPerRow:bitsPerPixel:]
   fun:-[NSBitmapImageRep _initWithSharedBitmap:rect:]
   fun:-[NSImage _addRepresentationWithSharedKitWindow:rect:]
   fun:+[NSImage _findSystemImageNamed:]
   fun:+[NSImage imageNamed:]
   fun:-[NSCustomResource _loadImageWithName:]
}
{
   <insert_a_suppression_name_here>
   Memcheck:Leak
   fun:malloc_zone_calloc
   fun:attachMethodLists
   fun:realizeClass
   fun:_class_getNonMetaClass
   fun:_class_initialize
   fun:prepareForMethodLookup
   fun:lookUpMethod
   fun:objc_msgSend
   fun:-[NSBitmapImageRep initWithBitmapDataPlanes:pixelsWide:pixelsHigh:bitsPerSample:samplesPerPixel:hasAlpha:isPlanar:colorSpaceName:bitmapFormat:bytesPerRow:bitsPerPixel:]
   fun:-[NSBitmapImageRep _initWithSharedBitmap:rect:]
   fun:-[NSImage _addRepresentationWithSharedKitWindow:rect:]
   fun:+[NSImage _findSystemImageNamed:]
}
{
   <insert_a_suppression_name_here>
   Memcheck:Leak
   fun:malloc_zone_calloc
   fun:attachMethodLists
   fun:realizeClass
   fun:prepareForMethodLookup
   fun:lookUpMethod
   fun:objc_msgSend
   fun:_class_initialize
   fun:prepareForMethodLookup
   fun:lookUpMethod
   fun:objc_msgSend
   fun:_decodeObjectBinary
   fun:_decodeObject
}
{
   <insert_a_suppression_name_here>
   Memcheck:Leak
   fun:malloc_zone_calloc
   fun:NXHashInsert
   fun:realizeClass
   fun:prepareForMethodLookup
   fun:lookUpMethod
   fun:objc_msgSend
   fun:_class_initialize
   fun:prepareForMethodLookup
   fun:lookUpMethod
   fun:objc_msgSend
   fun:_decodeObjectBinary
   fun:_decodeObject
}
{
   <insert_a_suppression_name_here>
   Memcheck:Leak
   fun:malloc_zone_calloc
   fun:attachMethodLists
   fun:realizeClass
   fun:_class_getNonMetaClass
   fun:_class_initialize
   fun:prepareForMethodLookup
   fun:lookUpMethod
   fun:objc_msgSend
   fun:_class_initialize
   fun:prepareForMethodLookup
   fun:lookUpMethod
   fun:objc_msgSend
}
{
   <insert_a_suppression_name_here>
   Memcheck:Leak
   fun:malloc_zone_calloc
   fun:attachMethodLists
   fun:realizeClass
   fun:prepareForMethodLookup
   fun:lookUpMethod
   fun:objc_msgSend
   fun:-[NSMenu _createExtraIvars]
   fun:-[NSMenu _menuImpl]
   fun:-[NSMenu setDelegate:]
   fun:-[NSMenu initWithCoder:]
   fun:_decodeObjectBinary
   fun:_decodeObject
}
{
   <insert_a_suppression_name_here>
   Memcheck:Leak
   fun:malloc_zone_calloc
   fun:attachMethodLists
   fun:realizeClass
   fun:_class_getNonMetaClass
   fun:_class_initialize
   fun:prepareForMethodLookup
   fun:lookUpMethod
   fun:objc_msgSend
   fun:-[NSMenu _createExtraIvars]
   fun:-[NSMenu _menuImpl]
   fun:-[NSMenu setDelegate:]
   fun:-[NSMenu initWithCoder:]
}
{
   <insert_a_suppression_name_here>
   Memcheck:Leak
   fun:malloc_zone_calloc
   fun:attachMethodLists
   fun:realizeClass
   fun:prepareForMethodLookup
   fun:lookUpMethod
   fun:objc_msgSend
   fun:NSCreateMapTableWithZone
   fun:-[NSIBObjectData initWithCoder:]
   fun:_decodeObjectBinary
   fun:_decodeObject
   fun:loadNib
   fun:+[NSBundle(NSNibLoading) _loadNibFile:nameTable:withZone:ownerBundle:]
}
{
   <insert_a_suppression_name_here>
   Memcheck:Leak
   fun:malloc_zone_calloc
   fun:attachMethodLists
   fun:realizeClass
   fun:_class_getNonMetaClass
   fun:_class_initialize
   fun:prepareForMethodLookup
   fun:lookUpMethod
   fun:objc_msgSend
   fun:NSCreateMapTableWithZone
   fun:-[NSIBObjectData initWithCoder:]
   fun:_decodeObjectBinary
   fun:_decodeObject
}
{
   <insert_a_suppression_name_here>
   Memcheck:Leak
   fun:malloc_zone_malloc
   fun:buildProtocolList
   fun:realizeClass
   fun:prepareForMethodLookup
   fun:lookUpMethod
   fun:objc_msgSend
   fun:-[NSIBObjectData nibInstantiateWithOwner:topLevelObjects:]
   fun:loadNib
   fun:+[NSBundle(NSNibLoading) _loadNibFile:nameTable:withZone:ownerBundle:]
   fun:+[NSBundle(NSNibLoading) loadNibNamed:owner:]
   fun:_Z7qt_initP19QApplicationPrivatei
   fun:_ZN19QApplicationPrivate9constructEv
}
{
   <insert_a_suppression_name_here>
   Memcheck:Leak
   fun:malloc_zone_calloc
   fun:attachMethodLists
   fun:realizeClass
   fun:_class_getNonMetaClass
   fun:_class_initialize
   fun:prepareForMethodLookup
   fun:lookUpMethod
   fun:objc_msgSend
   fun:-[NSIBObjectData nibInstantiateWithOwner:topLevelObjects:]
   fun:loadNib
   fun:+[NSBundle(NSNibLoading) _loadNibFile:nameTable:withZone:ownerBundle:]
   fun:+[NSBundle(NSNibLoading) loadNibNamed:owner:]
}
{
   <insert_a_suppression_name_here>
   Memcheck:Leak
   fun:malloc_zone_malloc
   fun:buildProtocolList
   fun:realizeClass
   fun:_class_getNonMetaClass
   fun:_class_initialize
   fun:prepareForMethodLookup
   fun:lookUpMethod
   fun:objc_msgSend
   fun:-[NSIBObjectData nibInstantiateWithOwner:topLevelObjects:]
   fun:loadNib
   fun:+[NSBundle(NSNibLoading) _loadNibFile:nameTable:withZone:ownerBundle:]
   fun:+[NSBundle(NSNibLoading) loadNibNamed:owner:]
}
{
   <insert_a_suppression_name_here>
   Memcheck:Leak
   fun:malloc_zone_calloc
   fun:attachMethodLists
   fun:realizeClass
   fun:realizeClass
   fun:prepareForMethodLookup
   fun:lookUpMethod
   fun:objc_msgSend
   fun:-[NSApplication(NSServicesMenuPrivate) setServicesMenu:]
   fun:-[NSMenu _finishedMakingConnections]
   fun:-[NSSet makeObjectsPerformSelector:]
   fun:-[NSIBObjectData nibInstantiateWithOwner:topLevelObjects:]
   fun:loadNib
}
{
   <insert_a_suppression_name_here>
   Memcheck:Leak
   fun:malloc_zone_malloc
   fun:buildProtocolList
   fun:realizeClass
   fun:realizeClass
   fun:prepareForMethodLookup
   fun:lookUpMethod
   fun:objc_msgSend
   fun:-[NSApplication(NSServicesMenuPrivate) setServicesMenu:]
   fun:-[NSMenu _finishedMakingConnections]
   fun:-[NSSet makeObjectsPerformSelector:]
   fun:-[NSIBObjectData nibInstantiateWithOwner:topLevelObjects:]
   fun:loadNib
}
{
   <insert_a_suppression_name_here>
   Memcheck:Leak
   fun:malloc_zone_calloc
   fun:attachMethodLists
   fun:realizeClass
   fun:prepareForMethodLookup
   fun:lookUpMethod
   fun:objc_msgSend
   fun:-[NSApplication(NSServicesMenuPrivate) setServicesMenu:]
   fun:-[NSMenu _finishedMakingConnections]
   fun:-[NSSet makeObjectsPerformSelector:]
   fun:-[NSIBObjectData nibInstantiateWithOwner:topLevelObjects:]
   fun:loadNib
   fun:+[NSBundle(NSNibLoading) _loadNibFile:nameTable:withZone:ownerBundle:]
}
{
   <insert_a_suppression_name_here>
   Memcheck:Leak
   fun:malloc_zone_calloc
   fun:attachMethodLists
   fun:realizeClass
   fun:realizeClass
   fun:_class_getNonMetaClass
   fun:_class_initialize
   fun:prepareForMethodLookup
   fun:lookUpMethod
   fun:objc_msgSend
   fun:-[NSApplication(NSServicesMenuPrivate) setServicesMenu:]
   fun:-[NSMenu _finishedMakingConnections]
   fun:-[NSSet makeObjectsPerformSelector:]
}
{
   <insert_a_suppression_name_here>
   Memcheck:Leak
   fun:malloc_zone_malloc
   fun:buildProtocolList
   fun:realizeClass
   fun:realizeClass
   fun:_class_getNonMetaClass
   fun:_class_initialize
   fun:prepareForMethodLookup
   fun:lookUpMethod
   fun:objc_msgSend
   fun:-[NSApplication(NSServicesMenuPrivate) setServicesMenu:]
   fun:-[NSMenu _finishedMakingConnections]
   fun:-[NSSet makeObjectsPerformSelector:]
}
{
   <insert_a_suppression_name_here>
   Memcheck:Leak
   fun:malloc_zone_calloc
   fun:attachMethodLists
   fun:realizeClass
   fun:_class_getNonMetaClass
   fun:_class_initialize
   fun:prepareForMethodLookup
   fun:lookUpMethod
   fun:objc_msgSend
   fun:-[NSApplication(NSServicesMenuPrivate) setServicesMenu:]
   fun:-[NSMenu _finishedMakingConnections]
   fun:-[NSSet makeObjectsPerformSelector:]
   fun:-[NSIBObjectData nibInstantiateWithOwner:topLevelObjects:]
}
{
   <insert_a_suppression_name_here>
   Memcheck:Leak
   fun:malloc_zone_calloc
   fun:attachMethodLists
   fun:realizeClass
   fun:prepareForMethodLookup
   fun:lookUpMethod
   fun:objc_msgSend
   fun:+[NSMenu(NSKeyEquivalents) _recursivelyRegisterMenuForKeyEquivalentUniquing:]
   fun:-[NSMenu _setMenuName:]
   fun:-[NSMenu _finishedMakingConnections]
   fun:-[NSSet makeObjectsPerformSelector:]
   fun:-[NSIBObjectData nibInstantiateWithOwner:topLevelObjects:]
   fun:loadNib
}
{
   <insert_a_suppression_name_here>
   Memcheck:Leak
   fun:malloc_zone_calloc
   fun:NXHashInsert
   fun:realizeClass
   fun:prepareForMethodLookup
   fun:lookUpMethod
   fun:objc_msgSend
   fun:+[NSMenu(NSKeyEquivalents) _recursivelyRegisterMenuForKeyEquivalentUniquing:]
   fun:-[NSMenu _setMenuName:]
   fun:-[NSMenu _finishedMakingConnections]
   fun:-[NSSet makeObjectsPerformSelector:]
   fun:-[NSIBObjectData nibInstantiateWithOwner:topLevelObjects:]
   fun:loadNib
}
{
   <insert_a_suppression_name_here>
   Memcheck:Leak
   fun:malloc_zone_calloc
   fun:attachMethodLists
   fun:realizeClass
   fun:_class_getNonMetaClass
   fun:_class_initialize
   fun:prepareForMethodLookup
   fun:lookUpMethod
   fun:objc_msgSend
   fun:+[NSMenu(NSKeyEquivalents) _recursivelyRegisterMenuForKeyEquivalentUniquing:]
   fun:-[NSMenu _setMenuName:]
   fun:-[NSMenu _finishedMakingConnections]
   fun:-[NSSet makeObjectsPerformSelector:]
}
{
   <insert_a_suppression_name_here>
   Memcheck:Leak
   fun:malloc
   fun:_Znwm
   fun:_ZN17TSplicedFontStash11CreateCacheEv
   fun:_ZN17TSplicedFontStashC2Ev
   fun:_ZNK17TDescriptorSource35CopyFontDescriptorPerPostscriptNameEPK10__CFStringm
   fun:_ZNK11TDescriptor32CreateMatchingDescriptorInternalEPK7__CFSet
   fun:_ZN11TDescriptor12InitBaseFontEv
   fun:_ZNK11TDescriptor24CreateMatchingDescriptorEPK7__CFSet
   fun:CTFontCreateWithFontDescriptor
   fun:_ZN24QCoreTextFontEngineMultiC2ERKjS1_RK8QFontDefb
   fun:_ZN13QFontDatabase4loadEPK12QFontPrivatei
   fun:_ZNK12QFontPrivate15engineForScriptEi
}
{
   <insert_a_suppression_name_here>
   Memcheck:Leak
   fun:malloc
   fun:_Znwm
   fun:_ZNK9TBaseFont18CreateTraitsValuesEv
   fun:_ZNK9TBaseFont29CreateVariantOfMatchingTraitsEjj
   fun:CTFontCreateCopyWithSymbolicTraits
   fun:_ZN24QCoreTextFontEngineMultiC2ERKjS1_RK8QFontDefb
   fun:_ZN13QFontDatabase4loadEPK12QFontPrivatei
   fun:_ZNK12QFontPrivate15engineForScriptEi
   fun:_ZNK11QTextEngine10fontEngineERK11QScriptItemP6QFixedS4_S4_
   fun:_ZNK11QTextEngine12shapeTextMacEi
   fun:_ZNK11QTextEngine9shapeTextEi
   fun:_ZNK11QTextEngine5shapeEi
}
{
   <insert_a_suppression_name_here>
   Memcheck:Leak
   fun:malloc
   fun:_Znwm
   fun:_ZNK9TBaseFont18CreateTraitsValuesEv
   fun:_ZNK9TBaseFont29CreateVariantOfMatchingTraitsEjj
   fun:CTFontCreateCopyWithSymbolicTraits
   fun:_ZN24QCoreTextFontEngineMultiC2ERKjS1_RK8QFontDefb
   fun:_ZN13QFontDatabase4loadEPK12QFontPrivatei
   fun:_ZNK12QFontPrivate15engineForScriptEi
   fun:_ZNK11QTextEngine10fontEngineERK11QScriptItemP6QFixedS4_S4_
   fun:_ZNK11QTextEngine12shapeTextMacEi
   fun:_ZNK11QTextEngine9shapeTextEi
   fun:_ZNK11QTextEngine5shapeEi
}
{
   <insert_a_suppression_name_here>
   Memcheck:Leak
   fun:malloc
   fun:CGColorSpaceGetMD5Digest
   fun:getSpaceIndexInCache
   fun:resolveSource
   fun:initializeConvertParams
   fun:CGColorTransformConvertColorFloatComponents
   fun:ripc_GetColor
   fun:ripc_RenderGlyphs
   fun:ripc_DrawGlyphs
   fun:draw_glyphs
   fun:CGContextShowGlyphsWithAdvances
   fun:_ZN19QCoreTextFontEngine13imageForGlyphEjib
}
{
   <insert_a_suppression_name_here>
   Memcheck:Leak
   fun:malloc
   fun:CGColorSpaceGetMD5Digest
   fun:getSpaceIndexInCache
   fun:resolveSource
   fun:initializeConvertParams
   fun:CGColorTransformConvertColorFloatComponents
   fun:ripc_GetColor
   fun:ripc_RenderGlyphs
   fun:ripc_DrawGlyphs
   fun:draw_glyphs
   fun:CGContextShowGlyphsWithAdvances
   fun:_ZN19QCoreTextFontEngine13imageForGlyphEjib
}
{
   <insert_a_suppression_name_here>
   Memcheck:Leak
   fun:malloc_zone_calloc
   fun:attachMethodLists
   fun:realizeClass
   fun:realizeClass
   fun:_objc_fixupMessageRef
   fun:objc_msgSend_fixup
   fun:_ZN17QGLContextPrivate9tryFormatERK9QGLFormat
   fun:_ZN10QGLContext15chooseMacVisualEPP7GDevice
   fun:_ZN10QGLContext13chooseContextEPKS_
   fun:_ZN10QGLContext6createEPKS_
   fun:_ZN9QGLWidget10setContextEP10QGLContextPKS0_b
   fun:_ZN16QGLWidgetPrivate11initContextEP10QGLContextPK9QGLWidget
}
{
   <insert_a_suppression_name_here>
   Memcheck:Leak
   fun:malloc_zone_malloc
   fun:buildProtocolList
   fun:realizeClass
   fun:realizeClass
   fun:_objc_fixupMessageRef
   fun:objc_msgSend_fixup
   fun:_ZN17QGLContextPrivate9tryFormatERK9QGLFormat
   fun:_ZN10QGLContext15chooseMacVisualEPP7GDevice
   fun:_ZN10QGLContext13chooseContextEPKS_
   fun:_ZN10QGLContext6createEPKS_
   fun:_ZN9QGLWidget10setContextEP10QGLContextPKS0_b
   fun:_ZN16QGLWidgetPrivate11initContextEP10QGLContextPK9QGLWidget
}
{
   <insert_a_suppression_name_here>
   Memcheck:Leak
   fun:malloc_zone_calloc
   fun:NXHashInsert
   fun:realizeClass
   fun:realizeClass
   fun:_objc_fixupMessageRef
   fun:objc_msgSend_fixup
   fun:_ZN17QGLContextPrivate9tryFormatERK9QGLFormat
   fun:_ZN10QGLContext15chooseMacVisualEPP7GDevice
   fun:_ZN10QGLContext13chooseContextEPKS_
   fun:_ZN10QGLContext6createEPKS_
   fun:_ZN9QGLWidget10setContextEP10QGLContextPKS0_b
   fun:_ZN16QGLWidgetPrivate11initContextEP10QGLContextPK9QGLWidget
}
{
   <insert_a_suppression_name_here>
   Memcheck:Leak
   fun:malloc_zone_malloc
   fun:buildProtocolList
   fun:realizeClass
   fun:_objc_fixupMessageRef
   fun:objc_msgSend_fixup
   fun:_ZN17QGLContextPrivate9tryFormatERK9QGLFormat
   fun:_ZN10QGLContext15chooseMacVisualEPP7GDevice
   fun:_ZN10QGLContext13chooseContextEPKS_
   fun:_ZN10QGLContext6createEPKS_
   fun:_ZN9QGLWidget10setContextEP10QGLContextPKS0_b
   fun:_ZN16QGLWidgetPrivate11initContextEP10QGLContextPK9QGLWidget
   fun:_ZN16QGLWidgetPrivate4initEP10QGLContextPK9QGLWidget
}
{
   <insert_a_suppression_name_here>
   Memcheck:Leak
   fun:malloc_zone_calloc
   fun:attachMethodLists
   fun:realizeClass
   fun:prepareForMethodLookup
   fun:lookUpMethod
   fun:objc_msgSend
   fun:_ZN10QGLContext13chooseContextEPKS_
   fun:_ZN10QGLContext6createEPKS_
   fun:_ZN9QGLWidget10setContextEP10QGLContextPKS0_b
   fun:_ZN16QGLWidgetPrivate11initContextEP10QGLContextPK9QGLWidget
   fun:_ZN16QGLWidgetPrivate4initEP10QGLContextPK9QGLWidget
   fun:_ZN9QGLWidgetC2ERK9QGLFormatP7QWidgetPKS_6QFlagsIN2Qt10WindowTypeEE
}
{
   <insert_a_suppression_name_here>
   Memcheck:Leak
   fun:malloc_zone_calloc
   fun:attachMethodLists
   fun:realizeClass
   fun:prepareForMethodLookup
   fun:lookUpMethod
   fun:objc_msgSend
   fun:-[NSOpenGLContext makeCurrentContext]
   fun:_ZN10QGLContext11makeCurrentEv
   fun:_ZN9QGLWidget6glDrawEv
   fun:_ZN8GLWidget12setXRotationEi
   fun:_ZN8GLWidget11qt_metacallEN11QMetaObject4CallEiPPv
   fun:_ZN11QMetaObject8activateEP7QObjectPKS_iPPv
}
{
   <insert_a_suppression_name_here>
   Memcheck:Leak
   fun:malloc_zone_malloc
   fun:buildProtocolList
   fun:realizeClass
   fun:prepareForMethodLookup
   fun:lookUpMethod
   fun:objc_msgSend
   fun:-[NSOpenGLContext makeCurrentContext]
   fun:_ZN10QGLContext11makeCurrentEv
   fun:_ZN9QGLWidget6glDrawEv
   fun:_ZN8GLWidget12setXRotationEi
   fun:_ZN8GLWidget11qt_metacallEN11QMetaObject4CallEiPPv
   fun:_ZN11QMetaObject8activateEP7QObjectPKS_iPPv
}
{
   <insert_a_suppression_name_here>
   Memcheck:Leak
   fun:malloc_zone_calloc
   fun:attachMethodLists
   fun:realizeClass
   fun:_class_getNonMetaClass
   fun:_class_initialize
   fun:prepareForMethodLookup
   fun:lookUpMethod
   fun:objc_msgSend
   fun:-[NSOpenGLContext makeCurrentContext]
   fun:_ZN10QGLContext11makeCurrentEv
   fun:_ZN9QGLWidget6glDrawEv
   fun:_ZN8GLWidget12setXRotationEi
}
{
   <insert_a_suppression_name_here>
   Memcheck:Leak
   fun:malloc_zone_malloc
   fun:buildProtocolList
   fun:realizeClass
   fun:_class_getNonMetaClass
   fun:_class_initialize
   fun:prepareForMethodLookup
   fun:lookUpMethod
   fun:objc_msgSend
   fun:-[NSOpenGLContext makeCurrentContext]
   fun:_ZN10QGLContext11makeCurrentEv
   fun:_ZN9QGLWidget6glDrawEv
   fun:_ZN8GLWidget12setXRotationEi
}
{
   <insert_a_suppression_name_here>
   Memcheck:Leak
   fun:malloc_zone_calloc
   fun:attachMethodLists
   fun:realizeClass
   fun:prepareForMethodLookup
   fun:lookUpMethod
   fun:objc_msgSend
   fun:+[NSHashTable alloc]
   fun:-[NSOpenGLContext makeCurrentContext]
   fun:_ZN10QGLContext11makeCurrentEv
   fun:_ZN9QGLWidget6glDrawEv
   fun:_ZN8GLWidget12setXRotationEi
   fun:_ZN8GLWidget11qt_metacallEN11QMetaObject4CallEiPPv
}
{
   <insert_a_suppression_name_here>
   Memcheck:Leak
   fun:malloc_zone_calloc
   fun:attachMethodLists
   fun:realizeClass
   fun:_class_getNonMetaClass
   fun:_class_initialize
   fun:prepareForMethodLookup
   fun:lookUpMethod
   fun:objc_msgSend
   fun:+[NSHashTable alloc]
   fun:-[NSOpenGLContext makeCurrentContext]
   fun:_ZN10QGLContext11makeCurrentEv
   fun:_ZN9QGLWidget6glDrawEv
}
{
   <insert_a_suppression_name_here>
   Memcheck:Leak
   fun:malloc_zone_calloc
   fun:attachMethodLists
   fun:realizeClass
   fun:_class_getNonMetaClass
   fun:_class_initialize
   fun:prepareForMethodLookup
   fun:lookUpMethod
   fun:objc_msgSend
   fun:_ZL20qt_mac_create_windowP7QWidgetjmRK5QRect
   fun:_ZN14QWidgetPrivate18qt_create_root_winEv
   fun:_ZN14QWidgetPrivate10create_sysElbb
   fun:_ZN7QWidget6createElbb
}
{
   <insert_a_suppression_name_here>
   Memcheck:Leak
   fun:malloc_zone_calloc
   fun:attachMethodLists
   fun:realizeClass
   fun:realizeClass
   fun:look_up_class
   fun:NSClassFromString
   fun:+[QCocoaPanel frameViewClassForStyleMask:]
   fun:+[NSPanel _validateStyleMask:]
   fun:-[NSWindow _initContent:styleMask:backing:defer:contentView:]
   fun:-[NSPanel _initContent:styleMask:backing:defer:contentView:]
   fun:-[NSWindow initWithContentRect:styleMask:backing:defer:]
   fun:-[NSPanel initWithContentRect:styleMask:backing:defer:]
}
{
   <insert_a_suppression_name_here>
   Memcheck:Leak
   fun:malloc_zone_calloc
   fun:attachMethodLists
   fun:realizeClass
   fun:look_up_class
   fun:NSClassFromString
   fun:+[QCocoaPanel frameViewClassForStyleMask:]
   fun:+[NSPanel _validateStyleMask:]
   fun:-[NSWindow _initContent:styleMask:backing:defer:contentView:]
   fun:-[NSPanel _initContent:styleMask:backing:defer:contentView:]
   fun:-[NSWindow initWithContentRect:styleMask:backing:defer:]
   fun:-[NSPanel initWithContentRect:styleMask:backing:defer:]
   fun:-[QCocoaPanel initWithContentRect:styleMask:backing:defer:]
}
{
   <insert_a_suppression_name_here>
   Memcheck:Leak
   fun:malloc_zone_calloc
   fun:attachMethodLists
   fun:realizeClass
   fun:_class_getNonMetaClass
   fun:_class_initialize
   fun:prepareForMethodLookup
   fun:lookUpMethod
   fun:objc_msgSend
   fun:-[NSWindow _lockViewHierarchyForDrawingWithExceptionHandler:]
   fun:-[NSNextStepFrame tile]
   fun:-[NSNextStepFrame initWithFrame:styleMask:owner:]
   fun:-[NSWindow _commonInitFrame:styleMask:backing:defer:]
}
{
   <insert_a_suppression_name_here>
   Memcheck:Leak
   fun:malloc_zone_calloc
   fun:attachMethodLists
   fun:realizeClass
   fun:realizeClass
   fun:realizeClass
   fun:prepareForMethodLookup
   fun:lookUpMethod
   fun:objc_msgSend
   fun:-[NSWindow _usesCustomDrawing]
   fun:-[NSWindow _isDarkWindow]
   fun:-[NSWindow _commonInitFrame:styleMask:backing:defer:]
   fun:-[NSWindow _initContent:styleMask:backing:defer:contentView:]
}
{
   <insert_a_suppression_name_here>
   Memcheck:Leak
   fun:malloc_zone_calloc
   fun:attachMethodLists
   fun:realizeClass
   fun:realizeClass
   fun:prepareForMethodLookup
   fun:lookUpMethod
   fun:objc_msgSend
   fun:-[NSWindow _usesCustomDrawing]
   fun:-[NSWindow _isDarkWindow]
   fun:-[NSWindow _commonInitFrame:styleMask:backing:defer:]
   fun:-[NSWindow _initContent:styleMask:backing:defer:contentView:]
   fun:-[NSPanel _initContent:styleMask:backing:defer:contentView:]
}
{
   <insert_a_suppression_name_here>
   Memcheck:Leak
   fun:malloc_zone_calloc
   fun:attachMethodLists
   fun:realizeClass
   fun:prepareForMethodLookup
   fun:lookUpMethod
   fun:objc_msgSend
   fun:-[NSWindow _usesCustomDrawing]
   fun:-[NSWindow _isDarkWindow]
   fun:-[NSWindow _commonInitFrame:styleMask:backing:defer:]
   fun:-[NSWindow _initContent:styleMask:backing:defer:contentView:]
   fun:-[NSPanel _initContent:styleMask:backing:defer:contentView:]
   fun:-[NSWindow initWithContentRect:styleMask:backing:defer:]
}
{
   <insert_a_suppression_name_here>
   Memcheck:Leak
   fun:malloc_zone_calloc
   fun:attachMethodLists
   fun:realizeClass
   fun:prepareForMethodLookup
   fun:lookUpMethod
   fun:objc_msgSend
   fun:+[NSParagraphStyle initialize]
   fun:_class_initialize
   fun:prepareForMethodLookup
   fun:lookUpMethod
   fun:objc_msgSend
   fun:+[NSTitledFrame initialize]
}
{
   <insert_a_suppression_name_here>
   Memcheck:Leak
   fun:malloc_zone_calloc
   fun:attachMethodLists
   fun:realizeClass
   fun:_class_getNonMetaClass
   fun:_class_initialize
   fun:prepareForMethodLookup
   fun:lookUpMethod
   fun:objc_msgSend
   fun:+[NSParagraphStyle initialize]
   fun:_class_initialize
   fun:prepareForMethodLookup
   fun:lookUpMethod
}
{
   <insert_a_suppression_name_here>
   Memcheck:Leak
   fun:malloc_zone_calloc
   fun:attachMethodLists
   fun:realizeClass
   fun:prepareForMethodLookup
   fun:lookUpMethod
   fun:objc_msgSend
   fun:-[NSWindow _usesCustomDrawing]
   fun:-[NSWindow _isDarkWindow]
   fun:-[NSWindow _commonInitFrame:styleMask:backing:defer:]
   fun:-[NSWindow _initContent:styleMask:backing:defer:contentView:]
   fun:-[NSPanel _initContent:styleMask:backing:defer:contentView:]
   fun:-[NSWindow initWithContentRect:styleMask:backing:defer:]
}
{
   <insert_a_suppression_name_here>
   Memcheck:Leak
   fun:malloc_zone_calloc
   fun:attachMethodLists
   fun:realizeClass
   fun:prepareForMethodLookup
   fun:lookUpMethod
   fun:objc_msgSend
   fun:-[NSView _addSubview:]
   fun:-[NSView _setSuperview:]
   fun:-[NSView addSubview:]
   fun:-[NSWindow setContentView:]
   fun:-[NSWindow _initContent:styleMask:backing:defer:contentView:]
   fun:-[NSPanel _initContent:styleMask:backing:defer:contentView:]
}
{
   <insert_a_suppression_name_here>
   Memcheck:Leak
   fun:malloc_zone_calloc
   fun:attachMethodLists
   fun:realizeClass
   fun:prepareForMethodLookup
   fun:lookUpMethod
   fun:objc_msgSend
   fun:-[NSView(NSPrivateHLTBSupport) _boundToHIView]
   fun:-[NSView visibleRect]
   fun:-[NSView visibleRect]
   fun:-[NSView setNeedsDisplayInRect:]
   fun:-[NSView setNeedsDisplay:]
   fun:-[NSView _addSubview:]
}
{
   <insert_a_suppression_name_here>
   Memcheck:Leak
   fun:malloc_zone_calloc
   fun:NXHashInsert
   fun:realizeClass
   fun:prepareForMethodLookup
   fun:lookUpMethod
   fun:objc_msgSend
   fun:-[NSView(NSPrivateHLTBSupport) _boundToHIView]
   fun:-[NSView visibleRect]
   fun:-[NSView visibleRect]
   fun:-[NSView setNeedsDisplayInRect:]
   fun:-[NSView setNeedsDisplay:]
   fun:-[NSView _addSubview:]
}
{
   <insert_a_suppression_name_here>
   Memcheck:Leak
   fun:malloc_zone_calloc
   fun:attachMethodLists
   fun:realizeClass
   fun:prepareForMethodLookup
   fun:lookUpMethod
   fun:objc_msgSend
   fun:-[NSWindow _initContent:styleMask:backing:defer:contentView:]
   fun:-[NSPanel _initContent:styleMask:backing:defer:contentView:]
   fun:-[NSWindow initWithContentRect:styleMask:backing:defer:]
   fun:-[NSPanel initWithContentRect:styleMask:backing:defer:]
   fun:-[QCocoaPanel initWithContentRect:styleMask:backing:defer:]
   fun:-[NSWindow(QWidgetIntegration) qt_initWithQWidget:contentRect:styleMask:]
}
{
   <insert_a_suppression_name_here>
   Memcheck:Leak
   fun:malloc_zone_malloc
   fun:buildProtocolList
   fun:realizeClass
   fun:prepareForMethodLookup
   fun:lookUpMethod
   fun:objc_msgSend
   fun:-[NSWindow _initContent:styleMask:backing:defer:contentView:]
   fun:-[NSPanel _initContent:styleMask:backing:defer:contentView:]
   fun:-[NSWindow initWithContentRect:styleMask:backing:defer:]
   fun:-[NSPanel initWithContentRect:styleMask:backing:defer:]
   fun:-[QCocoaPanel initWithContentRect:styleMask:backing:defer:]
   fun:-[NSWindow(QWidgetIntegration) qt_initWithQWidget:contentRect:styleMask:]
}
{
   <insert_a_suppression_name_here>
   Memcheck:Leak
   fun:malloc_zone_calloc
   fun:attachMethodLists
   fun:realizeClass
   fun:_class_getNonMetaClass
   fun:_class_initialize
   fun:prepareForMethodLookup
   fun:lookUpMethod
   fun:objc_msgSend
   fun:-[NSWindow _initContent:styleMask:backing:defer:contentView:]
   fun:-[NSPanel _initContent:styleMask:backing:defer:contentView:]
   fun:-[NSWindow initWithContentRect:styleMask:backing:defer:]
   fun:-[NSPanel initWithContentRect:styleMask:backing:defer:]
}
{
   <insert_a_suppression_name_here>
   Memcheck:Leak
   fun:malloc_zone_malloc
   fun:buildProtocolList
   fun:realizeClass
   fun:_class_getNonMetaClass
   fun:_class_initialize
   fun:prepareForMethodLookup
   fun:lookUpMethod
   fun:objc_msgSend
   fun:-[NSWindow _initContent:styleMask:backing:defer:contentView:]
   fun:-[NSPanel _initContent:styleMask:backing:defer:contentView:]
   fun:-[NSWindow initWithContentRect:styleMask:backing:defer:]
   fun:-[NSPanel initWithContentRect:styleMask:backing:defer:]
}
{
   <insert_a_suppression_name_here>
   Memcheck:Leak
   fun:malloc_zone_calloc
   fun:attachMethodLists
   fun:realizeClass
   fun:prepareForMethodLookup
   fun:lookUpMethod
   fun:objc_msgSend
   fun:-[NSWindow(QWidgetIntegration) qt_initWithQWidget:contentRect:styleMask:]
   fun:_ZL20qt_mac_create_windowP7QWidgetjmRK5QRect
   fun:_ZN14QWidgetPrivate18qt_create_root_winEv
   fun:_ZN14QWidgetPrivate10create_sysElbb
   fun:_ZN7QWidget6createElbb
   fun:_ZN14QWidgetPrivate4initEP7QWidget6QFlagsIN2Qt10WindowTypeEE
}
{
   <insert_a_suppression_name_here>
   Memcheck:Leak
   fun:malloc_zone_malloc
   fun:buildProtocolList
   fun:realizeClass
   fun:prepareForMethodLookup
   fun:lookUpMethod
   fun:objc_msgSend
   fun:-[NSWindow(QWidgetIntegration) qt_initWithQWidget:contentRect:styleMask:]
   fun:_ZL20qt_mac_create_windowP7QWidgetjmRK5QRect
   fun:_ZN14QWidgetPrivate18qt_create_root_winEv
   fun:_ZN14QWidgetPrivate10create_sysElbb
   fun:_ZN7QWidget6createElbb
   fun:_ZN14QWidgetPrivate4initEP7QWidget6QFlagsIN2Qt10WindowTypeEE
}
{
   <insert_a_suppression_name_here>
   Memcheck:Leak
   fun:malloc_zone_calloc
   fun:attachMethodLists
   fun:realizeClass
   fun:_class_getNonMetaClass
   fun:_class_initialize
   fun:prepareForMethodLookup
   fun:lookUpMethod
   fun:objc_msgSend
   fun:-[NSWindow(QWidgetIntegration) qt_initWithQWidget:contentRect:styleMask:]
   fun:_ZL20qt_mac_create_windowP7QWidgetjmRK5QRect
   fun:_ZN14QWidgetPrivate18qt_create_root_winEv
   fun:_ZN14QWidgetPrivate10create_sysElbb
}
{
   <insert_a_suppression_name_here>
   Memcheck:Leak
   fun:malloc_zone_malloc
   fun:buildProtocolList
   fun:realizeClass
   fun:_class_getNonMetaClass
   fun:_class_initialize
   fun:prepareForMethodLookup
   fun:lookUpMethod
   fun:objc_msgSend
   fun:-[NSWindow(QWidgetIntegration) qt_initWithQWidget:contentRect:styleMask:]
   fun:_ZL20qt_mac_create_windowP7QWidgetjmRK5QRect
   fun:_ZN14QWidgetPrivate18qt_create_root_winEv
   fun:_ZN14QWidgetPrivate10create_sysElbb
}
{
   <insert_a_suppression_name_here>
   Memcheck:Leak
   fun:malloc_zone_malloc
   fun:buildProtocolList
   fun:realizeClass
   fun:prepareForMethodLookup
   fun:lookUpMethod
   fun:objc_msgSend
   fun:-[NSImage _setRepProviderWithIconRef:includeThumbnail:]
   fun:-[NSImage _initWithIconRef:includeThumbnail:]
   fun:-[NSWorkspace _defaultDocIcon]
   fun:+[NSWindow standardWindowButton:forStyleMask:]
   fun:-[NSThemeFrame newFileButton]
   fun:-[NSThemeFrame setRepresentedURL:]
}
{
   <insert_a_suppression_name_here>
   Memcheck:Leak
   fun:malloc_zone_calloc
   fun:attachMethodLists
   fun:realizeClass
   fun:_class_getNonMetaClass
   fun:_class_initialize
   fun:prepareForMethodLookup
   fun:lookUpMethod
   fun:objc_msgSend
   fun:-[NSImage _setRepProviderWithIconRef:includeThumbnail:]
   fun:-[NSImage _initWithIconRef:includeThumbnail:]
   fun:-[NSWorkspace _defaultDocIcon]
   fun:+[NSWindow standardWindowButton:forStyleMask:]
}
{
   <insert_a_suppression_name_here>
   Memcheck:Leak
   fun:malloc_zone_calloc
   fun:attachMethodLists
   fun:realizeClass
   fun:_class_getNonMetaClass
   fun:_class_initialize
   fun:prepareForMethodLookup
   fun:lookUpMethod
   fun:objc_msgSend
   fun:-[NSTextFieldCell _typesetterBehavior]
   fun:_NSGetTextCellBoundingRect
   fun:-[NSCell cellSizeForBounds:]
   fun:-[NSTextFieldCell cellSizeForBounds:]
}
{
   <insert_a_suppression_name_here>
   Memcheck:Leak
   fun:malloc_zone_malloc
   fun:buildProtocolList
   fun:realizeClass
   fun:_class_getNonMetaClass
   fun:_class_initialize
   fun:prepareForMethodLookup
   fun:lookUpMethod
   fun:objc_msgSend
   fun:+[NSTypesetter initialize]
   fun:_class_initialize
   fun:prepareForMethodLookup
   fun:lookUpMethod
}
{
   <insert_a_suppression_name_here>
   Memcheck:Leak
   fun:malloc
   fun:NSCreateMapTableWithZone
   fun:GetThemeImage
   fun:+[NSColor _controlColor]
   fun:-[NSDynamicSystemColor recacheColor]
   fun:-[NSDynamicSystemColor initWithSelector:]
   fun:+[NSColor controlColor]
   fun:-[NSTextFieldCell drawsBackground]
   fun:-[NSTextFieldCell interiorBackgroundStyle]
   fun:-[NSCell _textAttributes]
   fun:-[NSTextFieldCell _textAttributes]
   fun:__NSGetStringAndAttributesFromTextCell
}
{
   <insert_a_suppression_name_here>
   Memcheck:Leak
   fun:malloc_zone_calloc
   fun:attachMethodLists
   fun:realizeClass
   fun:realizeClass
   fun:_class_getNonMetaClass
   fun:_class_initialize
   fun:prepareForMethodLookup
   fun:lookUpMethod
   fun:objc_msgSend
   fun:+[NSColor _colorWithGradientImage:]
   fun:+[NSColor _controlColor]
   fun:-[NSDynamicSystemColor recacheColor]
}
{
   <insert_a_suppression_name_here>
   Memcheck:Leak
   fun:malloc_zone_calloc
   fun:attachMethodLists
   fun:realizeClass
   fun:_class_getNonMetaClass
   fun:_class_initialize
   fun:prepareForMethodLookup
   fun:lookUpMethod
   fun:objc_msgSend
   fun:+[NSColor _colorWithGradientImage:]
   fun:+[NSColor _controlColor]
   fun:-[NSDynamicSystemColor recacheColor]
   fun:-[NSDynamicSystemColor initWithSelector:]
}
{
   <insert_a_suppression_name_here>
   Memcheck:Leak
   fun:malloc_zone_calloc
   fun:NXHashInsert
   fun:addRealizedClass
   fun:realizeClass
   fun:_class_getNonMetaClass
   fun:_class_initialize
   fun:prepareForMethodLookup
   fun:lookUpMethod
   fun:objc_msgSend
   fun:+[NSColor _colorWithGradientImage:]
   fun:+[NSColor _controlColor]
   fun:-[NSDynamicSystemColor recacheColor]
}
{
   <insert_a_suppression_name_here>
   Memcheck:Leak
   fun:malloc_zone_calloc
   fun:attachMethodLists
   fun:realizeClass
   fun:prepareForMethodLookup
   fun:lookUpMethod
   fun:objc_msgSend
   fun:-[NSCatalogColor colorUsingColorSpaceName:device:]
   fun:-[NSTextFieldCell _textAttributes]
   fun:__NSGetStringAndAttributesFromTextCell
   fun:_NSGetTextCellBoundingRect
   fun:-[NSCell cellSizeForBounds:]
   fun:-[NSTextFieldCell cellSizeForBounds:]
}
{
   <insert_a_suppression_name_here>
   Memcheck:Leak
   fun:malloc_zone_malloc
   fun:buildProtocolList
   fun:realizeClass
   fun:prepareForMethodLookup
   fun:lookUpMethod
   fun:objc_msgSend
   fun:-[NSCatalogColor colorUsingColorSpaceName:device:]
   fun:-[NSTextFieldCell _textAttributes]
   fun:__NSGetStringAndAttributesFromTextCell
   fun:_NSGetTextCellBoundingRect
   fun:-[NSCell cellSizeForBounds:]
   fun:-[NSTextFieldCell cellSizeForBounds:]
}
{
   <insert_a_suppression_name_here>
   Memcheck:Leak
   fun:malloc_zone_malloc
   fun:buildProtocolList
   fun:realizeClass
   fun:_class_getNonMetaClass
   fun:_class_initialize
   fun:prepareForMethodLookup
   fun:lookUpMethod
   fun:objc_msgSend
   fun:-[NSCatalogColor colorUsingColorSpaceName:device:]
   fun:-[NSTextFieldCell _textAttributes]
   fun:__NSGetStringAndAttributesFromTextCell
   fun:_NSGetTextCellBoundingRect
}
{
   <insert_a_suppression_name_here>
   Memcheck:Leak
   fun:malloc_zone_calloc
   fun:attachMethodLists
   fun:realizeClass
   fun:prepareForMethodLookup
   fun:lookUpMethod
   fun:objc_msgSend
   fun:-[NSColorList _initWithName:fromPath:forDeviceType:lazy:]
   fun:+[NSColorList _loadSystemScreenColorList]
   fun:+[NSColorList initialize]
   fun:_class_initialize
   fun:prepareForMethodLookup
   fun:lookUpMethod
}
{
   <insert_a_suppression_name_here>
   Memcheck:Leak
   fun:malloc_zone_calloc
   fun:attachMethodLists
   fun:realizeClass
   fun:_class_getNonMetaClass
   fun:_class_initialize
   fun:prepareForMethodLookup
   fun:lookUpMethod
   fun:objc_msgSend
   fun:-[NSColorList _initWithName:fromPath:forDeviceType:lazy:]
   fun:+[NSColorList _loadSystemScreenColorList]
   fun:+[NSColorList initialize]
   fun:_class_initialize
}
{
   <insert_a_suppression_name_here>
   Memcheck:Leak
   fun:malloc_zone_calloc
   fun:attachMethodLists
   fun:realizeClass
   fun:prepareForMethodLookup
   fun:lookUpMethod
   fun:objc_msgSend
   fun:_NSColorFromDefault
   fun:-[NSDynamicSystemColor recacheColor]
   fun:-[NSDynamicSystemColor initWithSelector:]
   fun:+[NSColor selectedControlColor]
   fun:+[NSDynamicSystemColor alternateSelectedControlColor]
   fun:-[NSDynamicSystemColor recacheColor]
}
{
   <insert_a_suppression_name_here>
   Memcheck:Leak
   fun:malloc_zone_malloc
   fun:buildProtocolList
   fun:realizeClass
   fun:prepareForMethodLookup
   fun:lookUpMethod
   fun:objc_msgSend
   fun:_NSColorFromDefault
   fun:-[NSDynamicSystemColor recacheColor]
   fun:-[NSDynamicSystemColor initWithSelector:]
   fun:+[NSColor selectedControlColor]
   fun:+[NSDynamicSystemColor alternateSelectedControlColor]
   fun:-[NSDynamicSystemColor recacheColor]
}
{
   <insert_a_suppression_name_here>
   Memcheck:Leak
   fun:malloc_zone_malloc
   fun:buildProtocolList
   fun:realizeClass
   fun:_class_getNonMetaClass
   fun:_class_initialize
   fun:prepareForMethodLookup
   fun:lookUpMethod
   fun:objc_msgSend
   fun:_NSColorFromDefault
   fun:-[NSDynamicSystemColor recacheColor]
   fun:-[NSDynamicSystemColor initWithSelector:]
   fun:+[NSColor selectedControlColor]
}
{
   <insert_a_suppression_name_here>
   Memcheck:Leak
   fun:malloc_zone_calloc
   fun:attachMethodLists
   fun:realizeClass
   fun:prepareForMethodLookup
   fun:lookUpMethod
   fun:objc_msgSend
   fun:+[NSScanner allocWithZone:]
   fun:_NSColorFromDefault
   fun:-[NSDynamicSystemColor recacheColor]
   fun:-[NSDynamicSystemColor initWithSelector:]
   fun:+[NSColor selectedControlColor]
   fun:+[NSDynamicSystemColor alternateSelectedControlColor]
}
{
   <insert_a_suppression_name_here>
   Memcheck:Leak
   fun:malloc_zone_calloc
   fun:attachMethodLists
   fun:realizeClass
   fun:_class_getNonMetaClass
   fun:_class_initialize
   fun:prepareForMethodLookup
   fun:lookUpMethod
   fun:objc_msgSend
   fun:+[NSScanner allocWithZone:]
   fun:_NSColorFromDefault
   fun:-[NSDynamicSystemColor recacheColor]
   fun:-[NSDynamicSystemColor initWithSelector:]
}
{
   <insert_a_suppression_name_here>
   Memcheck:Leak
   fun:malloc_zone_malloc
   fun:CFCharacterSetInvert
   fun:CFCharacterSetCreateInvertedSet
   fun:-[NSCFCharacterSet invertedSet]
   fun:-[NSConcreteScanner _invertedSkipSet]
   fun:-[NSScanner isAtEnd]
   fun:_NSColorFromDefault
   fun:-[NSDynamicSystemColor recacheColor]
   fun:-[NSDynamicSystemColor initWithSelector:]
   fun:+[NSColor selectedControlColor]
   fun:+[NSDynamicSystemColor alternateSelectedControlColor]
   fun:-[NSDynamicSystemColor recacheColor]
}
{
   <insert_a_suppression_name_here>
   Memcheck:Leak
   fun:malloc_zone_calloc
   fun:attachMethodLists
   fun:realizeClass
   fun:prepareForMethodLookup
   fun:lookUpMethod
   fun:objc_msgSend
   fun:+[NSColor colorWithDeviceRed:green:blue:alpha:]
   fun:_NSColorFromDefault
   fun:-[NSDynamicSystemColor recacheColor]
   fun:-[NSDynamicSystemColor initWithSelector:]
   fun:+[NSColor selectedControlColor]
   fun:+[NSDynamicSystemColor alternateSelectedControlColor]
}
{
   <insert_a_suppression_name_here>
   Memcheck:Leak
   fun:malloc_zone_calloc
   fun:attachMethodLists
   fun:realizeClass
   fun:_class_getNonMetaClass
   fun:_class_initialize
   fun:prepareForMethodLookup
   fun:lookUpMethod
   fun:objc_msgSend
   fun:+[NSColor colorWithDeviceRed:green:blue:alpha:]
   fun:_NSColorFromDefault
   fun:-[NSDynamicSystemColor recacheColor]
   fun:-[NSDynamicSystemColor initWithSelector:]
}
{
   <insert_a_suppression_name_here>
   Memcheck:Leak
   fun:malloc
   fun:CGColorSpaceCreate
   fun:create_display_space_with_id
   fun:create_display_color_space
   fun:CGColorSpaceCreateWithIndex
   fun:-[NSDeviceWhiteColor _createCGColorWithAlpha:]
   fun:-[NSCalibratedWhiteColor colorUsingColorSpaceName:device:]
   fun:-[NSColor blendedColorWithFraction:ofColor:]
   fun:-[NSDynamicSystemColor recacheColor]
   fun:-[NSDynamicSystemColor initWithSelector:]
   fun:+[NSColor controlDarkShadowColor]
   fun:+[NSColor colorWithCatalogName:colorName:]
}
{
   <insert_a_suppression_name_here>
   Memcheck:Leak
   fun:malloc
   fun:CGColorSpaceGetMD5Digest
   fun:getSpaceIndexInCache
   fun:resolveSource
   fun:initializeConvertParams
   fun:CGColorTransformConvertColorFloatComponents
   fun:CGColorTransformConvertColorComponents
   fun:CGColorTransformConvertColor
   fun:convertColorToColorSpaceNamed
   fun:-[NSCalibratedWhiteColor colorUsingColorSpaceName:device:]
   fun:-[NSColor blendedColorWithFraction:ofColor:]
   fun:-[NSDynamicSystemColor recacheColor]
}
{
   <insert_a_suppression_name_here>
   Memcheck:Leak
   fun:malloc_zone_calloc
   fun:attachMethodLists
   fun:realizeClass
   fun:prepareForMethodLookup
   fun:lookUpMethod
   fun:objc_msgSend
   fun:+[NSColor colorWithColorSpace:components:count:]
   fun:+[NSDynamicSystemColor keyboardFocusIndicatorColor]
   fun:-[NSDynamicSystemColor recacheColor]
   fun:-[NSDynamicSystemColor initWithSelector:]
   fun:+[NSColor keyboardFocusIndicatorColor]
   fun:+[NSColor colorWithCatalogName:colorName:]
}
{
   <insert_a_suppression_name_here>
   Memcheck:Leak
   fun:malloc_zone_calloc
   fun:attachMethodLists
   fun:realizeClass
   fun:_class_getNonMetaClass
   fun:_class_initialize
   fun:prepareForMethodLookup
   fun:lookUpMethod
   fun:objc_msgSend
   fun:+[NSColor colorWithColorSpace:components:count:]
   fun:+[NSDynamicSystemColor keyboardFocusIndicatorColor]
   fun:-[NSDynamicSystemColor recacheColor]
   fun:-[NSDynamicSystemColor initWithSelector:]
}
{
   <insert_a_suppression_name_here>
   Memcheck:Leak
   fun:malloc_zone_calloc
   fun:NXHashInsert
   fun:addRealizedClass
   fun:realizeClass
   fun:_class_getNonMetaClass
   fun:_class_initialize
   fun:prepareForMethodLookup
   fun:lookUpMethod
   fun:objc_msgSend
   fun:+[NSColor colorWithColorSpace:components:count:]
   fun:+[NSDynamicSystemColor keyboardFocusIndicatorColor]
   fun:-[NSDynamicSystemColor recacheColor]
}
{
   <insert_a_suppression_name_here>
   Memcheck:Leak
   fun:malloc_zone_calloc
   fun:attachMethodLists
   fun:realizeClass
   fun:prepareForMethodLookup
   fun:lookUpMethod
   fun:objc_msgSend
   fun:__+[NSColor _defaultKnobColor]_block_invoke_1
   fun:_NSFaultingObjectWithStorageLocationNewObjectProviderBlockAndCleanup
   fun:+[NSColor _defaultKnobColor]
   fun:-[NSDynamicSystemColor recacheColor]
   fun:-[NSDynamicSystemColor initWithSelector:]
   fun:+[NSColor knobColor]
}
{
   <insert_a_suppression_name_here>
   Memcheck:Leak
   fun:malloc_zone_calloc
   fun:attachMethodLists
   fun:realizeClass
   fun:_class_getNonMetaClass
   fun:_class_initialize
   fun:prepareForMethodLookup
   fun:lookUpMethod
   fun:objc_msgSend
   fun:__+[NSColor _defaultKnobColor]_block_invoke_1
   fun:_NSFaultingObjectWithStorageLocationNewObjectProviderBlockAndCleanup
   fun:+[NSColor _defaultKnobColor]
   fun:-[NSDynamicSystemColor recacheColor]
}
{
   <insert_a_suppression_name_here>
   Memcheck:Leak
   fun:malloc_zone_calloc
   fun:attachMethodLists
   fun:realizeClass
   fun:prepareForMethodLookup
   fun:lookUpMethod
   fun:objc_msgSend
   fun:+[NSDynamicSystemColor selectedMenuItemColor]
   fun:-[NSDynamicSystemColor recacheColor]
   fun:-[NSDynamicSystemColor initWithSelector:]
   fun:+[NSColor selectedMenuItemColor]
   fun:+[NSColor colorWithCatalogName:colorName:]
   fun:+[NSCatalogColor newWithCoder:zone:]
}
{
   <insert_a_suppression_name_here>
   Memcheck:Leak
   fun:malloc_zone_calloc
   fun:attachMethodLists
   fun:realizeClass
   fun:_class_getNonMetaClass
   fun:_class_initialize
   fun:prepareForMethodLookup
   fun:lookUpMethod
   fun:objc_msgSend
   fun:+[NSDynamicSystemColor selectedMenuItemColor]
   fun:-[NSDynamicSystemColor recacheColor]
   fun:-[NSDynamicSystemColor initWithSelector:]
   fun:+[NSColor selectedMenuItemColor]
}
{
   <insert_a_suppression_name_here>
   Memcheck:Leak
   fun:malloc_zone_calloc
   fun:attachMethodLists
   fun:realizeClass
   fun:realizeClass
   fun:prepareForMethodLookup
   fun:lookUpMethod
   fun:objc_msgSend
   fun:-[NSString(NSExtendedStringDrawing) boundingRectWithSize:options:attributes:]
   fun:_NSGetTextCellBoundingRect
   fun:-[NSCell cellSizeForBounds:]
   fun:-[NSTextFieldCell cellSizeForBounds:]
   fun:-[NSCell cellSize]
}
{
   <insert_a_suppression_name_here>
   Memcheck:Leak
   fun:malloc_zone_calloc
   fun:attachMethodLists
   fun:realizeClass
   fun:prepareForMethodLookup
   fun:lookUpMethod
   fun:objc_msgSend
   fun:-[NSString(NSExtendedStringDrawing) boundingRectWithSize:options:attributes:]
   fun:_NSGetTextCellBoundingRect
   fun:-[NSCell cellSizeForBounds:]
   fun:-[NSTextFieldCell cellSizeForBounds:]
   fun:-[NSCell cellSize]
   fun:-[NSTitledFrame _titleCellSize]
}
{
   <insert_a_suppression_name_here>
   Memcheck:Leak
   fun:malloc_zone_malloc
   fun:buildProtocolList
   fun:realizeClass
   fun:prepareForMethodLookup
   fun:lookUpMethod
   fun:objc_msgSend
   fun:-[NSString(NSExtendedStringDrawing) boundingRectWithSize:options:attributes:]
   fun:_NSGetTextCellBoundingRect
   fun:-[NSCell cellSizeForBounds:]
   fun:-[NSTextFieldCell cellSizeForBounds:]
   fun:-[NSCell cellSize]
   fun:-[NSTitledFrame _titleCellSize]
}
{
   <insert_a_suppression_name_here>
   Memcheck:Leak
   fun:malloc_zone_calloc
   fun:attachMethodLists
   fun:realizeClass
   fun:_class_getNonMetaClass
   fun:_class_initialize
   fun:prepareForMethodLookup
   fun:lookUpMethod
   fun:objc_msgSend
   fun:-[NSString(NSExtendedStringDrawing) boundingRectWithSize:options:attributes:]
   fun:_NSGetTextCellBoundingRect
   fun:-[NSCell cellSizeForBounds:]
   fun:-[NSTextFieldCell cellSizeForBounds:]
}
{
   <insert_a_suppression_name_here>
   Memcheck:Leak
   fun:malloc_zone_malloc
   fun:buildProtocolList
   fun:realizeClass
   fun:_class_getNonMetaClass
   fun:_class_initialize
   fun:prepareForMethodLookup
   fun:lookUpMethod
   fun:objc_msgSend
   fun:-[NSString(NSExtendedStringDrawing) boundingRectWithSize:options:attributes:]
   fun:_NSGetTextCellBoundingRect
   fun:-[NSCell cellSizeForBounds:]
   fun:-[NSTextFieldCell cellSizeForBounds:]
}
{
   <insert_a_suppression_name_here>
   Memcheck:Leak
   fun:malloc_zone_calloc
   fun:attachMethodLists
   fun:realizeClass
   fun:prepareForMethodLookup
   fun:lookUpMethod
   fun:objc_msgSend
   fun:-[NSImage _setRepProviderWithIconRef:includeThumbnail:]
   fun:-[NSImage _initWithIconRef:includeThumbnail:]
   fun:-[NSWorkspace _defaultDocIcon]
   fun:+[NSWindow standardWindowButton:forStyleMask:]
   fun:-[NSThemeFrame newFileButton]
   fun:-[NSThemeFrame setRepresentedURL:]
}
{
   <insert_a_suppression_name_here>
   Memcheck:Leak
   fun:malloc_zone_malloc
   fun:buildProtocolList
   fun:realizeClass
   fun:_class_getNonMetaClass
   fun:_class_initialize
   fun:prepareForMethodLookup
   fun:lookUpMethod
   fun:objc_msgSend
   fun:-[NSImage _setRepProviderWithIconRef:includeThumbnail:]
   fun:-[NSImage _initWithIconRef:includeThumbnail:]
   fun:-[NSWorkspace _defaultDocIcon]
   fun:+[NSWindow standardWindowButton:forStyleMask:]
}
{
   <insert_a_suppression_name_here>
   Memcheck:Leak
   fun:malloc_zone_calloc
   fun:attachMethodLists
   fun:realizeClass
   fun:prepareForMethodLookup
   fun:lookUpMethod
   fun:objc_msgSend
   fun:-[NSTextFieldCell _typesetterBehavior]
   fun:_NSGetTextCellBoundingRect
   fun:-[NSCell cellSizeForBounds:]
   fun:-[NSTextFieldCell cellSizeForBounds:]
   fun:-[NSCell cellSize]
   fun:-[NSTitledFrame _titleCellSize]
}
{
   <insert_a_suppression_name_here>
   Memcheck:Leak
   fun:malloc_zone_malloc
   fun:buildProtocolList
   fun:realizeClass
   fun:prepareForMethodLookup
   fun:lookUpMethod
   fun:objc_msgSend
   fun:+[NSTypesetter initialize]
   fun:_class_initialize
   fun:prepareForMethodLookup
   fun:lookUpMethod
   fun:objc_msgSend
   fun:-[NSTextFieldCell _typesetterBehavior]
}
{
   <insert_a_suppression_name_here>
   Memcheck:Leak
   fun:malloc_zone_calloc
   fun:attachMethodLists
   fun:realizeClass
   fun:prepareForMethodLookup
   fun:lookUpMethod
   fun:objc_msgSend
   fun:-[NSTextFieldCell interiorBackgroundStyle]
   fun:-[NSCell _textAttributes]
   fun:-[NSTextFieldCell _textAttributes]
   fun:__NSGetStringAndAttributesFromTextCell
   fun:_NSGetTextCellBoundingRect
   fun:-[NSCell cellSizeForBounds:]
}
{
   <insert_a_suppression_name_here>
   Memcheck:Leak
   fun:malloc_zone_malloc
   fun:buildProtocolList
   fun:realizeClass
   fun:prepareForMethodLookup
   fun:lookUpMethod
   fun:objc_msgSend
   fun:-[NSTextFieldCell interiorBackgroundStyle]
   fun:-[NSCell _textAttributes]
   fun:-[NSTextFieldCell _textAttributes]
   fun:__NSGetStringAndAttributesFromTextCell
   fun:_NSGetTextCellBoundingRect
   fun:-[NSCell cellSizeForBounds:]
}
{
   <insert_a_suppression_name_here>
   Memcheck:Leak
   fun:malloc_zone_malloc
   fun:buildProtocolList
   fun:realizeClass
   fun:_class_getNonMetaClass
   fun:_class_initialize
   fun:prepareForMethodLookup
   fun:lookUpMethod
   fun:objc_msgSend
   fun:-[NSTextFieldCell interiorBackgroundStyle]
   fun:-[NSCell _textAttributes]
   fun:-[NSTextFieldCell _textAttributes]
   fun:__NSGetStringAndAttributesFromTextCell
}
{
   <insert_a_suppression_name_here>
   Memcheck:Leak
   fun:malloc
   fun:NSCreateMapTableWithZone
   fun:CreateCLUT
   fun:_NSReadThemePatternFromRsrc
   fun:_NSReadThemeImageFromplutEntry
   fun:GetThemeImage
   fun:+[NSColor _controlColor]
   fun:-[NSDynamicSystemColor recacheColor]
   fun:-[NSDynamicSystemColor initWithSelector:]
   fun:+[NSColor controlColor]
   fun:-[NSTextFieldCell drawsBackground]
   fun:-[NSTextFieldCell interiorBackgroundStyle]
}
{
   <insert_a_suppression_name_here>
   Memcheck:Leak
   fun:malloc_zone_calloc
   fun:attachMethodLists
   fun:realizeClass
   fun:realizeClass
   fun:prepareForMethodLookup
   fun:lookUpMethod
   fun:objc_msgSend
   fun:+[NSColor _colorWithGradientImage:]
   fun:+[NSColor _controlColor]
   fun:-[NSDynamicSystemColor recacheColor]
   fun:-[NSDynamicSystemColor initWithSelector:]
   fun:+[NSColor controlColor]
}
{
   <insert_a_suppression_name_here>
   Memcheck:Leak
   fun:malloc_zone_calloc
   fun:attachMethodLists
   fun:realizeClass
   fun:prepareForMethodLookup
   fun:lookUpMethod
   fun:objc_msgSend
   fun:+[NSColor _colorWithGradientImage:]
   fun:+[NSColor _controlColor]
   fun:-[NSDynamicSystemColor recacheColor]
   fun:-[NSDynamicSystemColor initWithSelector:]
   fun:+[NSColor controlColor]
   fun:-[NSTextFieldCell drawsBackground]
}
{
   <insert_a_suppression_name_here>
   Memcheck:Leak
   fun:calloc
   fun:_internal_class_createInstanceFromZone
   fun:__CFAllocateObject
   fun:+[__NSCFDate __new:]
   fun:+[NSDate distantPast]
   fun:-[NSColorListAuxiliary init]
   fun:-[NSColorList _initWithName:fromPath:forDeviceType:lazy:]
   fun:+[NSColorList _loadSystemScreenColorList]
   fun:+[NSColorList initialize]
   fun:_class_initialize
   fun:prepareForMethodLookup
   fun:lookUpMethod
}
{
   <insert_a_suppression_name_here>
   Memcheck:Leak
   fun:malloc_zone_calloc
   fun:attachMethodLists
   fun:realizeClass
   fun:prepareForMethodLookup
   fun:lookUpMethod
   fun:objc_msgSend
   fun:-[NSAttributedString mutableCopyWithZone:]
   fun:coverAttributeString
   fun:__NSGetStringAndAttributesFromTextCell
   fun:_NSGetTextCellBoundingRect
   fun:-[NSTitledFrame _titleCellSize]
   fun:-[NSThemeFrame _defaultTitlebarTitleRect]
}
{
   <insert_a_suppression_name_here>
   Memcheck:Leak
   fun:malloc_zone_calloc
   fun:attachMethodLists
   fun:realizeClass
   fun:_class_getNonMetaClass
   fun:_class_initialize
   fun:prepareForMethodLookup
   fun:lookUpMethod
   fun:objc_msgSend
   fun:-[NSAttributedString mutableCopyWithZone:]
   fun:coverAttributeString
   fun:__NSGetStringAndAttributesFromTextCell
   fun:_NSGetTextCellBoundingRect
}
{
   <insert_a_suppression_name_here>
   Memcheck:Leak
   fun:malloc_zone_calloc
   fun:attachMethodLists
   fun:realizeClass
   fun:realizeClass
   fun:_objc_fixupMessageRef
   fun:objc_msgSend_fixup
   fun:_ZN7QCursor3posEv
   fun:_ZN14QWidgetPrivate8show_sysEv
   fun:_ZN14QWidgetPrivate11show_helperEv
   fun:_ZN7QWidget10setVisibleEb
   fun:_ZN14QWidgetPrivate12showChildrenEb
   fun:_ZN14QWidgetPrivate11show_helperEv
}
{
   <insert_a_suppression_name_here>
   Memcheck:Leak
   fun:malloc_zone_malloc
   fun:buildProtocolList
   fun:realizeClass
   fun:realizeClass
   fun:_objc_fixupMessageRef
   fun:objc_msgSend_fixup
   fun:_ZN7QCursor3posEv
   fun:_ZN14QWidgetPrivate8show_sysEv
   fun:_ZN14QWidgetPrivate11show_helperEv
   fun:_ZN7QWidget10setVisibleEb
   fun:_ZN14QWidgetPrivate12showChildrenEb
   fun:_ZN14QWidgetPrivate11show_helperEv
}
{
   <insert_a_suppression_name_here>
   Memcheck:Leak
   fun:malloc_zone_malloc
   fun:buildProtocolList
   fun:realizeClass
   fun:_objc_fixupMessageRef
   fun:objc_msgSend_fixup
   fun:_ZN7QCursor3posEv
   fun:_ZN14QWidgetPrivate8show_sysEv
   fun:_ZN14QWidgetPrivate11show_helperEv
   fun:_ZN7QWidget10setVisibleEb
   fun:_ZN14QWidgetPrivate12showChildrenEb
   fun:_ZN14QWidgetPrivate11show_helperEv
   fun:_ZN7QWidget10setVisibleEb
}
{
   <insert_a_suppression_name_here>
   Memcheck:Leak
   fun:malloc_zone_calloc
   fun:attachMethodLists
   fun:realizeClass
   fun:realizeClass
   fun:prepareForMethodLookup
   fun:lookUpMethod
   fun:objc_msgSend
   fun:-[NSWindow _threadContext]
   fun:-[NSWindow _windowDeviceRound]
   fun:_NSCreateWindowWithOpaqueShape2
   fun:-[NSWindow _commonAwake]
   fun:-[NSWindow _makeKeyRegardlessOfVisibility]
}
{
   <insert_a_suppression_name_here>
   Memcheck:Leak
   fun:malloc_zone_calloc
   fun:attachMethodLists
   fun:realizeClass
   fun:prepareForMethodLookup
   fun:lookUpMethod
   fun:objc_msgSend
   fun:-[NSWindow _threadContext]
   fun:-[NSWindow _windowDeviceRound]
   fun:_NSCreateWindowWithOpaqueShape2
   fun:-[NSWindow _commonAwake]
   fun:-[NSWindow _makeKeyRegardlessOfVisibility]
   fun:-[NSWindow makeKeyAndOrderFront:]
}
{
   <insert_a_suppression_name_here>
   Memcheck:Leak
   fun:malloc_zone_calloc
   fun:attachMethodLists
   fun:realizeClass
   fun:_class_getNonMetaClass
   fun:_class_initialize
   fun:prepareForMethodLookup
   fun:lookUpMethod
   fun:objc_msgSend
   fun:-[NSWindow _threadContext]
   fun:-[NSWindow _windowDeviceRound]
   fun:_NSCreateWindowWithOpaqueShape2
   fun:-[NSWindow _commonAwake]
}
{
   <insert_a_suppression_name_here>
   Memcheck:Leak
   fun:malloc_zone_calloc
   fun:attachMethodLists
   fun:realizeClass
   fun:prepareForMethodLookup
   fun:lookUpMethod
   fun:objc_msgSend
   fun:+[NSGraphicsContext setCurrentContext:]
   fun:-[NSWindow _windowDeviceRound]
   fun:_NSCreateWindowWithOpaqueShape2
   fun:-[NSWindow _commonAwake]
   fun:-[NSWindow _makeKeyRegardlessOfVisibility]
   fun:-[NSWindow makeKeyAndOrderFront:]
}
{
   <insert_a_suppression_name_here>
   Memcheck:Leak
   fun:malloc_zone_calloc
   fun:attachMethodLists
   fun:realizeClass
   fun:_class_getNonMetaClass
   fun:_class_initialize
   fun:prepareForMethodLookup
   fun:lookUpMethod
   fun:objc_msgSend
   fun:+[NSGraphicsContext setCurrentContext:]
   fun:-[NSWindow _windowDeviceRound]
   fun:_NSCreateWindowWithOpaqueShape2
   fun:-[NSWindow _commonAwake]
}
{
   <insert_a_suppression_name_here>
   Memcheck:Leak
   fun:malloc_zone_calloc
   fun:attachMethodLists
   fun:realizeClass
   fun:prepareForMethodLookup
   fun:lookUpMethod
   fun:objc_msgSend
   fun:-[NSOpenGLContext setView:]
   fun:_ZN10QGLContext17updatePaintDeviceEv
   fun:_ZN9QGLWidget5eventEP6QEvent
   fun:_ZN19QApplicationPrivate13notify_helperEP7QObjectP6QEvent
   fun:_ZN12QApplication6notifyEP7QObjectP6QEvent
   fun:_ZN16QCoreApplication14notifyInternalEP7QObjectP6QEvent
}
{
   <insert_a_suppression_name_here>
   Memcheck:Leak
   fun:malloc_zone_calloc
   fun:attachMethodLists
   fun:realizeClass
   fun:_class_getNonMetaClass
   fun:_class_initialize
   fun:prepareForMethodLookup
   fun:lookUpMethod
   fun:objc_msgSend
   fun:-[NSOpenGLContext setView:]
   fun:_ZN10QGLContext17updatePaintDeviceEv
   fun:_ZN9QGLWidget5eventEP6QEvent
   fun:_ZN19QApplicationPrivate13notify_helperEP7QObjectP6QEvent
}
{
   <insert_a_suppression_name_here>
   Memcheck:Leak
   fun:malloc_zone_calloc
   fun:attachMethodLists
   fun:realizeClass
   fun:prepareForMethodLookup
   fun:lookUpMethod
   fun:objc_msgSend
   fun:-[_NSDisplayOperationStack enterDisplayOperationForWindow:windowRegion:]
   fun:-[_NSDisplayOperationStack enterViewWillDrawOperationForWindow:windowRegion:clipRootView:suppressViewWillDrawRecursion:]
   fun:-[NSView _sendViewWillDrawInRect:clipRootView:suppressRecursion:]
   fun:-[NSView displayIfNeeded]
   fun:-[QCocoaWindow displayIfNeeded]
   fun:-[NSWindow _reallyDoOrderWindow:relativeTo:findKey:forCounter:force:isModal:]
}
{
   <insert_a_suppression_name_here>
   Memcheck:Leak
   fun:malloc_zone_calloc
   fun:attachMethodLists
   fun:realizeClass
   fun:_class_getNonMetaClass
   fun:_class_initialize
   fun:prepareForMethodLookup
   fun:lookUpMethod
   fun:objc_msgSend
   fun:-[_NSDisplayOperationStack enterDisplayOperationForWindow:windowRegion:]
   fun:-[_NSDisplayOperationStack enterViewWillDrawOperationForWindow:windowRegion:clipRootView:suppressViewWillDrawRecursion:]
   fun:-[NSView _sendViewWillDrawInRect:clipRootView:suppressRecursion:]
   fun:-[NSView displayIfNeeded]
}
{
   <insert_a_suppression_name_here>
   Memcheck:Leak
   fun:malloc_zone_calloc
   fun:attachMethodLists
   fun:realizeClass
   fun:prepareForMethodLookup
   fun:lookUpMethod
   fun:objc_msgSend
   fun:-[NSView _displayRectIgnoringOpacity:isVisibleRect:rectIsVisibleRectForView:]
   fun:-[NSView displayIfNeeded]
   fun:-[QCocoaWindow displayIfNeeded]
   fun:-[NSWindow _reallyDoOrderWindow:relativeTo:findKey:forCounter:force:isModal:]
   fun:-[NSWindow orderWindow:relativeTo:]
   fun:-[NSWindow makeKeyAndOrderFront:]
}
{
   <insert_a_suppression_name_here>
   Memcheck:Leak
   fun:malloc_zone_calloc
   fun:NXHashInsert
   fun:realizeClass
   fun:prepareForMethodLookup
   fun:lookUpMethod
   fun:objc_msgSend
   fun:-[NSView _displayRectIgnoringOpacity:isVisibleRect:rectIsVisibleRectForView:]
   fun:-[NSView displayIfNeeded]
   fun:-[QCocoaWindow displayIfNeeded]
   fun:-[NSWindow _reallyDoOrderWindow:relativeTo:findKey:forCounter:force:isModal:]
   fun:-[NSWindow orderWindow:relativeTo:]
   fun:-[NSWindow makeKeyAndOrderFront:]
}
{
   <insert_a_suppression_name_here>
   Memcheck:Leak
   fun:malloc_zone_calloc
   fun:attachMethodLists
   fun:realizeClass
   fun:_class_getNonMetaClass
   fun:_class_initialize
   fun:prepareForMethodLookup
   fun:lookUpMethod
   fun:objc_msgSend
   fun:-[NSView _displayRectIgnoringOpacity:isVisibleRect:rectIsVisibleRectForView:]
   fun:-[NSView displayIfNeeded]
   fun:-[QCocoaWindow displayIfNeeded]
   fun:-[NSWindow _reallyDoOrderWindow:relativeTo:findKey:forCounter:force:isModal:]
}
{
   <insert_a_suppression_name_here>
   Memcheck:Leak
   fun:malloc_zone_calloc
   fun:attachMethodLists
   fun:realizeClass
   fun:prepareForMethodLookup
   fun:lookUpMethod
   fun:objc_msgSend
   fun:-[NSWindowGraphicsContext focusStack]
   fun:-[NSView _displayRectIgnoringOpacity:isVisibleRect:rectIsVisibleRectForView:]
   fun:-[NSView displayIfNeeded]
   fun:-[QCocoaWindow displayIfNeeded]
   fun:-[NSWindow _reallyDoOrderWindow:relativeTo:findKey:forCounter:force:isModal:]
   fun:-[NSWindow orderWindow:relativeTo:]
}
{
   <insert_a_suppression_name_here>
   Memcheck:Leak
   fun:malloc_zone_calloc
   fun:NXHashInsert
   fun:realizeClass
   fun:prepareForMethodLookup
   fun:lookUpMethod
   fun:objc_msgSend
   fun:-[NSWindowGraphicsContext focusStack]
   fun:-[NSView _displayRectIgnoringOpacity:isVisibleRect:rectIsVisibleRectForView:]
   fun:-[NSView displayIfNeeded]
   fun:-[QCocoaWindow displayIfNeeded]
   fun:-[NSWindow _reallyDoOrderWindow:relativeTo:findKey:forCounter:force:isModal:]
   fun:-[NSWindow orderWindow:relativeTo:]
}
{
   <insert_a_suppression_name_here>
   Memcheck:Leak
   fun:malloc_zone_calloc
   fun:attachMethodLists
   fun:realizeClass
   fun:_class_getNonMetaClass
   fun:_class_initialize
   fun:prepareForMethodLookup
   fun:lookUpMethod
   fun:objc_msgSend
   fun:-[NSWindowGraphicsContext focusStack]
   fun:-[NSView _displayRectIgnoringOpacity:isVisibleRect:rectIsVisibleRectForView:]
   fun:-[NSView displayIfNeeded]
   fun:-[QCocoaWindow displayIfNeeded]
}
{
   <insert_a_suppression_name_here>
   Memcheck:Leak
   fun:malloc_zone_calloc
   fun:attachMethodLists
   fun:realizeClass
   fun:realizeClass
   fun:prepareForMethodLookup
   fun:lookUpMethod
   fun:objc_msgSend
   fun:-[NSView _focusFromView:withContext:]
   fun:-[NSView lockFocusIfCanDraw]
   fun:-[NSView lockFocus]
   fun:-[NSView _displayRectIgnoringOpacity:isVisibleRect:rectIsVisibleRectForView:]
   fun:-[NSView displayIfNeeded]
}
{
   <insert_a_suppression_name_here>
   Memcheck:Leak
   fun:malloc_zone_malloc
   fun:buildProtocolList
   fun:realizeClass
   fun:realizeClass
   fun:prepareForMethodLookup
   fun:lookUpMethod
   fun:objc_msgSend
   fun:-[NSView _focusFromView:withContext:]
   fun:-[NSView lockFocusIfCanDraw]
   fun:-[NSView lockFocus]
   fun:-[NSView _displayRectIgnoringOpacity:isVisibleRect:rectIsVisibleRectForView:]
   fun:-[NSView displayIfNeeded]
}
{
   <insert_a_suppression_name_here>
   Memcheck:Leak
   fun:malloc_zone_calloc
   fun:attachMethodLists
   fun:realizeClass
   fun:prepareForMethodLookup
   fun:lookUpMethod
   fun:objc_msgSend
   fun:-[NSView _focusFromView:withContext:]
   fun:-[NSView lockFocusIfCanDraw]
   fun:-[NSView lockFocus]
   fun:-[NSView _displayRectIgnoringOpacity:isVisibleRect:rectIsVisibleRectForView:]
   fun:-[NSView displayIfNeeded]
   fun:-[QCocoaWindow displayIfNeeded]
}
{
   <insert_a_suppression_name_here>
   Memcheck:Leak
   fun:malloc_zone_calloc
   fun:attachMethodLists
   fun:realizeClass
   fun:realizeClass
   fun:_class_getNonMetaClass
   fun:_class_initialize
   fun:prepareForMethodLookup
   fun:lookUpMethod
   fun:objc_msgSend
   fun:-[NSView _focusFromView:withContext:]
   fun:-[NSView lockFocusIfCanDraw]
   fun:-[NSView lockFocus]
}
{
   <insert_a_suppression_name_here>
   Memcheck:Leak
   fun:malloc_zone_malloc
   fun:buildProtocolList
   fun:realizeClass
   fun:realizeClass
   fun:_class_getNonMetaClass
   fun:_class_initialize
   fun:prepareForMethodLookup
   fun:lookUpMethod
   fun:objc_msgSend
   fun:-[NSView _focusFromView:withContext:]
   fun:-[NSView lockFocusIfCanDraw]
   fun:-[NSView lockFocus]
}
{
   <insert_a_suppression_name_here>
   Memcheck:Leak
   fun:malloc_zone_calloc
   fun:attachMethodLists
   fun:realizeClass
   fun:_class_getNonMetaClass
   fun:_class_initialize
   fun:prepareForMethodLookup
   fun:lookUpMethod
   fun:objc_msgSend
   fun:-[NSView _focusFromView:withContext:]
   fun:-[NSView lockFocusIfCanDraw]
   fun:-[NSView lockFocus]
   fun:-[NSView _displayRectIgnoringOpacity:isVisibleRect:rectIsVisibleRectForView:]
}
{
   <insert_a_suppression_name_here>
   Memcheck:Leak
   fun:malloc_zone_calloc
   fun:attachMethodLists
   fun:realizeClass
   fun:prepareForMethodLookup
   fun:lookUpMethod
   fun:objc_msgSend
   fun:-[NSFocusStack focusView:inWindow:]
   fun:-[NSView lockFocusIfCanDraw]
   fun:-[NSView lockFocus]
   fun:-[NSView _displayRectIgnoringOpacity:isVisibleRect:rectIsVisibleRectForView:]
   fun:-[NSView displayIfNeeded]
   fun:-[QCocoaWindow displayIfNeeded]
}
{
   <insert_a_suppression_name_here>
   Memcheck:Leak
   fun:malloc_zone_calloc
   fun:attachMethodLists
   fun:realizeClass
   fun:_class_getNonMetaClass
   fun:_class_initialize
   fun:prepareForMethodLookup
   fun:lookUpMethod
   fun:objc_msgSend
   fun:-[NSFocusStack focusView:inWindow:]
   fun:-[NSView lockFocusIfCanDraw]
   fun:-[NSView lockFocus]
   fun:-[NSView _displayRectIgnoringOpacity:isVisibleRect:rectIsVisibleRectForView:]
}
{
   <insert_a_suppression_name_here>
   Memcheck:Leak
   fun:malloc_zone_calloc
   fun:NXHashInsert
   fun:addRealizedClass
   fun:realizeClass
   fun:_class_getNonMetaClass
   fun:_class_initialize
   fun:prepareForMethodLookup
   fun:lookUpMethod
   fun:objc_msgSend
   fun:-[NSFocusStack focusView:inWindow:]
   fun:-[NSView lockFocusIfCanDraw]
   fun:-[NSView lockFocus]
}
{
   <insert_a_suppression_name_here>
   Memcheck:Leak
   fun:malloc
   fun:_ZN8CUICacheC2Emm
   fun:_ZL16CreateImageCachev
   fun:pthread_once
   fun:_ZN11CUIRenderer11CreateImageElPK13CUIDescriptorP6CGRectPdPtPh
   fun:_ZN11CUIRenderer19DrawWindowFrameDarkEPK13CUIDescriptor
   fun:_ZN11CUIRenderer4DrawE6CGRectP9CGContextPK14__CFDictionaryPS5_
   fun:_NSDrawThemeBackground
   fun:-[NSThemeFrame _drawUnifiedToolbar:]
   fun:-[NSThemeFrame _drawTitleBar:]
   fun:-[NSThemeFrame drawFrame:]
   fun:-[NSFrameView drawRect:]
}
{
   <insert_a_suppression_name_here>
   Memcheck:Leak
   fun:malloc_zone_malloc
   fun:_parseComponents
   fun:_retainedComponentString
   fun:CFURLCopyScheme
   fun:CFURLCreateDataAndPropertiesFromResource
   fun:_CFBundleCopyInfoDictionaryInDirectoryWithVersion
   fun:CFBundleGetInfoDictionary
   fun:_CFBundleCreate
   fun:_CFBundleEnsureBundleExistsForImagePath
   fun:CFBundleGetBundleWithIdentifier
   fun:_ZN18CUISharedArtReader5SetupEv
   fun:_ZN18CUISharedArtReader12GetImageSizeEl
}
{
   <insert_a_suppression_name_here>
   Memcheck:Leak
   fun:malloc
   fun:_ZN8CUICacheC2Emm
   fun:_ZL26GetCubicGradientImageCachev
   fun:_ZN11CUIRenderer28CreateGrayCubicGradientImageEiii
   fun:_ZN11CUIRenderer19DrawWindowFrameDarkEPK13CUIDescriptor
   fun:_ZN11CUIRenderer4DrawE6CGRectP9CGContextPK14__CFDictionaryPS5_
   fun:_NSDrawThemeBackground
   fun:-[NSThemeFrame _drawUnifiedToolbar:]
   fun:-[NSThemeFrame _drawTitleBar:]
   fun:-[NSThemeFrame drawFrame:]
   fun:-[NSFrameView drawRect:]
   fun:-[NSThemeFrame drawRect:]
}
{
   <insert_a_suppression_name_here>
   Memcheck:Leak
   fun:malloc_zone_calloc
   fun:attachMethodLists
   fun:realizeClass
   fun:prepareForMethodLookup
   fun:lookUpMethod
   fun:objc_msgSend
   fun:-[NSControl drawRect:]
   fun:-[NSView _drawRect:clip:]
   fun:-[NSView _recursiveDisplayAllDirtyWithLockFocus:visRect:]
   fun:-[NSView _recursiveDisplayAllDirtyWithLockFocus:visRect:]
   fun:-[NSView _recursiveDisplayRectIfNeededIgnoringOpacity:isVisibleRect:rectIsVisibleRectForView:topView:]
   fun:-[NSThemeFrame _recursiveDisplayRectIfNeededIgnoringOpacity:isVisibleRect:rectIsVisibleRectForView:topView:]
}
{
   <insert_a_suppression_name_here>
   Memcheck:Leak
   fun:malloc_zone_calloc
   fun:attachMethodLists
   fun:realizeClass
   fun:_class_getNonMetaClass
   fun:_class_initialize
   fun:prepareForMethodLookup
   fun:lookUpMethod
   fun:objc_msgSend
   fun:-[NSControl drawRect:]
   fun:-[NSView _drawRect:clip:]
   fun:-[NSView _recursiveDisplayAllDirtyWithLockFocus:visRect:]
   fun:-[NSView _recursiveDisplayAllDirtyWithLockFocus:visRect:]
}
{
   <insert_a_suppression_name_here>
   Memcheck:Leak
   fun:malloc_zone_calloc
   fun:attachMethodLists
   fun:realizeClass
   fun:prepareForMethodLookup
   fun:lookUpMethod
   fun:objc_msgSend
   fun:-[NSUIHeartBeat updateHeartBeatState]
   fun:-[NSWindow(NSWindow_Theme) _updateFrameWidgets]
   fun:-[NSWindow _reallyDoOrderWindow:relativeTo:findKey:forCounter:force:isModal:]
   fun:-[NSWindow orderWindow:relativeTo:]
   fun:-[NSWindow makeKeyAndOrderFront:]
   fun:_ZN14QWidgetPrivate8show_sysEv
}
{
   <insert_a_suppression_name_here>
   Memcheck:Leak
   fun:malloc_zone_calloc
   fun:attachMethodLists
   fun:realizeClass
   fun:_class_getNonMetaClass
   fun:_class_initialize
   fun:prepareForMethodLookup
   fun:lookUpMethod
   fun:objc_msgSend
   fun:-[NSUIHeartBeat updateHeartBeatState]
   fun:-[NSWindow(NSWindow_Theme) _updateFrameWidgets]
   fun:-[NSWindow _reallyDoOrderWindow:relativeTo:findKey:forCounter:force:isModal:]
   fun:-[NSWindow orderWindow:relativeTo:]
}
{
   <insert_a_suppression_name_here>
   Memcheck:Leak
   fun:malloc_zone_calloc
   fun:attachMethodLists
   fun:realizeClass
   fun:prepareForMethodLookup
   fun:lookUpMethod
   fun:objc_msgSend
   fun:-[NSOperationQueue init]
   fun:-[NSUIHeartBeat updateHeartBeatState]
   fun:-[NSWindow(NSWindow_Theme) _updateFrameWidgets]
   fun:-[NSWindow _reallyDoOrderWindow:relativeTo:findKey:forCounter:force:isModal:]
   fun:-[NSWindow orderWindow:relativeTo:]
   fun:-[NSWindow makeKeyAndOrderFront:]
}
{
   <insert_a_suppression_name_here>
   Memcheck:Leak
   fun:malloc_zone_calloc
   fun:attachMethodLists
   fun:realizeClass
   fun:_class_getNonMetaClass
   fun:_class_initialize
   fun:prepareForMethodLookup
   fun:lookUpMethod
   fun:objc_msgSend
   fun:-[NSOperationQueue init]
   fun:-[NSUIHeartBeat updateHeartBeatState]
   fun:-[NSWindow(NSWindow_Theme) _updateFrameWidgets]
   fun:-[NSWindow _reallyDoOrderWindow:relativeTo:findKey:forCounter:force:isModal:]
}
{
   <insert_a_suppression_name_here>
   Memcheck:Leak
   fun:malloc_zone_calloc
   fun:attachMethodLists
   fun:realizeClass
   fun:prepareForMethodLookup
   fun:lookUpMethod
   fun:objc_msgSend
   fun:-[NSApplication finishLaunching]
   fun:-[NSApplication run]
   fun:_ZN19QEventDispatcherMac13processEventsE6QFlagsIN10QEventLoop17ProcessEventsFlagEE
   fun:_ZN10QEventLoop13processEventsE6QFlagsINS_17ProcessEventsFlagEE
   fun:_ZN10QEventLoop4execE6QFlagsINS_17ProcessEventsFlagEE
   fun:_ZN16QCoreApplication4execEv
}
{
   <insert_a_suppression_name_here>
   Memcheck:Leak
   fun:malloc_zone_malloc
   fun:buildProtocolList
   fun:realizeClass
   fun:prepareForMethodLookup
   fun:lookUpMethod
   fun:objc_msgSend
   fun:-[NSApplication finishLaunching]
   fun:-[NSApplication run]
   fun:_ZN19QEventDispatcherMac13processEventsE6QFlagsIN10QEventLoop17ProcessEventsFlagEE
   fun:_ZN10QEventLoop13processEventsE6QFlagsINS_17ProcessEventsFlagEE
   fun:_ZN10QEventLoop4execE6QFlagsINS_17ProcessEventsFlagEE
   fun:_ZN16QCoreApplication4execEv
}
{
   <insert_a_suppression_name_here>
   Memcheck:Leak
   fun:malloc_zone_calloc
   fun:attachMethodLists
   fun:realizeClass
   fun:_class_getNonMetaClass
   fun:_class_initialize
   fun:prepareForMethodLookup
   fun:lookUpMethod
   fun:objc_msgSend
   fun:-[NSApplication finishLaunching]
   fun:-[NSApplication run]
   fun:_ZN19QEventDispatcherMac13processEventsE6QFlagsIN10QEventLoop17ProcessEventsFlagEE
   fun:_ZN10QEventLoop13processEventsE6QFlagsINS_17ProcessEventsFlagEE
}
{
   <insert_a_suppression_name_here>
   Memcheck:Leak
   fun:malloc_zone_malloc
   fun:buildProtocolList
   fun:realizeClass
   fun:_class_getNonMetaClass
   fun:_class_initialize
   fun:prepareForMethodLookup
   fun:lookUpMethod
   fun:objc_msgSend
   fun:-[NSApplication finishLaunching]
   fun:-[NSApplication run]
   fun:_ZN19QEventDispatcherMac13processEventsE6QFlagsIN10QEventLoop17ProcessEventsFlagEE
   fun:_ZN10QEventLoop13processEventsE6QFlagsINS_17ProcessEventsFlagEE
}
{
   <insert_a_suppression_name_here>
   Memcheck:Leak
   fun:malloc_zone_malloc
   fun:_parseComponents
   fun:_retainedComponentString
   fun:CFURLCopyScheme
   fun:CFURLCreateDataAndPropertiesFromResource
   fun:_CFBundleCopyInfoDictionaryInDirectoryWithVersion
   fun:CFBundleGetInfoDictionary
   fun:_CFBundleCreate
   fun:bundleAtPath
   fun:BuildPluginList
   fun:pthread_once
   fun:GetPluginAtIndex
}
{
   <insert_a_suppression_name_here>
   Memcheck:Leak
   fun:calloc
   fun:_internal_class_createInstanceFromZone
   fun:__CFAllocateObject
   fun:+[__NSCFDate __new:]
   fun:CFDateCreate
   fun:_CFGetFileProperties
   fun:_CFBundleCreate
   fun:-[NSBundle _cfBundle]
   fun:-[NSBundle URLForResource:withExtension:]
   fun:-[NSBundle(NSBundleImageExtension) URLForImageResource:]
   fun:-[NSBundle(NSBundleImageExtension) pathForImageResource:]
   fun:-[NSInputManager initWithName:host:]
}
{
   <insert_a_suppression_name_here>
   Memcheck:Leak
   fun:malloc_zone_calloc
   fun:NXHashInsert
   fun:addRealizedClass
   fun:realizeClass
   fun:_class_getNonMetaClass
   fun:_class_initialize
   fun:prepareForMethodLookup
   fun:lookUpMethod
   fun:objc_msgSend
   fun:+[NSImageRep _imagePasteboardTypesNoCaching]
   fun:+[NSImageRep imagePasteboardTypes]
   fun:+[NSImageRep _imageFileTypesNoCaching]
}
{
   <insert_a_suppression_name_here>
   Memcheck:Leak
   fun:malloc_zone_calloc
   fun:attachMethodLists
   fun:realizeClass
   fun:prepareForMethodLookup
   fun:lookUpMethod
   fun:objc_msgSend
   fun:+[NSPasteboard(FilterServices) typesFilterableTo:]
   fun:+[NSImageRep _imagePasteboardTypesNoCaching]
   fun:+[NSImageRep imagePasteboardTypes]
   fun:+[NSImageRep _imageFileTypesNoCaching]
   fun:+[NSImageRep imageFileTypes]
   fun:newTypesList
}
{
   <insert_a_suppression_name_here>
   Memcheck:Leak
   fun:malloc_zone_calloc
   fun:attachMethodLists
   fun:realizeClass
   fun:_class_getNonMetaClass
   fun:_class_initialize
   fun:prepareForMethodLookup
   fun:lookUpMethod
   fun:objc_msgSend
   fun:+[NSPasteboard(FilterServices) typesFilterableTo:]
   fun:+[NSImageRep _imagePasteboardTypesNoCaching]
   fun:+[NSImageRep imagePasteboardTypes]
   fun:+[NSImageRep _imageFileTypesNoCaching]
}
{
   <insert_a_suppression_name_here>
   Memcheck:Leak
   fun:calloc
   fun:vproc_shmem_init
   fun:pthread_once
   fun:_vproc_transaction_begin
   fun:_CFSuddenTerminationDisable
   fun:__CFPasteboardAllocatorAllocate
   fun:__CFPasteboardCopyCanonicalBytesFromString
   fun:CFPasteboardCreate
   fun:__CFServicesCopyServicePlist
   fun:CFServiceControllerCopyServicesEntriesForLocalizations
   fun:CFServiceControllerCopyServicesEntries
   fun:_compileFilterServiceData
}
{
   <insert_a_suppression_name_here>
   Memcheck:Leak
   fun:malloc_zone_calloc
   fun:attachMethodLists
   fun:realizeClass
   fun:prepareForMethodLookup
   fun:lookUpMethod
   fun:objc_msgSend
   fun:-[NSApplication(NSAppleEventHandling) _registerRequiredAEHandlers]
   fun:-[NSApplication finishLaunching]
   fun:-[NSApplication run]
   fun:_ZN19QEventDispatcherMac13processEventsE6QFlagsIN10QEventLoop17ProcessEventsFlagEE
   fun:_ZN10QEventLoop13processEventsE6QFlagsINS_17ProcessEventsFlagEE
   fun:_ZN10QEventLoop4execE6QFlagsINS_17ProcessEventsFlagEE
}
{
   <insert_a_suppression_name_here>
   Memcheck:Leak
   fun:calloc
   fun:_internal_class_createInstanceFromZone
   fun:+[NSObject(NSObject) allocWithZone:]
   fun:+[NSAppleEventManager sharedAppleEventManager]
   fun:-[NSApplication(NSAppleEventHandling) _registerRequiredAEHandlers]
   fun:-[NSApplication finishLaunching]
   fun:-[NSApplication run]
   fun:_ZN19QEventDispatcherMac13processEventsE6QFlagsIN10QEventLoop17ProcessEventsFlagEE
   fun:_ZN10QEventLoop13processEventsE6QFlagsINS_17ProcessEventsFlagEE
   fun:_ZN10QEventLoop4execE6QFlagsINS_17ProcessEventsFlagEE
   fun:_ZN16QCoreApplication4execEv
   fun:main
}
{
   <insert_a_suppression_name_here>
   Memcheck:Leak
   fun:malloc
   fun:NSCreateMapTableWithZone
   fun:-[NSAppleEventManager setEventHandler:andSelector:forEventClass:andEventID:]
   fun:-[NSApplication(NSAppleEventHandling) _registerRequiredAEHandlers]
   fun:-[NSApplication finishLaunching]
   fun:-[NSApplication run]
   fun:_ZN19QEventDispatcherMac13processEventsE6QFlagsIN10QEventLoop17ProcessEventsFlagEE
   fun:_ZN10QEventLoop13processEventsE6QFlagsINS_17ProcessEventsFlagEE
   fun:_ZN10QEventLoop4execE6QFlagsINS_17ProcessEventsFlagEE
   fun:_ZN16QCoreApplication4execEv
   fun:main
}
{
   <insert_a_suppression_name_here>
   Memcheck:Leak
   fun:malloc
   fun:NSCreateMapTableWithZone
   fun:-[NSAppleEventManager setEventHandler:andSelector:forEventClass:andEventID:]
   fun:-[NSApplication(NSAppleEventHandling) _registerRequiredAEHandlers]
   fun:-[NSApplication finishLaunching]
   fun:-[NSApplication run]
   fun:_ZN19QEventDispatcherMac13processEventsE6QFlagsIN10QEventLoop17ProcessEventsFlagEE
   fun:_ZN10QEventLoop13processEventsE6QFlagsINS_17ProcessEventsFlagEE
   fun:_ZN10QEventLoop4execE6QFlagsINS_17ProcessEventsFlagEE
   fun:_ZN16QCoreApplication4execEv
   fun:main
}
{
   <insert_a_suppression_name_here>
   Memcheck:Leak
   fun:malloc
   fun:-[NSAppleEventManager setEventHandler:andSelector:forEventClass:andEventID:]
   fun:-[NSApplication(NSAppleEventHandling) _registerRequiredAEHandlers]
   fun:-[NSApplication finishLaunching]
   fun:-[NSApplication run]
   fun:_ZN19QEventDispatcherMac13processEventsE6QFlagsIN10QEventLoop17ProcessEventsFlagEE
   fun:_ZN10QEventLoop13processEventsE6QFlagsINS_17ProcessEventsFlagEE
   fun:_ZN10QEventLoop4execE6QFlagsINS_17ProcessEventsFlagEE
   fun:_ZN16QCoreApplication4execEv
   fun:main
}
{
   <insert_a_suppression_name_here>
   Memcheck:Leak
   fun:malloc
   fun:_Znwm
   fun:_ZL12_valueRetainPK13__CFAllocatorPKv
   fun:__CFBasicHashAddValue
   fun:CFBasicHashSetValue
   fun:CFDictionarySetValue
   fun:_ZN20OSTypePairDictionary8addValueEjjPv
   fun:_ZN12HandlerTable10addHandlerEjjPFsPK6AEDescPS0_PvES4_
   fun:AEInstallEventHandler
   fun:-[NSApplication(NSAppleEventHandling) _registerRequiredAEHandlers]
   fun:-[NSApplication finishLaunching]
   fun:-[NSApplication run]
}
{
   <insert_a_suppression_name_here>
   Memcheck:Leak
   fun:malloc
   fun:-[NSAppleEventManager setEventHandler:andSelector:forEventClass:andEventID:]
   fun:-[NSApplication(NSAppleEventHandling) _registerRequiredAEHandlers]
   fun:-[NSApplication finishLaunching]
   fun:-[NSApplication run]
   fun:_ZN19QEventDispatcherMac13processEventsE6QFlagsIN10QEventLoop17ProcessEventsFlagEE
   fun:_ZN10QEventLoop13processEventsE6QFlagsINS_17ProcessEventsFlagEE
   fun:_ZN10QEventLoop4execE6QFlagsINS_17ProcessEventsFlagEE
   fun:_ZN16QCoreApplication4execEv
   fun:main
}
{
   <insert_a_suppression_name_here>
   Memcheck:Leak
   fun:malloc
   fun:_Znwm
   fun:_ZL12_valueRetainPK13__CFAllocatorPKv
   fun:__CFBasicHashAddValue
   fun:CFBasicHashSetValue
   fun:CFDictionarySetValue
   fun:_ZN20OSTypePairDictionary8addValueEjjPv
   fun:_ZN12HandlerTable10addHandlerEjjPFsPK6AEDescPS0_PvES4_
   fun:AEInstallEventHandler
   fun:-[NSApplication(NSAppleEventHandling) _registerRequiredAEHandlers]
   fun:-[NSApplication finishLaunching]
   fun:-[NSApplication run]
}
{
   <insert_a_suppression_name_here>
   Memcheck:Leak
   fun:malloc
   fun:-[NSAppleEventManager setEventHandler:andSelector:forEventClass:andEventID:]
   fun:-[NSApplication(NSAppleEventHandling) _registerRequiredAEHandlers]
   fun:-[NSApplication finishLaunching]
   fun:-[NSApplication run]
   fun:_ZN19QEventDispatcherMac13processEventsE6QFlagsIN10QEventLoop17ProcessEventsFlagEE
   fun:_ZN10QEventLoop13processEventsE6QFlagsINS_17ProcessEventsFlagEE
   fun:_ZN10QEventLoop4execE6QFlagsINS_17ProcessEventsFlagEE
   fun:_ZN16QCoreApplication4execEv
   fun:main
}
{
   <insert_a_suppression_name_here>
   Memcheck:Leak
   fun:malloc
   fun:_Znwm
   fun:_ZL12_valueRetainPK13__CFAllocatorPKv
   fun:__CFBasicHashReplaceValue
   fun:CFBasicHashSetValue
   fun:CFDictionarySetValue
   fun:_ZN20OSTypePairDictionary8addValueEjjPv
   fun:_ZN12HandlerTable10addHandlerEjjPFsPK6AEDescPS0_PvES4_
   fun:AEInstallEventHandler
   fun:-[NSApplication(NSAppleEventHandling) _registerRequiredAEHandlers]
   fun:-[NSApplication finishLaunching]
   fun:-[NSApplication run]
}
{
   <insert_a_suppression_name_here>
   Memcheck:Leak
   fun:malloc
   fun:-[NSAppleEventManager setEventHandler:andSelector:forEventClass:andEventID:]
   fun:-[NSApplication(NSAppleEventHandling) _registerRequiredAEHandlers]
   fun:-[NSApplication finishLaunching]
   fun:-[NSApplication run]
   fun:_ZN19QEventDispatcherMac13processEventsE6QFlagsIN10QEventLoop17ProcessEventsFlagEE
   fun:_ZN10QEventLoop13processEventsE6QFlagsINS_17ProcessEventsFlagEE
   fun:_ZN10QEventLoop4execE6QFlagsINS_17ProcessEventsFlagEE
   fun:_ZN16QCoreApplication4execEv
   fun:main
}
{
   <insert_a_suppression_name_here>
   Memcheck:Leak
   fun:malloc
   fun:_Znwm
   fun:_ZL12_valueRetainPK13__CFAllocatorPKv
   fun:__CFBasicHashAddValue
   fun:CFBasicHashSetValue
   fun:CFDictionarySetValue
   fun:_ZN20OSTypePairDictionary8addValueEjjPv
   fun:_ZN12HandlerTable10addHandlerEjjPFsPK6AEDescPS0_PvES4_
   fun:AEInstallEventHandler
   fun:-[NSApplication(NSAppleEventHandling) _registerRequiredAEHandlers]
   fun:-[NSApplication finishLaunching]
   fun:-[NSApplication run]
}
{
   <insert_a_suppression_name_here>
   Memcheck:Leak
   fun:malloc
   fun:-[NSAppleEventManager setEventHandler:andSelector:forEventClass:andEventID:]
   fun:-[NSApplication(NSAppleEventHandling) _registerRequiredAEHandlers]
   fun:-[NSApplication finishLaunching]
   fun:-[NSApplication run]
   fun:_ZN19QEventDispatcherMac13processEventsE6QFlagsIN10QEventLoop17ProcessEventsFlagEE
   fun:_ZN10QEventLoop13processEventsE6QFlagsINS_17ProcessEventsFlagEE
   fun:_ZN10QEventLoop4execE6QFlagsINS_17ProcessEventsFlagEE
   fun:_ZN16QCoreApplication4execEv
   fun:main
}
{
   <insert_a_suppression_name_here>
   Memcheck:Leak
   fun:malloc
   fun:_Znwm
   fun:_ZL12_valueRetainPK13__CFAllocatorPKv
   fun:__CFBasicHashAddValue
   fun:CFBasicHashSetValue
   fun:CFDictionarySetValue
   fun:_ZN20OSTypePairDictionary8addValueEjjPv
   fun:_ZN12HandlerTable10addHandlerEjjPFsPK6AEDescPS0_PvES4_
   fun:AEInstallEventHandler
   fun:-[NSApplication(NSAppleEventHandling) _registerRequiredAEHandlers]
   fun:-[NSApplication finishLaunching]
   fun:-[NSApplication run]
}
{
   <insert_a_suppression_name_here>
   Memcheck:Leak
   fun:malloc
   fun:_Znwm
   fun:_ZL12_valueRetainPK13__CFAllocatorPKv
   fun:__CFBasicHashReplaceValue
   fun:CFBasicHashSetValue
   fun:CFDictionarySetValue
   fun:_ZN20OSTypePairDictionary8addValueEjjPv
   fun:_ZN12HandlerTable10addHandlerEjjPFsPK6AEDescPS0_PvES4_
   fun:AEInstallEventHandler
   fun:-[NSApplication(NSAppleEventHandling) _registerRequiredAEHandlers]
   fun:-[NSApplication finishLaunching]
   fun:-[NSApplication run]
}
{
   <insert_a_suppression_name_here>
   Memcheck:Leak
   fun:malloc_zone_calloc
   fun:attachMethodLists
   fun:realizeClass
   fun:prepareForMethodLookup
   fun:lookUpMethod
   fun:objc_msgSend
   fun:_NSAccessibilityInit
   fun:-[NSApplication finishLaunching]
   fun:-[NSApplication run]
   fun:_ZN19QEventDispatcherMac13processEventsE6QFlagsIN10QEventLoop17ProcessEventsFlagEE
   fun:_ZN10QEventLoop13processEventsE6QFlagsINS_17ProcessEventsFlagEE
   fun:_ZN10QEventLoop4execE6QFlagsINS_17ProcessEventsFlagEE
}
{
   <insert_a_suppression_name_here>
   Memcheck:Leak
   fun:malloc_zone_calloc
   fun:attachMethodLists
   fun:realizeClass
   fun:_class_getNonMetaClass
   fun:_class_initialize
   fun:prepareForMethodLookup
   fun:lookUpMethod
   fun:objc_msgSend
   fun:_NSAccessibilityInit
   fun:-[NSApplication finishLaunching]
   fun:-[NSApplication run]
   fun:_ZN19QEventDispatcherMac13processEventsE6QFlagsIN10QEventLoop17ProcessEventsFlagEE
}
{
   <insert_a_suppression_name_here>
   Memcheck:Leak
   fun:realloc
   fun:CSMemSetHandleSize
   fun:SetHandleSize
   fun:_Z10ResizeDataP16OpaqueCollectioni
   fun:_Z10InsertItemP16OpaqueCollectionijimPKv
   fun:AddCollectionItem
   fun:_ZL23SetMenuItemPropertyCoreP8MenuDatamjjmPKv
   fun:-[NSCarbonMenuImpl _instantiateCarbonMenu]
   fun:-[NSApplication finishLaunching]
   fun:-[NSApplication run]
   fun:_ZN19QEventDispatcherMac13processEventsE6QFlagsIN10QEventLoop17ProcessEventsFlagEE
   fun:_ZN10QEventLoop13processEventsE6QFlagsINS_17ProcessEventsFlagEE
}
{
   <insert_a_suppression_name_here>
   Memcheck:Leak
   fun:realloc
   fun:CSMemSetHandleSize
   fun:SetHandleSize
   fun:_Z10ResizeDataP16OpaqueCollectioni
   fun:_Z10InsertItemP16OpaqueCollectionijimPKv
   fun:AddCollectionItem
   fun:_ZL23SetMenuItemPropertyCoreP8MenuDatamjjmPKv
   fun:-[NSCarbonMenuImpl _instantiateCarbonMenu]
   fun:-[NSCarbonMenuImpl _initialMenuRefCreateIfNecessary]
   fun:-[NSCarbonMenuImpl _carbonMenuInsertItem:atCarbonIndex:]
   fun:-[NSCarbonMenuImpl _instantiateCarbonMenu]
   fun:-[NSApplication finishLaunching]
}
{
   <insert_a_suppression_name_here>
   Memcheck:Leak
   fun:realloc
   fun:CSMemSetHandleSize
   fun:SetHandleSize
   fun:_Z10ResizeDataP16OpaqueCollectioni
   fun:_Z10InsertItemP16OpaqueCollectionijimPKv
   fun:AddCollectionItem
   fun:_ZL26InsertMenuIntoHierMenuListP8MenuDataS0_
   fun:_Z14InsertMenuPrivP8MenuDataS0_sb
   fun:_Z11_InsertMenuP8MenuDatas
   fun:-[NSCarbonMenuImpl _instantiateCarbonMenu]
   fun:-[NSApplication finishLaunching]
   fun:-[NSApplication run]
}
{
   <insert_a_suppression_name_here>
   Memcheck:Leak
   fun:malloc_zone_malloc
   fun:buildProtocolList
   fun:realizeClass
   fun:prepareForMethodLookup
   fun:lookUpMethod
   fun:objc_msgSend
   fun:-[NSApplication finishLaunching]
   fun:-[NSApplication run]
   fun:_ZN19QEventDispatcherMac13processEventsE6QFlagsIN10QEventLoop17ProcessEventsFlagEE
   fun:_ZN10QEventLoop13processEventsE6QFlagsINS_17ProcessEventsFlagEE
   fun:_ZN10QEventLoop4execE6QFlagsINS_17ProcessEventsFlagEE
   fun:_ZN16QCoreApplication4execEv
}
{
   <insert_a_suppression_name_here>
   Memcheck:Leak
   fun:malloc_zone_malloc
   fun:buildProtocolList
   fun:realizeClass
   fun:_class_getNonMetaClass
   fun:_class_initialize
   fun:prepareForMethodLookup
   fun:lookUpMethod
   fun:objc_msgSend
   fun:-[NSApplication finishLaunching]
   fun:-[NSApplication run]
   fun:_ZN19QEventDispatcherMac13processEventsE6QFlagsIN10QEventLoop17ProcessEventsFlagEE
   fun:_ZN10QEventLoop13processEventsE6QFlagsINS_17ProcessEventsFlagEE
}
{
   <insert_a_suppression_name_here>
   Memcheck:Leak
   fun:malloc_zone_calloc
   fun:attachMethodLists
   fun:realizeClass
   fun:prepareForMethodLookup
   fun:lookUpMethod
   fun:objc_msgSend
   fun:-[NSDocumentController init]
   fun:+[NSDocumentController sharedDocumentController]
   fun:-[NSApplication finishLaunching]
   fun:-[NSApplication run]
   fun:_ZN19QEventDispatcherMac13processEventsE6QFlagsIN10QEventLoop17ProcessEventsFlagEE
   fun:_ZN10QEventLoop13processEventsE6QFlagsINS_17ProcessEventsFlagEE
}
{
   <insert_a_suppression_name_here>
   Memcheck:Leak
   fun:malloc_zone_calloc
   fun:attachMethodLists
   fun:realizeClass
   fun:_class_getNonMetaClass
   fun:_class_initialize
   fun:prepareForMethodLookup
   fun:lookUpMethod
   fun:objc_msgSend
   fun:-[NSDocumentController init]
   fun:+[NSDocumentController sharedDocumentController]
   fun:-[NSApplication finishLaunching]
   fun:-[NSApplication run]
}
{
   <insert_a_suppression_name_here>
   Memcheck:Leak
   fun:malloc_zone_calloc
   fun:attachMethodLists
   fun:realizeClass
   fun:prepareForMethodLookup
   fun:lookUpMethod
   fun:objc_msgSend
   fun:-[NSDocumentController(NSInternal) _typeDescriptions]
   fun:-[NSDocumentController documentClassNames]
   fun:-[NSDocumentController(NSInternal) _installOpenRecentMenus]
   fun:-[NSApplication finishLaunching]
   fun:-[NSApplication run]
   fun:_ZN19QEventDispatcherMac13processEventsE6QFlagsIN10QEventLoop17ProcessEventsFlagEE
}
{
   <insert_a_suppression_name_here>
   Memcheck:Leak
   fun:malloc_zone_calloc
   fun:attachMethodLists
   fun:realizeClass
   fun:_class_getNonMetaClass
   fun:_class_initialize
   fun:prepareForMethodLookup
   fun:lookUpMethod
   fun:objc_msgSend
   fun:-[NSDocumentController(NSInternal) _typeDescriptions]
   fun:-[NSDocumentController documentClassNames]
   fun:-[NSDocumentController(NSInternal) _installOpenRecentMenus]
   fun:-[NSApplication finishLaunching]
}
{
   <insert_a_suppression_name_here>
   Memcheck:Leak
   fun:calloc
   fun:_internal_class_createInstanceFromZone
   fun:__CFAllocateObject
   fun:+[__NSCFDate __new:]
   fun:+[NSDate distantFuture]
   fun:-[NSApplication run]
   fun:_ZN19QEventDispatcherMac13processEventsE6QFlagsIN10QEventLoop17ProcessEventsFlagEE
   fun:_ZN10QEventLoop13processEventsE6QFlagsINS_17ProcessEventsFlagEE
   fun:_ZN10QEventLoop4execE6QFlagsINS_17ProcessEventsFlagEE
   fun:_ZN16QCoreApplication4execEv
   fun:main
}
{
   <insert_a_suppression_name_here>
   Memcheck:Leak
   fun:calloc
   fun:_internal_class_createInstanceFromZone
   fun:__CFAllocateObject
   fun:+[__NSCFDate __new:]
   fun:CFDateCreate
   fun:_ZN17UnflattenedCFItem6DecodeEv
   fun:_ZN17UnflattenedCFItem6DecodeEv
   fun:_ZN17UnflattenedCFItem7CopyRefEv
   fun:_ZN17UnflattenedCFItem13GetAndReleaseEPKvmb
   fun:_LSCopyApplicationInformation
   fun:_LSCopyApplicationInformationItem
   fun:aeInitializeFromHIToolbox
}
{
   <insert_a_suppression_name_here>
   Memcheck:Leak
   fun:malloc
   fun:_CSCreateSeed
   fun:_ZN24FolderMgrClientSideCacheC2Eh
   fun:_ZN24FolderMgrClientSideCache23GetFolderCacheForDomainEs
   fun:ExtractFromFolderServerCache
   fun:GetFromFolderCache
   fun:FindFolderGuts
   fun:FlndFolderGuts
   fun:FSFindFolder
   fun:GetPathFromSearchDirectoryInfo
   fun:CacheFMMapData
   fun:IntlFCOpenComponentData
}
{
   <insert_a_suppression_name_here>
   Memcheck:Leak
   fun:malloc
   fun:_CSCreateSeed
   fun:_ZN24FolderMgrClientSideCacheC2Eh
   fun:_ZN24FolderMgrClientSideCache23GetFolderCacheForDomainEs
   fun:ExtractFromFolderServerCache
   fun:GetFromFolderCache
   fun:FindFolderGuts
   fun:FSFindFolder
   fun:GetPathFromSearchDirectoryInfo
   fun:CacheFMMapData
   fun:IntlFCOpenComponentData
   fun:InitializeInputSourceCache
}
{
   <insert_a_suppression_name_here>
   Memcheck:Leak
   fun:malloc
   fun:_ZN15TEventTypeIndex8AddTypesEmPK13EventTypeSpec
   fun:_ZL18AddHandlersToIndexP14EventTargetRecP10HandlerRecmPK13EventTypeSpec
   fun:_ZL16PushEventHandlerP14EventTargetRecPFiP25OpaqueEventHandlerCallRefP14OpaqueEventRefPvEhmPK13EventTypeSpecS5_PP21OpaqueEventHandlerRef
   fun:InstallEventHandler
   fun:_FirstEventTime
   fun:RunCurrentEventLoopInMode
   fun:ReceiveNextEventCommon
   fun:BlockUntilNextEventMatchingListInMode
   fun:_DPSNextEvent
   fun:-[NSApplication nextEventMatchingMask:untilDate:inMode:dequeue:]
   fun:-[NSApplication run]
}
{
   <insert_a_suppression_name_here>
   Memcheck:Leak
   fun:malloc
   fun:-[NSAppleEventManager setEventHandler:andSelector:forEventClass:andEventID:]
   fun:_ZN19QApplicationPrivate16setupAppleEventsEv
   fun:_ZN19QApplicationPrivate24qt_initAfterNSAppStartedEv
   fun:_ZN26QEventDispatcherMacPrivate14firstLoopEntryEP19__CFRunLoopObservermPv
   fun:__CFRunLoopDoObservers
   fun:CFRunLoopRunSpecific
   fun:RunCurrentEventLoopInMode
   fun:ReceiveNextEventCommon
   fun:BlockUntilNextEventMatchingListInMode
   fun:_DPSNextEvent
   fun:-[NSApplication nextEventMatchingMask:untilDate:inMode:dequeue:]
}
{
   <insert_a_suppression_name_here>
   Memcheck:Leak
   fun:malloc
   fun:NSCreateMapTableWithZone
   fun:-[NSAppleEventManager setEventHandler:andSelector:forEventClass:andEventID:]
   fun:_ZN19QApplicationPrivate24qt_initAfterNSAppStartedEv
   fun:_ZN26QEventDispatcherMacPrivate14firstLoopEntryEP19__CFRunLoopObservermPv
   fun:__CFRunLoopDoObservers
   fun:CFRunLoopRunSpecific
   fun:RunCurrentEventLoopInMode
   fun:ReceiveNextEventCommon
   fun:BlockUntilNextEventMatchingListInMode
   fun:_DPSNextEvent
   fun:-[NSApplication nextEventMatchingMask:untilDate:inMode:dequeue:]
}
{
   <insert_a_suppression_name_here>
   Memcheck:Leak
   fun:malloc
   fun:-[NSAppleEventManager setEventHandler:andSelector:forEventClass:andEventID:]
   fun:_ZN19QApplicationPrivate24qt_initAfterNSAppStartedEv
   fun:_ZN26QEventDispatcherMacPrivate14firstLoopEntryEP19__CFRunLoopObservermPv
   fun:__CFRunLoopDoObservers
   fun:CFRunLoopRunSpecific
   fun:RunCurrentEventLoopInMode
   fun:ReceiveNextEventCommon
   fun:BlockUntilNextEventMatchingListInMode
   fun:_DPSNextEvent
   fun:-[NSApplication nextEventMatchingMask:untilDate:inMode:dequeue:]
   fun:-[NSApplication run]
}
{
   <insert_a_suppression_name_here>
   Memcheck:Leak
   fun:malloc
   fun:_Znwm
   fun:_ZL12_valueRetainPK13__CFAllocatorPKv
   fun:__CFBasicHashReplaceValue
   fun:CFBasicHashSetValue
   fun:CFDictionarySetValue
   fun:_ZN20OSTypePairDictionary8addValueEjjPv
   fun:_ZN12HandlerTable10addHandlerEjjPFsPK6AEDescPS0_PvES4_
   fun:AEInstallEventHandler
   fun:_ZN19QApplicationPrivate24qt_initAfterNSAppStartedEv
   fun:_ZN26QEventDispatcherMacPrivate14firstLoopEntryEP19__CFRunLoopObservermPv
   fun:__CFRunLoopDoObservers
}
{
   <insert_a_suppression_name_here>
   Memcheck:Leak
   fun:malloc_zone_calloc
   fun:NXHashInsert
   fun:realizeClass
   fun:prepareForMethodLookup
   fun:lookUpMethod
   fun:objc_msgSend
   fun:-[NSApplication updateWindows]
   fun:_handleWindowsNeedUpdateNote
   fun:__CFRunLoopDoObservers
   fun:__CFRunLoopRun
   fun:CFRunLoopRunSpecific
   fun:RunCurrentEventLoopInMode
}
{
   <insert_a_suppression_name_here>
   Memcheck:Leak
   fun:malloc_zone_calloc
   fun:attachMethodLists
   fun:realizeClass
   fun:realizeClass
   fun:prepareForMethodLookup
   fun:lookUpMethod
   fun:objc_msgSend
   fun:+[NSTextInputContext initialize]
   fun:_class_initialize
   fun:prepareForMethodLookup
   fun:lookUpMethod
   fun:objc_msgSend
}
{
   <insert_a_suppression_name_here>
   Memcheck:Leak
   fun:malloc_zone_malloc
   fun:buildProtocolList
   fun:realizeClass
   fun:realizeClass
   fun:prepareForMethodLookup
   fun:lookUpMethod
   fun:objc_msgSend
   fun:+[NSTextInputContext initialize]
   fun:_class_initialize
   fun:prepareForMethodLookup
   fun:lookUpMethod
   fun:objc_msgSend
}
{
   <insert_a_suppression_name_here>
   Memcheck:Leak
   fun:malloc_zone_malloc
   fun:buildProtocolList
   fun:realizeClass
   fun:prepareForMethodLookup
   fun:lookUpMethod
   fun:objc_msgSend
   fun:+[NSTextInputContext initialize]
   fun:_class_initialize
   fun:prepareForMethodLookup
   fun:lookUpMethod
   fun:objc_msgSend
   fun:-[NSApplication updateWindows]
}
{
   <insert_a_suppression_name_here>
   Memcheck:Leak
   fun:malloc_zone_malloc
   fun:buildProtocolList
   fun:realizeClass
   fun:realizeClass
   fun:_class_getNonMetaClass
   fun:_class_initialize
   fun:prepareForMethodLookup
   fun:lookUpMethod
   fun:objc_msgSend
   fun:+[NSTextInputContext initialize]
   fun:_class_initialize
   fun:prepareForMethodLookup
}
{
   <insert_a_suppression_name_here>
   Memcheck:Leak
   fun:malloc_zone_malloc
   fun:buildProtocolList
   fun:realizeClass
   fun:_class_getNonMetaClass
   fun:_class_initialize
   fun:prepareForMethodLookup
   fun:lookUpMethod
   fun:objc_msgSend
   fun:+[NSTextInputContext initialize]
   fun:_class_initialize
   fun:prepareForMethodLookup
   fun:lookUpMethod
}
{
   <insert_a_suppression_name_here>
   Memcheck:Leak
   fun:malloc_zone_calloc
   fun:fetch_handler_list
   fun:objc_addExceptionHandler
   fun:_CFDoExceptionOperation
   fun:_NSAppKitLock
   fun:_NSInitializeKillRing
   fun:_class_initialize
   fun:prepareForMethodLookup
   fun:lookUpMethod
   fun:objc_msgSend
   fun:+[NSTextInputContext initialize]
   fun:_class_initialize
}
{
   <insert_a_suppression_name_here>
   Memcheck:Leak
   fun:malloc_zone_calloc
   fun:attachMethodLists
   fun:realizeClass
   fun:prepareForMethodLookup
   fun:lookUpMethod
   fun:objc_msgSend
   fun:_setTrackingRect
   fun:-[NSWindow _setTrackingRect:inside:owner:userData:useTrackingNum:install:]
   fun:-[NSWindow _setTrackingRect:inside:owner:userData:useTrackingNum:]
   fun:-[NSView(NSInternal) _installTrackingArea:]
   fun:-[NSView(NSInternal) _updateTrackingAreas]
   fun:_handleInvalidCursorRectsNote
}
{
   <insert_a_suppression_name_here>
   Memcheck:Leak
   fun:malloc_zone_calloc
   fun:NXHashInsert
   fun:addRealizedClass
   fun:realizeClass
   fun:_class_getNonMetaClass
   fun:_class_initialize
   fun:prepareForMethodLookup
   fun:lookUpMethod
   fun:objc_msgSend
   fun:_setTrackingRect
   fun:-[NSWindow _setTrackingRect:inside:owner:userData:useTrackingNum:install:]
   fun:-[NSWindow _setTrackingRect:inside:owner:userData:useTrackingNum:]
}
{
   <insert_a_suppression_name_here>
   Memcheck:Leak
   fun:malloc_zone_calloc
   fun:attachMethodLists
   fun:realizeClass
   fun:prepareForMethodLookup
   fun:lookUpMethod
   fun:objc_msgSend
   fun:-[__NSPlaceholderSet initWithObjects:count:]
   fun:-[NSSet initWithSet:copyItems:]
   fun:+[NSSet setWithSet:]
   fun:-[NSSet objectsWithOptions:passingTest:]
   fun:-[NSView(NSInternal) _uninstallRemovedTrackingAreas]
   fun:-[NSView(NSInternal) _updateTrackingAreas]
}
{
   <insert_a_suppression_name_here>
   Memcheck:Leak
   fun:malloc_zone_calloc
   fun:attachMethodLists
   fun:realizeClass
   fun:_class_getNonMetaClass
   fun:_class_initialize
   fun:prepareForMethodLookup
   fun:lookUpMethod
   fun:objc_msgSend
   fun:-[__NSPlaceholderSet initWithObjects:count:]
   fun:-[NSSet initWithSet:copyItems:]
   fun:+[NSSet setWithSet:]
   fun:-[NSSet objectsWithOptions:passingTest:]
}
{
   <insert_a_suppression_name_here>
   Memcheck:Leak
   fun:calloc
   fun:_internal_class_createInstanceFromZone
   fun:+[NSObject(NSObject) allocWithZone:]
   fun:+[NSSet allocWithZone:]
   fun:-[__NSPlaceholderSet initWithObjects:count:]
   fun:-[NSSet initWithSet:copyItems:]
   fun:+[NSSet setWithSet:]
   fun:-[NSSet objectsWithOptions:passingTest:]
   fun:-[NSView(NSInternal) _uninstallRemovedTrackingAreas]
   fun:-[NSView(NSInternal) _updateTrackingAreas]
   fun:CFArrayApplyFunction
   fun:-[NSView(NSInternal) _updateTrackingAreas]
}
{
   <insert_a_suppression_name_here>
   Memcheck:Leak
   fun:malloc
   fun:_Znwm
   fun:_ZL15getHandlerTableh
   fun:_ZL18AEGetEventHandler0jjPPFsPK6AEDescPS_PvEPS3_h
   fun:AEGetEventHandler
   fun:AEGetSpecialHandler
   fun:_ZL35_findSysPreHIToolboxDispatchHandlerjjPPv
   fun:_Z20aeDispatchAppleEventPK6AEDescPS_jPh
   fun:_ZL25dispatchEventAndSendReplyPK6AEDescPS_
   fun:aeProcessAppleEvent
   fun:AEProcessAppleEvent
   fun:_DPSNextEvent
}
{
   <insert_a_suppression_name_here>
   Memcheck:Leak
   fun:malloc
   fun:_Znwm
   fun:_ZL12_valueRetainPK13__CFAllocatorPKv
   fun:__CFBasicHashAddValue
   fun:CFBasicHashSetValue
   fun:CFDictionarySetValue
   fun:_ZN20OSTypePairDictionary8addValueEjjPv
   fun:_ZN12HandlerTable10addHandlerEjjPFsPK6AEDescPS0_PvES4_
   fun:AEInstallEventHandler
   fun:AEInstallSpecialHandler
   fun:-[NSAppleEventManager(NSPrivate) _prepareForDispatch]
   fun:-[NSAppleEventManager dispatchRawAppleEvent:withRawReply:handlerRefCon:]
}
{
   <insert_a_suppression_name_here>
   Memcheck:Leak
   fun:malloc_zone_calloc
   fun:attachMethodLists
   fun:realizeClass
   fun:prepareForMethodLookup
   fun:lookUpMethod
   fun:objc_msgSend
   fun:-[NSAppleEventManager dispatchRawAppleEvent:withRawReply:handlerRefCon:]
   fun:_NSAppleEventManagerGenericHandler
   fun:_Z20aeDispatchAppleEventPK6AEDescPS_jPh
   fun:_ZL25dispatchEventAndSendReplyPK6AEDescPS_
   fun:aeProcessAppleEvent
   fun:AEProcessAppleEvent
}
{
   <insert_a_suppression_name_here>
   Memcheck:Leak
   fun:malloc_zone_calloc
   fun:attachMethodLists
   fun:realizeClass
   fun:_class_getNonMetaClass
   fun:_class_initialize
   fun:prepareForMethodLookup
   fun:lookUpMethod
   fun:objc_msgSend
   fun:-[NSAppleEventManager dispatchRawAppleEvent:withRawReply:handlerRefCon:]
   fun:_NSAppleEventManagerGenericHandler
   fun:_Z20aeDispatchAppleEventPK6AEDescPS_jPh
   fun:_ZL25dispatchEventAndSendReplyPK6AEDescPS_
}
{
   <insert_a_suppression_name_here>
   Memcheck:Leak
   fun:malloc_zone_malloc
   fun:buildProtocolList
   fun:realizeClass
   fun:prepareForMethodLookup
   fun:lookUpMethod
   fun:objc_msgSend
   fun:-[NSAppleEventHandling initWithEvent:replyEvent:]
   fun:-[NSAppleEventManager dispatchRawAppleEvent:withRawReply:handlerRefCon:]
   fun:_NSAppleEventManagerGenericHandler
   fun:_Z20aeDispatchAppleEventPK6AEDescPS_jPh
   fun:_ZL25dispatchEventAndSendReplyPK6AEDescPS_
   fun:aeProcessAppleEvent
}
{
   <insert_a_suppression_name_here>
   Memcheck:Leak
   fun:malloc_zone_malloc
   fun:buildProtocolList
   fun:realizeClass
   fun:_class_getNonMetaClass
   fun:_class_initialize
   fun:prepareForMethodLookup
   fun:lookUpMethod
   fun:objc_msgSend
   fun:-[NSAppleEventHandling initWithEvent:replyEvent:]
   fun:-[NSAppleEventManager dispatchRawAppleEvent:withRawReply:handlerRefCon:]
   fun:_NSAppleEventManagerGenericHandler
   fun:_Z20aeDispatchAppleEventPK6AEDescPS_jPh
}
{
   <insert_a_suppression_name_here>
   Memcheck:Leak
   fun:malloc
   fun:_ZN15TEventTypeIndex8AddTypesEmPK13EventTypeSpec
   fun:_ZL18AddHandlersToIndexP14EventTargetRecP10HandlerRecmPK13EventTypeSpec
   fun:_ZL16PushEventHandlerP14EventTargetRecPFiP25OpaqueEventHandlerCallRefP14OpaqueEventRefPvEhmPK13EventTypeSpecS5_PP21OpaqueEventHandlerRef
   fun:InstallEventHandler
   fun:_GetMenuBarWindow
   fun:_Z14GetMenuBarViewP8MenuDatah
   fun:MBarMenuRgn
   fun:_ZL7ShowBarhh
   fun:SetMenuBarObscured
   fun:_ZN13HIApplication15HandleActivatedEP14OpaqueEventRefhP15OpaqueWindowPtr
   fun:_ZN13HIApplication13EventObserverEjP14OpaqueEventRefPv
}
{
   <insert_a_suppression_name_here>
   Memcheck:Leak
   fun:malloc
   fun:_Znwm
   fun:_ZL23THIThemeTextInfoFactoryP15HIThemeTextInfo
   fun:_ZN10DataEngine17GetTextDimensionsEPKvdP15HIThemeTextInfoPdS4_S4_
   fun:HIThemeGetTextDimensions
   fun:_ZN13HIMenuBarView16MeasureMenuTitleEP8MenuDatahPfiPh
   fun:_ZN13HIMenuBarView15MeasureAppMenusEv
   fun:_ZN13HIMenuBarView15EnsureBarLayoutEv
   fun:_ZN13HIMenuBarView17GetAvailableSpaceEP6CGRect
   fun:_Z31_HIMenuBarViewGetAvailableSpaceP16OpaqueControlRefP6CGRect
   fun:SetMenuBarLimits
   fun:_ZL7ShowBarhh
}
{
   <insert_a_suppression_name_here>
   Memcheck:Leak
   fun:malloc
   fun:CGColorSpaceGetMD5Digest
   fun:getSpaceIndexInCache
   fun:resolveSource
   fun:initializeConvertParams
   fun:CGColorTransformConvertColorFloatComponents
   fun:ripc_GetColor
   fun:ripc_Render
   fun:ripc_DrawRects
   fun:CGContextFillRects
   fun:CGContextClearRect
   fun:_ZN13HIMenuBarView8DrawSelfEsPK9__HIShapeP9CGContext
}
{
   <insert_a_suppression_name_here>
   Memcheck:Leak
   fun:malloc_zone_calloc
   fun:attachMethodLists
   fun:realizeClass
   fun:prepareForMethodLookup
   fun:lookUpMethod
   fun:objc_msgSend
   fun:+[NSKeyBindingManager initialize]
   fun:_class_initialize
   fun:prepareForMethodLookup
   fun:lookUpMethod
   fun:objc_msgSend
   fun:+[NSTextInputContext currentInputContext]
}
{
   <insert_a_suppression_name_here>
   Memcheck:Leak
   fun:malloc_zone_calloc
   fun:attachMethodLists
   fun:realizeClass
   fun:_class_getNonMetaClass
   fun:_class_initialize
   fun:prepareForMethodLookup
   fun:lookUpMethod
   fun:objc_msgSend
   fun:+[NSKeyBindingManager initialize]
   fun:_class_initialize
   fun:prepareForMethodLookup
   fun:lookUpMethod
}
{
   <insert_a_suppression_name_here>
   Memcheck:Leak
   fun:malloc_zone_calloc
   fun:attachMethodLists
   fun:realizeClass
   fun:prepareForMethodLookup
   fun:lookUpMethod
   fun:objc_msgSend
   fun:_retainedAtomFromDictionaryKeyAndValue
   fun:_retainedAtomArrayFromDictionary
   fun:-[NSKeyBindingManager initWithDictionary:]
   fun:+[NSKeyBindingManager sharedKeyBindingManager]
   fun:_class_initialize
   fun:prepareForMethodLookup
}
{
   <insert_a_suppression_name_here>
   Memcheck:Leak
   fun:malloc_zone_calloc
   fun:attachMethodLists
   fun:realizeClass
   fun:_class_getNonMetaClass
   fun:_class_initialize
   fun:prepareForMethodLookup
   fun:lookUpMethod
   fun:objc_msgSend
   fun:_retainedAtomFromDictionaryKeyAndValue
   fun:_retainedAtomArrayFromDictionary
   fun:-[NSKeyBindingManager initWithDictionary:]
   fun:+[NSKeyBindingManager sharedKeyBindingManager]
}
{
   <insert_a_suppression_name_here>
   Memcheck:Leak
   fun:malloc_zone_calloc
   fun:attachMethodLists
   fun:realizeClass
   fun:prepareForMethodLookup
   fun:lookUpMethod
   fun:objc_msgSend
   fun:_retainedAtomArrayFromDictionary
   fun:-[NSKeyBindingManager initWithDictionary:]
   fun:+[NSKeyBindingManager sharedKeyBindingManager]
   fun:_class_initialize
   fun:prepareForMethodLookup
   fun:lookUpMethod
}
{
   <insert_a_suppression_name_here>
   Memcheck:Leak
   fun:malloc_zone_calloc
   fun:attachMethodLists
   fun:realizeClass
   fun:_class_getNonMetaClass
   fun:_class_initialize
   fun:prepareForMethodLookup
   fun:lookUpMethod
   fun:objc_msgSend
   fun:_retainedAtomArrayFromDictionary
   fun:-[NSKeyBindingManager initWithDictionary:]
   fun:+[NSKeyBindingManager sharedKeyBindingManager]
   fun:_class_initialize
}
{
   <insert_a_suppression_name_here>
   Memcheck:Leak
   fun:malloc_zone_calloc
   fun:attachMethodLists
   fun:realizeClass
   fun:prepareForMethodLookup
   fun:lookUpMethod
   fun:objc_msgSend
   fun:-[NSApplication sendEvent:]
   fun:-[QNSApplication sendEvent:]
   fun:-[NSApplication run]
   fun:_ZN19QEventDispatcherMac13processEventsE6QFlagsIN10QEventLoop17ProcessEventsFlagEE
   fun:_ZN10QEventLoop13processEventsE6QFlagsINS_17ProcessEventsFlagEE
   fun:_ZN10QEventLoop4execE6QFlagsINS_17ProcessEventsFlagEE
}
{
   <insert_a_suppression_name_here>
   Memcheck:Leak
   fun:malloc_zone_calloc
   fun:attachMethodLists
   fun:realizeClass
   fun:_class_getNonMetaClass
   fun:_class_initialize
   fun:prepareForMethodLookup
   fun:lookUpMethod
   fun:objc_msgSend
   fun:-[NSApplication sendEvent:]
   fun:-[QNSApplication sendEvent:]
   fun:-[NSApplication run]
   fun:_ZN19QEventDispatcherMac13processEventsE6QFlagsIN10QEventLoop17ProcessEventsFlagEE
}
{
   <insert_a_suppression_name_here>
   Memcheck:Leak
   fun:malloc_zone_calloc
   fun:attachMethodLists
   fun:realizeClass
   fun:prepareForMethodLookup
   fun:lookUpMethod
   fun:objc_msgSend
   fun:-[NSApplication sendEvent:]
   fun:-[QNSApplication sendEvent:]
   fun:-[NSApplication run]
   fun:_ZN19QEventDispatcherMac13processEventsE6QFlagsIN10QEventLoop17ProcessEventsFlagEE
   fun:_ZN10QEventLoop13processEventsE6QFlagsINS_17ProcessEventsFlagEE
   fun:_ZN10QEventLoop4execE6QFlagsINS_17ProcessEventsFlagEE
}
{
   <insert_a_suppression_name_here>
   Memcheck:Leak
   fun:malloc_zone_calloc
   fun:NXHashInsert
   fun:realizeClass
   fun:prepareForMethodLookup
   fun:lookUpMethod
   fun:objc_msgSend
   fun:-[NSApplication sendEvent:]
   fun:-[QNSApplication sendEvent:]
   fun:-[NSApplication run]
   fun:_ZN19QEventDispatcherMac13processEventsE6QFlagsIN10QEventLoop17ProcessEventsFlagEE
   fun:_ZN10QEventLoop13processEventsE6QFlagsINS_17ProcessEventsFlagEE
   fun:_ZN10QEventLoop4execE6QFlagsINS_17ProcessEventsFlagEE
}
{
   <insert_a_suppression_name_here>
   Memcheck:Leak
   fun:malloc_zone_calloc
   fun:attachMethodLists
   fun:realizeClass
   fun:_class_getNonMetaClass
   fun:_class_initialize
   fun:prepareForMethodLookup
   fun:lookUpMethod
   fun:objc_msgSend
   fun:-[NSApplication sendEvent:]
   fun:-[QNSApplication sendEvent:]
   fun:-[NSApplication run]
   fun:_ZN19QEventDispatcherMac13processEventsE6QFlagsIN10QEventLoop17ProcessEventsFlagEE
}
{
   <insert_a_suppression_name_here>
   Memcheck:Leak
   fun:malloc_zone_calloc
   fun:attachMethodLists
   fun:realizeClass
   fun:_class_getNonMetaClass
   fun:_class_initialize
   fun:prepareForMethodLookup
   fun:lookUpMethod
   fun:objc_msgSend
   fun:-[NSCell trackMouse:inRect:ofView:untilMouseUp:]
   fun:-[NSButtonCell trackMouse:inRect:ofView:untilMouseUp:]
   fun:-[NSControl mouseDown:]
   fun:-[_NSThemeWidget mouseDown:]
}
{
   <insert_a_suppression_name_here>
   Memcheck:Leak
   fun:malloc_zone_calloc
   fun:attachMethodLists
   fun:realizeClass
   fun:prepareForMethodLookup
   fun:lookUpMethod
   fun:objc_msgSend
   fun:-[NSNotificationCenter removeObserver:name:object:]
   fun:-[NSOpenGLContext clearDrawable]
   fun:-[NSOpenGLContext dealloc]
   fun:_ZN10QGLContext5resetEv
   fun:_ZN10QGLContextD0Ev
   fun:_ZN9QGLWidgetD2Ev
}
{
   <insert_a_suppression_name_here>
   Memcheck:Leak
   fun:malloc_zone_calloc
   fun:attachMethodLists
   fun:realizeClass
   fun:_class_getNonMetaClass
   fun:_class_initialize
   fun:prepareForMethodLookup
   fun:lookUpMethod
   fun:objc_msgSend
   fun:-[NSNotificationCenter removeObserver:name:object:]
   fun:-[NSOpenGLContext clearDrawable]
   fun:-[NSOpenGLContext dealloc]
   fun:_ZN10QGLContext5resetEv
}
{
   <insert_a_suppression_name_here>
   Memcheck:Leak
   fun:malloc_zone_calloc
   fun:attachMethodLists
   fun:realizeClass
   fun:prepareForMethodLookup
   fun:lookUpMethod
   fun:objc_msgSend
   fun:-[NSObject(NSThreadPerformAdditions) performSelector:onThread:withObject:waitUntilDone:modes:]
   fun:-[NSObject(NSThreadPerformAdditions) performSelectorOnMainThread:withObject:waitUntilDone:]
   fun:-[NSTextInputContext dealloc]
   fun:-[NSView _finalizeWithReferenceCounting]
   fun:-[NSView dealloc]
   fun:-[NSControl dealloc]
}
{
   <insert_a_suppression_name_here>
   Memcheck:Leak
   fun:malloc_zone_calloc
   fun:NXHashInsert
   fun:realizeClass
   fun:prepareForMethodLookup
   fun:lookUpMethod
   fun:objc_msgSend
   fun:-[NSObject(NSThreadPerformAdditions) performSelector:onThread:withObject:waitUntilDone:modes:]
   fun:-[NSObject(NSThreadPerformAdditions) performSelectorOnMainThread:withObject:waitUntilDone:]
   fun:-[NSTextInputContext dealloc]
   fun:-[NSView _finalizeWithReferenceCounting]
   fun:-[NSView dealloc]
   fun:-[NSControl dealloc]
}
{
   <insert_a_suppression_name_here>
   Memcheck:Leak
   fun:malloc_zone_calloc
   fun:attachMethodLists
   fun:realizeClass
   fun:_class_getNonMetaClass
   fun:_class_initialize
   fun:prepareForMethodLookup
   fun:lookUpMethod
   fun:objc_msgSend
   fun:-[NSObject(NSThreadPerformAdditions) performSelector:onThread:withObject:waitUntilDone:modes:]
   fun:-[NSObject(NSThreadPerformAdditions) performSelectorOnMainThread:withObject:waitUntilDone:]
   fun:-[NSTextInputContext dealloc]
   fun:-[NSView _finalizeWithReferenceCounting]
}
{
   <insert_a_suppression_name_here>
   Memcheck:Leak
   fun:malloc
   fun:_Znwm
   fun:_ZN10CUIElement15LoadFromArtFileEPKh
   fun:_ZN10CUIElement4LoadEP11_QSIContextPK13CUIDescriptorlll
   fun:_ZN11CUIRenderer10DrawSliderEPK13CUIDescriptor
   fun:_ZN11CUIRenderer4DrawE6CGRectP9CGContextPK14__CFDictionaryPS5_
   fun:_Z18_HIThemeDrawSliderPK20HIThemeTrackDrawInfoPK6CGRectP14ThemeEraseXUPPPvP9CGContext
   fun:_Z25_HIThemeDrawTrackInternalPK20HIThemeTrackDrawInfoPK6CGRectP14ThemeEraseXUPPPvP9CGContextj
   fun:_ZNK9QMacStyle18drawComplexControlEN6QStyle14ComplexControlEPK19QStyleOptionComplexP8QPainterPK7QWidget
   fun:_ZN7QSlider10paintEventEP11QPaintEvent
   fun:_ZN7QWidget5eventEP6QEvent
   fun:_ZN15QAbstractSlider5eventEP6QEvent
}
{
   <insert_a_suppression_name_here>
   Memcheck:Leak
   fun:malloc_zone_malloc
   fun:_strdup_internal
   fun:objc_initializeClassPair_internal
   fun:objc_initializeClassPair
   fun:__CFMakeNSBlockClasses
   fun:__CFInitialize
   fun:_ZN16ImageLoaderMachO11doImageInitERKN11ImageLoader11LinkContextE
   fun:_ZN16ImageLoaderMachO16doInitializationERKN11ImageLoader11LinkContextE
   fun:_ZN11ImageLoader23recursiveInitializationERKNS_11LinkContextEj
   fun:_ZN11ImageLoader23recursiveInitializationERKNS_11LinkContextEj
   fun:_ZN11ImageLoader23recursiveInitializationERKNS_11LinkContextEj
   fun:_ZN11ImageLoader23recursiveInitializationERKNS_11LinkContextEj
}
{
   <insert_a_suppression_name_here>
   Memcheck:Leak
   fun:malloc_zone_malloc
   fun:_strdup_internal
   fun:objc_initializeClassPair_internal
   fun:objc_initializeClassPair
   fun:__CFMakeNSBlockClasses
   fun:__CFInitialize
   fun:_ZN16ImageLoaderMachO11doImageInitERKN11ImageLoader11LinkContextE
   fun:_ZN16ImageLoaderMachO16doInitializationERKN11ImageLoader11LinkContextE
   fun:_ZN11ImageLoader23recursiveInitializationERKNS_11LinkContextEj
   fun:_ZN11ImageLoader23recursiveInitializationERKNS_11LinkContextEj
   fun:_ZN11ImageLoader23recursiveInitializationERKNS_11LinkContextEj
   fun:_ZN11ImageLoader23recursiveInitializationERKNS_11LinkContextEj
}
{
   <insert_a_suppression_name_here>
   Memcheck:Leak
   fun:malloc
   fun:u_setDataDirectory
   fun:u_getDataDirectory
   fun:udata_setAppData
   fun:ures_getKeywordValues
   fun:ures_getUTF8String
   fun:ures_getUTF8String
   fun:ures_getUTF8String
   fun:ures_open
   fun:_ZN3icu12NumberFormat12makeInstanceERKNS_6LocaleENS0_7EStylesER10UErrorCode
   fun:unum_open
   fun:CFNumberFormatterCreate
}
{
   <insert_a_suppression_name_here>
   Memcheck:Leak
   fun:malloc
   fun:ures_getUTF8String
   fun:ures_getUTF8String
   fun:ures_getUTF8String
   fun:ures_getUTF8String
   fun:ures_openDirect
   fun:ucurr_forLocale
   fun:_ZN3icu20DecimalFormatSymbols10initializeERKNS_6LocaleER10UErrorCodea
   fun:_ZN3icu12NumberFormat12makeInstanceERKNS_6LocaleENS0_7EStylesER10UErrorCode
   fun:unum_open
   fun:CFNumberFormatterCreate
   fun:__CFLocaleCopyNumberFormat
}
{
   <insert_a_suppression_name_here>
   Memcheck:Leak
   fun:malloc_zone_malloc
   fun:malloc_set_zone_name
   fun:_malloc_initialize
   fun:malloc_good_size
   fun:__CFStringChangeSizeMultiple
   fun:CFStringAppend
   fun:CFURLCreateWithFileSystemPathRelativeToBase
   fun:_CFBundleCopyResolvedURLForExecutableURL
   fun:_CFBundleCopyBundleURLForExecutableURL
   fun:_CFBundleGetMainBundleAlreadyLocked
   fun:CFBundleGetMainBundle
   fun:cacheBundleInfo
}
{
   <insert_a_suppression_name_here>
   Memcheck:Leak
   fun:malloc_zone_malloc
   fun:_strdup_internal
   fun:objc_initializeClassPair_internal
   fun:objc_initializeClassPair
   fun:__CFMakeNSBlockClasses
   fun:__CFInitialize
   fun:_ZN16ImageLoaderMachO11doImageInitERKN11ImageLoader11LinkContextE
   fun:_ZN16ImageLoaderMachO16doInitializationERKN11ImageLoader11LinkContextE
   fun:_ZN11ImageLoader23recursiveInitializationERKNS_11LinkContextEj
   fun:_ZN11ImageLoader23recursiveInitializationERKNS_11LinkContextEj
   fun:_ZN11ImageLoader23recursiveInitializationERKNS_11LinkContextEj
   fun:_ZN11ImageLoader23recursiveInitializationERKNS_11LinkContextEj
}
{
   <insert_a_suppression_name_here>
   Memcheck:Leak
   fun:malloc_zone_malloc
   fun:_strdup_internal
   fun:objc_initializeClassPair_internal
   fun:objc_initializeClassPair
   fun:__CFMakeNSBlockClasses
   fun:__CFInitialize
   fun:_ZN16ImageLoaderMachO11doImageInitERKN11ImageLoader11LinkContextE
   fun:_ZN16ImageLoaderMachO16doInitializationERKN11ImageLoader11LinkContextE
   fun:_ZN11ImageLoader23recursiveInitializationERKNS_11LinkContextEj
   fun:_ZN11ImageLoader23recursiveInitializationERKNS_11LinkContextEj
   fun:_ZN11ImageLoader23recursiveInitializationERKNS_11LinkContextEj
   fun:_ZN11ImageLoader23recursiveInitializationERKNS_11LinkContextEj
}
{
   <insert_a_suppression_name_here>
   Memcheck:Leak
   fun:malloc_zone_malloc
   fun:_strdup_internal
   fun:objc_initializeClassPair_internal
   fun:objc_initializeClassPair
   fun:__CFMakeNSBlockClasses
   fun:__CFInitialize
   fun:_ZN16ImageLoaderMachO11doImageInitERKN11ImageLoader11LinkContextE
   fun:_ZN16ImageLoaderMachO16doInitializationERKN11ImageLoader11LinkContextE
   fun:_ZN11ImageLoader23recursiveInitializationERKNS_11LinkContextEj
   fun:_ZN11ImageLoader23recursiveInitializationERKNS_11LinkContextEj
   fun:_ZN11ImageLoader23recursiveInitializationERKNS_11LinkContextEj
   fun:_ZN11ImageLoader23recursiveInitializationERKNS_11LinkContextEj
}
{
   <insert_a_suppression_name_here>
   Memcheck:Leak
   fun:malloc_zone_malloc
   fun:_strdup_internal
   fun:objc_initializeClassPair_internal
   fun:objc_initializeClassPair
   fun:__CFMakeNSBlockClasses
   fun:__CFInitialize
   fun:_ZN16ImageLoaderMachO11doImageInitERKN11ImageLoader11LinkContextE
   fun:_ZN16ImageLoaderMachO16doInitializationERKN11ImageLoader11LinkContextE
   fun:_ZN11ImageLoader23recursiveInitializationERKNS_11LinkContextEj
   fun:_ZN11ImageLoader23recursiveInitializationERKNS_11LinkContextEj
   fun:_ZN11ImageLoader23recursiveInitializationERKNS_11LinkContextEj
   fun:_ZN11ImageLoader23recursiveInitializationERKNS_11LinkContextEj
}
{
   <insert_a_suppression_name_here>
   Memcheck:Leak
   fun:malloc
   fun:strdup
   fun:_Z14scInternStringPKc
   fun:_ZN9SCSession19findOrCreateServiceEPKcj
   fun:scCreateSystemServiceVersion
   fun:FileIDTreeGetCachedPort
   fun:FSNodeStorageGetAndLockCurrentUniverse
   fun:FileIDTreeGetVRefNumForDevice
   fun:_ZN7FSMountC2Ej17FSMountNumberTypePs
   fun:_Z17PathGetObjectInfoPKcjjPsPjS2_PcS2_Ph
   fun:_Z21FSPathMakeRefInternalPKhjjP5FSRefPh
   fun:_CFGetFSRefFromURL
}
{
   <insert_a_suppression_name_here>
   Memcheck:Leak
   fun:malloc
   fun:CGFontNameTableCreate
   fun:get_name_table
   fun:CGFontCopyPostScriptName
   fun:CGFontCreateFontsWithURL
   fun:_ZN7TCGFontC2EPK7__CFURLb
   fun:_ZNK12TCGFontCache8CopyFontEPK7__CFURL
   fun:_ZNK9TBaseFont14CopyNativeFontEv
   fun:_ZNK9TBaseFont9CopyTableEj
   fun:_ZN10TcmapTableC2ERK9TBaseFont
   fun:_ZNK9TBaseFont26GetGlyphsForCharacterRangeE7CFRangePt
   fun:_ZN15TASCIIDataCache16GetDataMapGlyphsEPK9TBaseFontRA223_t
}
{
   <insert_a_suppression_name_here>
   Memcheck:Leak
   fun:malloc
   fun:_NSNewValue
   fun:+[NSValue valueWithBytes:objCType:]
   fun:+[NSValue valueWithPointer:]
   fun:-[NSTextInputContext dealloc]
   fun:-[NSView _finalizeWithReferenceCounting]
   fun:-[NSView dealloc]
   fun:-[NSControl dealloc]
   fun:-[QCocoaView dealloc]
   fun:_CFAutoreleasePoolPop
   fun:-[NSAutoreleasePool release]
   fun:_ZN7QWidget7destroyEbb
}
{
   <insert_a_suppression_name_here>
   Memcheck:Leak
   fun:malloc_zone_malloc
   fun:_strdup_internal
   fun:objc_initializeClassPair_internal
   fun:objc_initializeClassPair
   fun:__CFMakeNSBlockClasses
   fun:__CFInitialize
   fun:_ZN16ImageLoaderMachO11doImageInitERKN11ImageLoader11LinkContextE
   fun:_ZN16ImageLoaderMachO16doInitializationERKN11ImageLoader11LinkContextE
   fun:_ZN11ImageLoader23recursiveInitializationERKNS_11LinkContextEj
   fun:_ZN11ImageLoader23recursiveInitializationERKNS_11LinkContextEj
   fun:_ZN11ImageLoader23recursiveInitializationERKNS_11LinkContextEj
   fun:_ZN11ImageLoader23recursiveInitializationERKNS_11LinkContextEj
}
{
   <insert_a_suppression_name_here>
   Memcheck:Leak
   fun:malloc_zone_malloc
   fun:_strdup_internal
   fun:objc_initializeClassPair_internal
   fun:objc_initializeClassPair
   fun:__CFMakeNSBlockClasses
   fun:__CFInitialize
   fun:_ZN16ImageLoaderMachO11doImageInitERKN11ImageLoader11LinkContextE
   fun:_ZN16ImageLoaderMachO16doInitializationERKN11ImageLoader11LinkContextE
   fun:_ZN11ImageLoader23recursiveInitializationERKNS_11LinkContextEj
   fun:_ZN11ImageLoader23recursiveInitializationERKNS_11LinkContextEj
   fun:_ZN11ImageLoader23recursiveInitializationERKNS_11LinkContextEj
   fun:_ZN11ImageLoader23recursiveInitializationERKNS_11LinkContextEj
}
{
   <insert_a_suppression_name_here>
   Memcheck:Leak
   fun:calloc
   fun:si_module_static_ds
   fun:si_module_with_name
   fun:init_optional_modules
   fun:si_module_static_search
   fun:si_module_with_name
   fun:si_search
   fun:getpwuid
   fun:_CFUpdateUserInfo
   fun:_CFUserName
   fun:__CFXPreferencesGetManagedSourceForBundleIDAndUser
   fun:__CFXPreferencesGetSnapshotSearchList
}
{
   <insert_a_suppression_name_here>
   Memcheck:Leak
   fun:malloc
   fun:_Znwm
   fun:_ZN8Security11ThreadNexusINS_14SecurityServer13ClientSession6ThreadEEclEv
   fun:_ZN8Security14SecurityServer13ClientSession6GlobalC2Ev
   fun:_ZN8Security11ModuleNexusINS_14SecurityServer13ClientSession6GlobalEE4makeEv
   fun:_ZN8Security17ModuleNexusCommon6createEPFPvvE
   fun:_ZN8Security11ModuleNexusINS_14SecurityServer13ClientSession6GlobalEEclEv
   fun:_ZN8Security14SecurityServer13ClientSession8activateEv
   fun:_ZN8Security14SecurityServer13ClientSession14getSessionInfoERjS2_
   fun:SessionGetInfo
   fun:_ZL21GetOurLSSessionIDInitv
   fun:pthread_once
}
{
   <insert_a_suppression_name_here>
   Memcheck:Leak
   fun:malloc
   fun:strdup
   fun:_Z14scInternStringPKc
   fun:_ZN9SCSession21findOrCreateCacheableE15SCCacheableNamePKc
   fun:scCreateCacheable
   fun:_ZN24FolderMgrClientSideCacheC2Eh
   fun:_ZN24FolderMgrClientSideCache23GetFolderCacheForDomainEs
   fun:ExtractFromFolderServerCache
   fun:GetFromFolderCache
   fun:FindFolderGuts
   fun:FSFindFolder
   fun:GetPathFromSearchDirectoryInfo
}
{
   <insert_a_suppression_name_here>
   Memcheck:Leak
   fun:malloc_zone_malloc
   fun:_strdup_internal
   fun:objc_initializeClassPair_internal
   fun:objc_initializeClassPair
   fun:__CFMakeNSBlockClasses
   fun:__CFInitialize
   fun:_ZN16ImageLoaderMachO11doImageInitERKN11ImageLoader11LinkContextE
   fun:_ZN16ImageLoaderMachO16doInitializationERKN11ImageLoader11LinkContextE
   fun:_ZN11ImageLoader23recursiveInitializationERKNS_11LinkContextEj
   fun:_ZN11ImageLoader23recursiveInitializationERKNS_11LinkContextEj
   fun:_ZN11ImageLoader23recursiveInitializationERKNS_11LinkContextEj
   fun:_ZN11ImageLoader23recursiveInitializationERKNS_11LinkContextEj
}
{
   <insert_a_suppression_name_here>
   Memcheck:Leak
   fun:malloc_zone_malloc
   fun:_strdup_internal
   fun:objc_initializeClassPair_internal
   fun:objc_initializeClassPair
   fun:__CFMakeNSBlockClasses
   fun:__CFInitialize
   fun:_ZN16ImageLoaderMachO11doImageInitERKN11ImageLoader11LinkContextE
   fun:_ZN16ImageLoaderMachO16doInitializationERKN11ImageLoader11LinkContextE
   fun:_ZN11ImageLoader23recursiveInitializationERKNS_11LinkContextEj
   fun:_ZN11ImageLoader23recursiveInitializationERKNS_11LinkContextEj
   fun:_ZN11ImageLoader23recursiveInitializationERKNS_11LinkContextEj
   fun:_ZN11ImageLoader23recursiveInitializationERKNS_11LinkContextEj
}
{
   <insert_a_suppression_name_here>
   Memcheck:Leak
   fun:malloc_zone_malloc
   fun:malloc_set_zone_name
   fun:dispatch_once_f
   fun:_dispatch_continuation_alloc_from_heap
   fun:_dispatch_barrier_async_f_slow
   fun:___CFMachPortCreateWithPort2_block_invoke_1
   fun:dispatch_barrier_sync_f
   fun:_CFMachPortCreateWithPort2
   fun:CFMachPortCreate
   fun:_CFXNotificationCenterCreate
   fun:_CFXNotificationGetHostCenter
   fun:__CFXPreferencesGetSourceForTriplet
}
{
   <insert_a_suppression_name_here>
   Memcheck:Leak
   fun:malloc_zone_malloc
   fun:buildProtocolList
   fun:remethodizeClass
   fun:_read_images
   fun:map_images_nolock
   fun:map_images
   fun:_ZN4dyldL18notifyBatchPartialE17dyld_image_statesbPFPKcS0_jPK15dyld_image_infoE
   fun:_ZN4dyld36registerImageStateBatchChangeHandlerE17dyld_image_statesPFPKcS0_jPK15dyld_image_infoE
   fun:dyld_register_image_state_change_handler
   fun:_objc_init
   fun:_ZN16ImageLoaderMachO18doModInitFunctionsERKN11ImageLoader11LinkContextE
   fun:_ZN11ImageLoader23recursiveInitializationERKNS_11LinkContextEj
}
{
   <insert_a_suppression_name_here>
   Memcheck:Leak
   fun:malloc_zone_malloc
   fun:buildProtocolList
   fun:remethodizeClass
   fun:_read_images
   fun:map_images_nolock
   fun:map_images
   fun:_ZN4dyldL18notifyBatchPartialE17dyld_image_statesbPFPKcS0_jPK15dyld_image_infoE
   fun:_ZN4dyld36registerImageStateBatchChangeHandlerE17dyld_image_statesPFPKcS0_jPK15dyld_image_infoE
   fun:dyld_register_image_state_change_handler
   fun:_objc_init
   fun:_ZN16ImageLoaderMachO18doModInitFunctionsERKN11ImageLoader11LinkContextE
   fun:_ZN11ImageLoader23recursiveInitializationERKNS_11LinkContextEj
}
{
   <insert_a_suppression_name_here>
   Memcheck:Leak
   fun:malloc_zone_malloc
   fun:__objc_sel_set_create
   fun:__sel_registerName
   fun:sel_init
   fun:map_images_nolock
   fun:map_images
   fun:_ZN4dyldL18notifyBatchPartialE17dyld_image_statesbPFPKcS0_jPK15dyld_image_infoE
   fun:_ZN4dyld36registerImageStateBatchChangeHandlerE17dyld_image_statesPFPKcS0_jPK15dyld_image_infoE
   fun:dyld_register_image_state_change_handler
   fun:_objc_init
   fun:_ZN16ImageLoaderMachO18doModInitFunctionsERKN11ImageLoader11LinkContextE
   fun:_ZN11ImageLoader23recursiveInitializationERKNS_11LinkContextEj
}
{
   <insert_a_suppression_name_here>
   Memcheck:Leak
   fun:malloc_zone_malloc
   fun:NXCreateMapTableFromZone
   fun:futureClasses
   fun:addFutureClass
   fun:_read_images
   fun:map_images_nolock
   fun:map_images
   fun:_ZN4dyldL18notifyBatchPartialE17dyld_image_statesbPFPKcS0_jPK15dyld_image_infoE
   fun:_ZN4dyld36registerImageStateBatchChangeHandlerE17dyld_image_statesPFPKcS0_jPK15dyld_image_infoE
   fun:dyld_register_image_state_change_handler
   fun:_objc_init
   fun:_ZN16ImageLoaderMachO18doModInitFunctionsERKN11ImageLoader11LinkContextE
}
{
   <insert_a_suppression_name_here>
   Memcheck:Leak
   fun:malloc_zone_malloc
   fun:NXCreateMapTableFromZone
   fun:remappedClasses
   fun:remapClass
   fun:missingWeakSuperclass
   fun:_read_images
   fun:map_images_nolock
   fun:map_images
   fun:_ZN4dyldL18notifyBatchPartialE17dyld_image_statesbPFPKcS0_jPK15dyld_image_infoE
   fun:_ZN4dyld36registerImageStateBatchChangeHandlerE17dyld_image_statesPFPKcS0_jPK15dyld_image_infoE
   fun:dyld_register_image_state_change_handler
   fun:_objc_init
}
{
   <insert_a_suppression_name_here>
   Memcheck:Leak
   fun:malloc_zone_malloc
   fun:NXCreateMapTableFromZone
   fun:namedClasses
   fun:addNamedClass
   fun:_read_images
   fun:map_images_nolock
   fun:map_images
   fun:_ZN4dyldL18notifyBatchPartialE17dyld_image_statesbPFPKcS0_jPK15dyld_image_infoE
   fun:_ZN4dyld36registerImageStateBatchChangeHandlerE17dyld_image_statesPFPKcS0_jPK15dyld_image_infoE
   fun:dyld_register_image_state_change_handler
   fun:_objc_init
   fun:_ZN16ImageLoaderMachO18doModInitFunctionsERKN11ImageLoader11LinkContextE
}
{
   <insert_a_suppression_name_here>
   Memcheck:Leak
   fun:malloc_zone_malloc
   fun:NXCreateMapTableFromZone
   fun:uninitializedClasses
   fun:addUninitializedClass
   fun:_read_images
   fun:map_images_nolock
   fun:map_images
   fun:_ZN4dyldL18notifyBatchPartialE17dyld_image_statesbPFPKcS0_jPK15dyld_image_infoE
   fun:_ZN4dyld36registerImageStateBatchChangeHandlerE17dyld_image_statesPFPKcS0_jPK15dyld_image_infoE
   fun:dyld_register_image_state_change_handler
   fun:_objc_init
   fun:_ZN16ImageLoaderMachO18doModInitFunctionsERKN11ImageLoader11LinkContextE
}
{
   <insert_a_suppression_name_here>
   Memcheck:Leak
   fun:malloc_zone_malloc
   fun:NXCreateMapTableFromZone
   fun:protocols
   fun:_read_images
   fun:map_images_nolock
   fun:map_images
   fun:_ZN4dyldL18notifyBatchPartialE17dyld_image_statesbPFPKcS0_jPK15dyld_image_infoE
   fun:_ZN4dyld36registerImageStateBatchChangeHandlerE17dyld_image_statesPFPKcS0_jPK15dyld_image_infoE
   fun:dyld_register_image_state_change_handler
   fun:_objc_init
   fun:_ZN16ImageLoaderMachO18doModInitFunctionsERKN11ImageLoader11LinkContextE
   fun:_ZN11ImageLoader23recursiveInitializationERKNS_11LinkContextEj
}
{
   <insert_a_suppression_name_here>
   Memcheck:Leak
   fun:malloc_zone_malloc
   fun:NXCreateMapTableFromZone
   fun:unattachedCategories
   fun:unattachedCategoriesForClass
   fun:realizeClass
   fun:realizeClass
   fun:realizeClass
   fun:_read_images
   fun:map_images_nolock
   fun:map_images
   fun:_ZN4dyldL18notifyBatchPartialE17dyld_image_statesbPFPKcS0_jPK15dyld_image_infoE
   fun:_ZN4dyld36registerImageStateBatchChangeHandlerE17dyld_image_statesPFPKcS0_jPK15dyld_image_infoE
}
{
   <insert_a_suppression_name_here>
   Memcheck:Leak
   fun:malloc_zone_realloc
   fun:attachMethodLists
   fun:attachCategoryMethods
   fun:realizeClass
   fun:realizeClass
   fun:realizeClass
   fun:realizeClass
   fun:look_up_class
   fun:objc_getFutureClass
   fun:_CFRuntimeBridgeClasses
   fun:__CFInitialize
   fun:_ZN16ImageLoaderMachO11doImageInitERKN11ImageLoader11LinkContextE
}
{
   <insert_a_suppression_name_here>
   Memcheck:Leak
   fun:malloc_zone_realloc
   fun:attachMethodLists
   fun:attachCategoryMethods
   fun:realizeClass
   fun:realizeClass
   fun:look_up_class
   fun:objc_getFutureClass
   fun:_CFRuntimeBridgeClasses
   fun:__CFInitialize
   fun:_ZN16ImageLoaderMachO11doImageInitERKN11ImageLoader11LinkContextE
   fun:_ZN16ImageLoaderMachO16doInitializationERKN11ImageLoader11LinkContextE
   fun:_ZN11ImageLoader23recursiveInitializationERKNS_11LinkContextEj
}
{
   <insert_a_suppression_name_here>
   Memcheck:Leak
   fun:malloc_zone_realloc
   fun:attachMethodLists
   fun:attachCategoryMethods
   fun:realizeClass
   fun:look_up_class
   fun:objc_getFutureClass
   fun:_CFRuntimeBridgeClasses
   fun:__CFInitialize
   fun:_ZN16ImageLoaderMachO11doImageInitERKN11ImageLoader11LinkContextE
   fun:_ZN16ImageLoaderMachO16doInitializationERKN11ImageLoader11LinkContextE
   fun:_ZN11ImageLoader23recursiveInitializationERKNS_11LinkContextEj
   fun:_ZN11ImageLoader23recursiveInitializationERKNS_11LinkContextEj
}
{
   <insert_a_suppression_name_here>
   Memcheck:Leak
   fun:malloc_zone_realloc
   fun:attachMethodLists
   fun:attachCategoryMethods
   fun:realizeClass
   fun:realizeClass
   fun:realizeClass
   fun:look_up_class
   fun:objc_getFutureClass
   fun:_CFRuntimeBridgeClasses
   fun:__CFInitialize
   fun:_ZN16ImageLoaderMachO11doImageInitERKN11ImageLoader11LinkContextE
   fun:_ZN16ImageLoaderMachO16doInitializationERKN11ImageLoader11LinkContextE
}
{
   <insert_a_suppression_name_here>
   Memcheck:Leak
   fun:malloc_zone_realloc
   fun:attachMethodLists
   fun:attachCategoryMethods
   fun:realizeClass
   fun:realizeClass
   fun:look_up_class
   fun:objc_getFutureClass
   fun:_CFRuntimeBridgeClasses
   fun:__CFInitialize
   fun:_ZN16ImageLoaderMachO11doImageInitERKN11ImageLoader11LinkContextE
   fun:_ZN16ImageLoaderMachO16doInitializationERKN11ImageLoader11LinkContextE
   fun:_ZN11ImageLoader23recursiveInitializationERKNS_11LinkContextEj
}
{
   <insert_a_suppression_name_here>
   Memcheck:Leak
   fun:malloc_zone_malloc
   fun:buildProtocolList
   fun:realizeClass
   fun:realizeClass
   fun:look_up_class
   fun:objc_getFutureClass
   fun:_CFRuntimeBridgeClasses
   fun:__CFInitialize
   fun:_ZN16ImageLoaderMachO11doImageInitERKN11ImageLoader11LinkContextE
   fun:_ZN16ImageLoaderMachO16doInitializationERKN11ImageLoader11LinkContextE
   fun:_ZN11ImageLoader23recursiveInitializationERKNS_11LinkContextEj
   fun:_ZN11ImageLoader23recursiveInitializationERKNS_11LinkContextEj
}
{
   <insert_a_suppression_name_here>
   Memcheck:Leak
   fun:malloc_zone_malloc
   fun:buildProtocolList
   fun:realizeClass
   fun:look_up_class
   fun:objc_getFutureClass
   fun:_CFRuntimeBridgeClasses
   fun:__CFInitialize
   fun:_ZN16ImageLoaderMachO11doImageInitERKN11ImageLoader11LinkContextE
   fun:_ZN16ImageLoaderMachO16doInitializationERKN11ImageLoader11LinkContextE
   fun:_ZN11ImageLoader23recursiveInitializationERKNS_11LinkContextEj
   fun:_ZN11ImageLoader23recursiveInitializationERKNS_11LinkContextEj
   fun:_ZN11ImageLoader23recursiveInitializationERKNS_11LinkContextEj
}
{
   <insert_a_suppression_name_here>
   Memcheck:Leak
   fun:malloc_zone_malloc
   fun:buildProtocolList
   fun:realizeClass
   fun:realizeClass
   fun:realizeClass
   fun:realizeClass
   fun:look_up_class
   fun:objc_getFutureClass
   fun:_CFRuntimeBridgeClasses
   fun:__CFInitialize
   fun:_ZN16ImageLoaderMachO11doImageInitERKN11ImageLoader11LinkContextE
   fun:_ZN16ImageLoaderMachO16doInitializationERKN11ImageLoader11LinkContextE
}
{
   <insert_a_suppression_name_here>
   Memcheck:Leak
   fun:malloc_zone_malloc
   fun:buildProtocolList
   fun:realizeClass
   fun:realizeClass
   fun:realizeClass
   fun:look_up_class
   fun:objc_getFutureClass
   fun:_CFRuntimeBridgeClasses
   fun:__CFInitialize
   fun:_ZN16ImageLoaderMachO11doImageInitERKN11ImageLoader11LinkContextE
   fun:_ZN16ImageLoaderMachO16doInitializationERKN11ImageLoader11LinkContextE
   fun:_ZN11ImageLoader23recursiveInitializationERKNS_11LinkContextEj
}
{
   <insert_a_suppression_name_here>
   Memcheck:Leak
   fun:malloc_zone_realloc
   fun:attachMethodLists
   fun:attachCategoryMethods
   fun:realizeClass
   fun:realizeClass
   fun:realizeClass
   fun:look_up_class
   fun:objc_getFutureClass
   fun:_CFRuntimeBridgeClasses
   fun:__CFInitialize
   fun:_ZN16ImageLoaderMachO11doImageInitERKN11ImageLoader11LinkContextE
   fun:_ZN16ImageLoaderMachO16doInitializationERKN11ImageLoader11LinkContextE
}
{
   <insert_a_suppression_name_here>
   Memcheck:Leak
   fun:malloc_zone_realloc
   fun:attachMethodLists
   fun:attachCategoryMethods
   fun:realizeClass
   fun:realizeClass
   fun:look_up_class
   fun:objc_getFutureClass
   fun:_CFRuntimeBridgeClasses
   fun:__CFInitialize
   fun:_ZN16ImageLoaderMachO11doImageInitERKN11ImageLoader11LinkContextE
   fun:_ZN16ImageLoaderMachO16doInitializationERKN11ImageLoader11LinkContextE
   fun:_ZN11ImageLoader23recursiveInitializationERKNS_11LinkContextEj
}
{
   <insert_a_suppression_name_here>
   Memcheck:Leak
   fun:malloc_zone_realloc
   fun:attachMethodLists
   fun:attachCategoryMethods
   fun:realizeClass
   fun:realizeClass
   fun:realizeClass
   fun:look_up_class
   fun:objc_getFutureClass
   fun:_CFRuntimeBridgeClasses
   fun:__CFInitialize
   fun:_ZN16ImageLoaderMachO11doImageInitERKN11ImageLoader11LinkContextE
   fun:_ZN16ImageLoaderMachO16doInitializationERKN11ImageLoader11LinkContextE
}
{
   <insert_a_suppression_name_here>
   Memcheck:Leak
   fun:malloc_zone_realloc
   fun:attachMethodLists
   fun:attachCategoryMethods
   fun:realizeClass
   fun:realizeClass
   fun:look_up_class
   fun:objc_getFutureClass
   fun:_CFRuntimeBridgeClasses
   fun:__CFInitialize
   fun:_ZN16ImageLoaderMachO11doImageInitERKN11ImageLoader11LinkContextE
   fun:_ZN16ImageLoaderMachO16doInitializationERKN11ImageLoader11LinkContextE
   fun:_ZN11ImageLoader23recursiveInitializationERKNS_11LinkContextEj
}
{
   <insert_a_suppression_name_here>
   Memcheck:Leak
   fun:malloc_zone_realloc
   fun:attachMethodLists
   fun:attachCategoryMethods
   fun:realizeClass
   fun:realizeClass
   fun:realizeClass
   fun:look_up_class
   fun:objc_getFutureClass
   fun:_CFRuntimeBridgeClasses
   fun:__CFInitialize
   fun:_ZN16ImageLoaderMachO11doImageInitERKN11ImageLoader11LinkContextE
   fun:_ZN16ImageLoaderMachO16doInitializationERKN11ImageLoader11LinkContextE
}
{
   <insert_a_suppression_name_here>
   Memcheck:Leak
   fun:malloc_zone_realloc
   fun:attachMethodLists
   fun:attachCategoryMethods
   fun:realizeClass
   fun:realizeClass
   fun:realizeClass
   fun:realizeClass
   fun:look_up_class
   fun:objc_getFutureClass
   fun:_CFRuntimeBridgeClasses
   fun:__CFInitialize
   fun:_ZN16ImageLoaderMachO11doImageInitERKN11ImageLoader11LinkContextE
}
{
   <insert_a_suppression_name_here>
   Memcheck:Leak
   fun:malloc_zone_realloc
   fun:attachMethodLists
   fun:attachCategoryMethods
   fun:realizeClass
   fun:realizeClass
   fun:realizeClass
   fun:look_up_class
   fun:objc_getFutureClass
   fun:_CFRuntimeBridgeClasses
   fun:__CFInitialize
   fun:_ZN16ImageLoaderMachO11doImageInitERKN11ImageLoader11LinkContextE
   fun:_ZN16ImageLoaderMachO16doInitializationERKN11ImageLoader11LinkContextE
}
{
   <insert_a_suppression_name_here>
   Memcheck:Leak
   fun:malloc_zone_realloc
   fun:attachMethodLists
   fun:attachCategoryMethods
   fun:realizeClass
   fun:realizeClass
   fun:realizeClass
   fun:look_up_class
   fun:objc_getFutureClass
   fun:_CFRuntimeBridgeClasses
   fun:__CFInitialize
   fun:_ZN16ImageLoaderMachO11doImageInitERKN11ImageLoader11LinkContextE
   fun:_ZN16ImageLoaderMachO16doInitializationERKN11ImageLoader11LinkContextE
}
{
   <insert_a_suppression_name_here>
   Memcheck:Leak
   fun:malloc_zone_realloc
   fun:attachMethodLists
   fun:attachCategoryMethods
   fun:realizeClass
   fun:realizeClass
   fun:realizeClass
   fun:look_up_class
   fun:objc_getFutureClass
   fun:_CFRuntimeBridgeClasses
   fun:__CFInitialize
   fun:_ZN16ImageLoaderMachO11doImageInitERKN11ImageLoader11LinkContextE
   fun:_ZN16ImageLoaderMachO16doInitializationERKN11ImageLoader11LinkContextE
}
{
   <insert_a_suppression_name_here>
   Memcheck:Leak
   fun:malloc_zone_malloc
   fun:__CFBasicHashRehash
   fun:__CFBasicHashAddValue
   fun:CFBasicHashAddValue
   fun:__CFRunLoopCreate
   fun:_CFRunLoopGet0
   fun:CFRunLoopGetMain
   fun:_ZN19QEventDispatcherMacC2EP7QObject
   fun:_ZN19QApplicationPrivate21createEventDispatcherEv
   fun:_ZN16QCoreApplication4initEv
   fun:_ZN16QCoreApplicationC2ER23QCoreApplicationPrivate
   fun:_ZN12QApplicationC2ERiPPci
}
{
   <insert_a_suppression_name_here>
   Memcheck:Leak
   fun:malloc_zone_malloc
   fun:__CFBasicHashRehash
   fun:__CFBasicHashAddValue
   fun:CFBasicHashSetValue
   fun:CFDictionarySetValue
   fun:_CFRunLoopGet0
   fun:CFRunLoopGetMain
   fun:_ZN19QEventDispatcherMacC2EP7QObject
   fun:_ZN19QApplicationPrivate21createEventDispatcherEv
   fun:_ZN16QCoreApplication4initEv
   fun:_ZN16QCoreApplicationC2ER23QCoreApplicationPrivate
   fun:_ZN12QApplicationC2ERiPPci
}
{
   <insert_a_suppression_name_here>
   Memcheck:Leak
   fun:malloc_zone_malloc
   fun:__CFBasicHashRehash
   fun:__CFBasicHashAddValue
   fun:CFBasicHashSetValue
   fun:CFDictionarySetValue
   fun:_CFRunLoopGet0
   fun:CFRunLoopGetMain
   fun:_ZN19QEventDispatcherMacC2EP7QObject
   fun:_ZN19QApplicationPrivate21createEventDispatcherEv
   fun:_ZN16QCoreApplication4initEv
   fun:_ZN16QCoreApplicationC2ER23QCoreApplicationPrivate
   fun:_ZN12QApplicationC2ERiPPci
}
{
   <insert_a_suppression_name_here>
   Memcheck:Leak
   fun:malloc_zone_malloc
   fun:__CFBasicHashRehash
   fun:__CFBasicHashAddValue
   fun:CFBasicHashSetValue
   fun:CFDictionarySetValue
   fun:__CFGetConverter
   fun:CFStringEncodingGetConverter
   fun:CFStringEncodingIsValidEncoding
   fun:__CFStringEncodeByteStream
   fun:constructBuffers
   fun:_parseComponents
   fun:CFURLCreateStringWithFileSystemPath
}
{
   <insert_a_suppression_name_here>
   Memcheck:Leak
   fun:malloc_zone_malloc
   fun:__CFBasicHashRehash
   fun:__CFBasicHashAddValue
   fun:CFBasicHashSetValue
   fun:CFDictionarySetValue
   fun:__CFGetConverter
   fun:CFStringEncodingGetConverter
   fun:CFStringEncodingIsValidEncoding
   fun:__CFStringEncodeByteStream
   fun:constructBuffers
   fun:_parseComponents
   fun:CFURLCreateStringWithFileSystemPath
}
{
   <insert_a_suppression_name_here>
   Memcheck:Leak
   fun:malloc_zone_malloc
   fun:_CFURLAllocateExtraDataspace
   fun:__CFURLHash
   fun:probeGC
   fun:-[__CFx606449CMT setObject:forKey:]
   fun:_CFBundleCreate
   fun:_CFBundleGetMainBundleAlreadyLocked
   fun:CFBundleGetMainBundle
   fun:cacheBundleInfo
   fun:_CFAppVersionCheckLessThan
   fun:__CFInitialize
   fun:_ZN16ImageLoaderMachO11doImageInitERKN11ImageLoader11LinkContextE
}
{
   <insert_a_suppression_name_here>
   Memcheck:Leak
   fun:malloc_zone_malloc
   fun:__CFBasicHashRehash
   fun:__CFBasicHashAddValue
   fun:CFBasicHashSetValue
   fun:CFDictionarySetValue
   fun:_CFBundleGetMainBundleAlreadyLocked
   fun:CFBundleGetMainBundle
   fun:cacheBundleInfo
   fun:_CFAppVersionCheckLessThan
   fun:__CFInitialize
   fun:_ZN16ImageLoaderMachO11doImageInitERKN11ImageLoader11LinkContextE
   fun:_ZN16ImageLoaderMachO16doInitializationERKN11ImageLoader11LinkContextE
}
{
   <insert_a_suppression_name_here>
   Memcheck:Leak
   fun:malloc_zone_malloc
   fun:__CFBasicHashRehash
   fun:__CFBasicHashAddValue
   fun:CFBasicHashSetValue
   fun:CFDictionarySetValue
   fun:_CFBundleGetMainBundleAlreadyLocked
   fun:CFBundleGetMainBundle
   fun:cacheBundleInfo
   fun:_CFAppVersionCheckLessThan
   fun:__CFInitialize
   fun:_ZN16ImageLoaderMachO11doImageInitERKN11ImageLoader11LinkContextE
   fun:_ZN16ImageLoaderMachO16doInitializationERKN11ImageLoader11LinkContextE
}
{
   <insert_a_suppression_name_here>
   Memcheck:Leak
   fun:malloc_zone_realloc
   fun:attachMethodLists
   fun:attachCategoryMethods
   fun:realizeClass
   fun:look_up_class
   fun:_NSToDoAtProcessStart
   fun:_NSInitializePlatform
   fun:call_load_methods
   fun:load_images
   fun:_ZN4dyldL12notifySingleE17dyld_image_statesPK11ImageLoader
   fun:_ZN11ImageLoader23recursiveInitializationERKNS_11LinkContextEj
   fun:_ZN11ImageLoader23recursiveInitializationERKNS_11LinkContextEj
}
{
   <insert_a_suppression_name_here>
   Memcheck:Leak
   fun:malloc_zone_realloc
   fun:attachMethodLists
   fun:attachCategoryMethods
   fun:realizeClass
   fun:realizeClass
   fun:look_up_class
   fun:_NSToDoAtProcessStart
   fun:_NSInitializePlatform
   fun:call_load_methods
   fun:load_images
   fun:_ZN4dyldL12notifySingleE17dyld_image_statesPK11ImageLoader
   fun:_ZN11ImageLoader23recursiveInitializationERKNS_11LinkContextEj
}
{
   <insert_a_suppression_name_here>
   Memcheck:Leak
   fun:malloc_zone_realloc
   fun:attachMethodLists
   fun:attachCategoryMethods
   fun:realizeClass
   fun:look_up_class
   fun:_NSToDoAtProcessStart
   fun:_NSInitializePlatform
   fun:call_load_methods
   fun:load_images
   fun:_ZN4dyldL12notifySingleE17dyld_image_statesPK11ImageLoader
   fun:_ZN11ImageLoader23recursiveInitializationERKNS_11LinkContextEj
   fun:_ZN11ImageLoader23recursiveInitializationERKNS_11LinkContextEj
}
{
   <insert_a_suppression_name_here>
   Memcheck:Leak
   fun:malloc_zone_malloc
   fun:__CFBasicHashRehash
   fun:__CFBasicHashAddValue
   fun:CFBasicHashSetValue
   fun:CFDictionarySetValue
   fun:_NSThreadGet0
   fun:call_load_methods
   fun:load_images
   fun:_ZN4dyldL12notifySingleE17dyld_image_statesPK11ImageLoader
   fun:_ZN11ImageLoader23recursiveInitializationERKNS_11LinkContextEj
   fun:_ZN11ImageLoader23recursiveInitializationERKNS_11LinkContextEj
   fun:_ZN11ImageLoader23recursiveInitializationERKNS_11LinkContextEj
}
{
   <insert_a_suppression_name_here>
   Memcheck:Leak
   fun:malloc_zone_malloc
   fun:__CFBasicHashRehash
   fun:__CFBasicHashAddValue
   fun:CFBasicHashSetValue
   fun:CFDictionarySetValue
   fun:_NSThreadGet0
   fun:call_load_methods
   fun:load_images
   fun:_ZN4dyldL12notifySingleE17dyld_image_statesPK11ImageLoader
   fun:_ZN11ImageLoader23recursiveInitializationERKNS_11LinkContextEj
   fun:_ZN11ImageLoader23recursiveInitializationERKNS_11LinkContextEj
   fun:_ZN11ImageLoader23recursiveInitializationERKNS_11LinkContextEj
}
{
   <insert_a_suppression_name_here>
   Memcheck:Leak
   fun:malloc_zone_malloc
   fun:__CFBasicHashRehash
   fun:__CFBasicHashAddValue
   fun:CFBasicHashSetValue
   fun:CFDictionarySetValue
   fun:load_function
   fun:CGLibraryLoadFunction
   fun:getUtils
   fun:CGCMSInterfaceValidateProfile
   fun:CGCMSUtilsValidateProfile
   fun:CGColorSpaceCreateWithICCData
   fun:CGSColorProfileCreateWithColorProfileID
}
{
   <insert_a_suppression_name_here>
   Memcheck:Leak
   fun:malloc_zone_malloc
   fun:__CFBasicHashRehash
   fun:__CFBasicHashAddValue
   fun:CFBasicHashSetValue
   fun:CFDictionarySetValue
   fun:load_function
   fun:CGLibraryLoadFunction
   fun:getUtils
   fun:CGCMSInterfaceValidateProfile
   fun:CGCMSUtilsValidateProfile
   fun:CGColorSpaceCreateWithICCData
   fun:CGSColorProfileCreateWithColorProfileID
}
{
   <insert_a_suppression_name_here>
   Memcheck:Leak
   fun:calloc
   fun:LI_get_thread_info
   fun:LI_set_thread_item
   fun:getpwuid
   fun:_CFUpdateUserInfo
   fun:_CFUserName
   fun:__CFXPreferencesGetManagedSourceForBundleIDAndUser
   fun:__CFXPreferencesGetSnapshotSearchList
   fun:__CFXPreferencesCopyCurrentApplicationState
   fun:CFLocaleCopyCurrent
   fun:_ZNK13QSystemLocale14fallbackLocaleEv
   fun:_ZN14QLocalePrivate19updateSystemPrivateEv
}
{
   <insert_a_suppression_name_here>
   Memcheck:Leak
   fun:malloc_zone_realloc
   fun:attachMethodLists
   fun:attachCategoryMethods
   fun:realizeClass
   fun:realizeClass
   fun:_class_getNonMetaClass
   fun:_class_initialize
   fun:prepareForMethodLookup
   fun:lookUpMethod
   fun:objc_msgSend
   fun:__CFXPreferencesGetManagedSourceForBundleIDAndUser
   fun:__CFXPreferencesGetSnapshotSearchList
}
{
   <insert_a_suppression_name_here>
   Memcheck:Leak
   fun:malloc_zone_malloc
   fun:__CFBasicHashRehash
   fun:__CFBasicHashAddValue
   fun:CFBasicHashSetValue
   fun:CFDictionarySetValue
   fun:__CFXPreferencesGetNamedVolatileSourceForBundleID
   fun:__CFXPreferencesGetSnapshotSearchList
   fun:__CFXPreferencesCopyCurrentApplicationState
   fun:CFLocaleCopyCurrent
   fun:_ZNK13QSystemLocale14fallbackLocaleEv
   fun:_ZN14QLocalePrivate19updateSystemPrivateEv
   fun:_ZL13systemPrivatev
}
{
   <insert_a_suppression_name_here>
   Memcheck:Leak
   fun:malloc_zone_malloc
   fun:__CFBasicHashRehash
   fun:__CFBasicHashAddValue
   fun:CFBasicHashSetValue
   fun:CFDictionarySetValue
   fun:__CFXPreferencesGetNamedVolatileSourceForBundleID
   fun:__CFXPreferencesGetSnapshotSearchList
   fun:__CFXPreferencesCopyCurrentApplicationState
   fun:CFLocaleCopyCurrent
   fun:_ZNK13QSystemLocale14fallbackLocaleEv
   fun:_ZN14QLocalePrivate19updateSystemPrivateEv
   fun:_ZL13systemPrivatev
}
{
   <insert_a_suppression_name_here>
   Memcheck:Leak
   fun:malloc_zone_malloc
   fun:__CFBasicHashRehash
   fun:__CFBasicHashAddValue
   fun:CFBasicHashAddValue
   fun:CFRunLoopAddSource
   fun:__CFSetApplyFunction_block_invoke_1
   fun:CFBasicHashApply
   fun:CFSetApplyFunction
   fun:CFRunLoopAddSource
   fun:_CFXNotificationCenterCreate
   fun:_CFXNotificationGetHostCenter
   fun:__CFXPreferencesGetSourceForTriplet
}
{
   <insert_a_suppression_name_here>
   Memcheck:Leak
   fun:malloc_zone_malloc
   fun:__CFBasicHashRehash
   fun:__CFBasicHashAddValue
   fun:CFBasicHashAddValue
   fun:CFRunLoopAddSource
   fun:__CFSetApplyFunction_block_invoke_1
   fun:CFBasicHashApply
   fun:CFSetApplyFunction
   fun:CFRunLoopAddSource
   fun:_CFXNotificationCenterCreate
   fun:_CFXNotificationGetHostCenter
   fun:__CFXPreferencesGetSourceForTriplet
}
{
   <insert_a_suppression_name_here>
   Memcheck:Leak
   fun:malloc_zone_malloc
   fun:CFNotificationCenterAddObserver
   fun:__CFXPreferencesGetSourceForTriplet
   fun:__CFXPreferencesGetSnapshotSearchList
   fun:__CFXPreferencesCopyCurrentApplicationState
   fun:CFLocaleCopyCurrent
   fun:_ZNK13QSystemLocale14fallbackLocaleEv
   fun:_ZN14QLocalePrivate19updateSystemPrivateEv
   fun:_ZL13systemPrivatev
   fun:_ZL14defaultPrivatev
   fun:_ZN7QLocaleC2Ev
   fun:_ZN19QResourceFileEngineC2ERK7QString
}
{
   <insert_a_suppression_name_here>
   Memcheck:Leak
   fun:malloc_zone_malloc
   fun:CFNotificationCenterAddObserver
   fun:__CFXPreferencesGetSourceForTriplet
   fun:__CFXPreferencesGetSnapshotSearchList
   fun:__CFXPreferencesCopyCurrentApplicationState
   fun:CFLocaleCopyCurrent
   fun:_ZNK13QSystemLocale14fallbackLocaleEv
   fun:_ZN14QLocalePrivate19updateSystemPrivateEv
   fun:_ZL13systemPrivatev
   fun:_ZL14defaultPrivatev
   fun:_ZN7QLocaleC2Ev
   fun:_ZN19QResourceFileEngineC2ERK7QString
}
{
   <insert_a_suppression_name_here>
   Memcheck:Leak
   fun:malloc_zone_malloc
   fun:__CFBasicHashRehash
   fun:__CFBasicHashAddValue
   fun:CFBasicHashSetValue
   fun:CFDictionarySetValue
   fun:__CFUUIDCreateWithBytesPrimitive
   fun:_CFXPreferencesGetHostUUIDString
   fun:_CFXPreferencesGetByHostIdentifierString
   fun:__CFXPreferencesGetSourceForTriplet
   fun:__CFXPreferencesGetSnapshotSearchList
   fun:__CFXPreferencesCopyCurrentApplicationState
   fun:CFLocaleCopyCurrent
}
{
   <insert_a_suppression_name_here>
   Memcheck:Leak
   fun:malloc_zone_malloc
   fun:__CFBasicHashRehash
   fun:__CFBasicHashAddValue
   fun:CFBasicHashSetValue
   fun:CFDictionarySetValue
   fun:__CFUUIDCreateWithBytesPrimitive
   fun:_CFXPreferencesGetHostUUIDString
   fun:_CFXPreferencesGetByHostIdentifierString
   fun:__CFXPreferencesGetSourceForTriplet
   fun:__CFXPreferencesGetSnapshotSearchList
   fun:__CFXPreferencesCopyCurrentApplicationState
   fun:CFLocaleCopyCurrent
}
{
   <insert_a_suppression_name_here>
   Memcheck:Leak
   fun:malloc_zone_malloc
   fun:CFNotificationCenterAddObserver
   fun:CFLocaleCopyCurrent
   fun:_ZNK13QSystemLocale14fallbackLocaleEv
   fun:_ZN14QLocalePrivate19updateSystemPrivateEv
   fun:_ZL13systemPrivatev
   fun:_ZL14defaultPrivatev
   fun:_ZN7QLocaleC2Ev
   fun:_ZN19QResourceFileEngineC2ERK7QString
   fun:_ZNK26QResourceFileEngineHandler6createERK7QString
   fun:_ZN19QAbstractFileEngine6createERK7QString
   fun:_ZN9QFileInfoC2ERK7QString
}
{
   <insert_a_suppression_name_here>
   Memcheck:Leak
   fun:malloc_zone_malloc
   fun:CFNotificationCenterAddObserver
   fun:CFLocaleCopyCurrent
   fun:_ZNK13QSystemLocale14fallbackLocaleEv
   fun:_ZN14QLocalePrivate19updateSystemPrivateEv
   fun:_ZL13systemPrivatev
   fun:_ZL14defaultPrivatev
   fun:_ZN7QLocaleC2Ev
   fun:_ZN19QResourceFileEngineC2ERK7QString
   fun:_ZNK26QResourceFileEngineHandler6createERK7QString
   fun:_ZN19QAbstractFileEngine6createERK7QString
   fun:_ZN9QFileInfoC2ERK7QString
}
{
   <insert_a_suppression_name_here>
   Memcheck:Leak
   fun:malloc_zone_malloc
   fun:CFNotificationCenterAddObserver
   fun:CFLocaleCopyCurrent
   fun:_ZNK13QSystemLocale14fallbackLocaleEv
   fun:_ZN14QLocalePrivate19updateSystemPrivateEv
   fun:_ZL13systemPrivatev
   fun:_ZL14defaultPrivatev
   fun:_ZN7QLocaleC2Ev
   fun:_ZN19QResourceFileEngineC2ERK7QString
   fun:_ZNK26QResourceFileEngineHandler6createERK7QString
   fun:_ZN19QAbstractFileEngine6createERK7QString
   fun:_ZN9QFileInfoC2ERK7QString
}
{
   <insert_a_suppression_name_here>
   Memcheck:Leak
   fun:malloc_zone_malloc
   fun:CFNotificationCenterAddObserver
   fun:CFLocaleCopyCurrent
   fun:_ZNK13QSystemLocale14fallbackLocaleEv
   fun:_ZN14QLocalePrivate19updateSystemPrivateEv
   fun:_ZL13systemPrivatev
   fun:_ZL14defaultPrivatev
   fun:_ZN7QLocaleC2Ev
   fun:_ZN19QResourceFileEngineC2ERK7QString
   fun:_ZNK26QResourceFileEngineHandler6createERK7QString
   fun:_ZN19QAbstractFileEngine6createERK7QString
   fun:_ZN9QFileInfoC2ERK7QString
}
{
   <insert_a_suppression_name_here>
   Memcheck:Leak
   fun:malloc_zone_malloc
   fun:CFNotificationCenterAddObserver
   fun:CFLocaleCopyCurrent
   fun:_ZNK13QSystemLocale14fallbackLocaleEv
   fun:_ZN14QLocalePrivate19updateSystemPrivateEv
   fun:_ZL13systemPrivatev
   fun:_ZL14defaultPrivatev
   fun:_ZN7QLocaleC2Ev
   fun:_ZN19QResourceFileEngineC2ERK7QString
   fun:_ZNK26QResourceFileEngineHandler6createERK7QString
   fun:_ZN19QAbstractFileEngine6createERK7QString
   fun:_ZN9QFileInfoC2ERK7QString
}
{
   <insert_a_suppression_name_here>
   Memcheck:Leak
   fun:malloc_zone_malloc
   fun:__CFBasicHashRehash
   fun:__CFBasicHashAddValue
   fun:CFBasicHashSetValue
   fun:CFDictionarySetValue
   fun:CFLocaleCreate
   fun:_ZNK13QSystemLocale5queryENS_9QueryTypeE8QVariant
   fun:_ZN14QLocalePrivate19updateSystemPrivateEv
   fun:_ZL13systemPrivatev
   fun:_ZL14defaultPrivatev
   fun:_ZN7QLocaleC2Ev
   fun:_ZN19QResourceFileEngineC2ERK7QString
}
{
   <insert_a_suppression_name_here>
   Memcheck:Leak
   fun:malloc_zone_malloc
   fun:__CFBasicHashRehash
   fun:__CFBasicHashAddValue
   fun:CFBasicHashSetValue
   fun:CFDictionarySetValue
   fun:CFLocaleCreate
   fun:_ZNK13QSystemLocale5queryENS_9QueryTypeE8QVariant
   fun:_ZN14QLocalePrivate19updateSystemPrivateEv
   fun:_ZL13systemPrivatev
   fun:_ZL14defaultPrivatev
   fun:_ZN7QLocaleC2Ev
   fun:_ZN19QResourceFileEngineC2ERK7QString
}
{
   <insert_a_suppression_name_here>
   Memcheck:Leak
   fun:malloc_zone_malloc
   fun:CFBasicHashCreateCopy
   fun:CFDictionaryCreateCopy
   fun:CFLocaleCreateComponentsFromLocaleIdentifier
   fun:__CFLocaleCopyCodes
   fun:CFLocaleGetValue
   fun:_ZNK13QSystemLocale5queryENS_9QueryTypeE8QVariant
   fun:_ZN14QLocalePrivate19updateSystemPrivateEv
   fun:_ZL13systemPrivatev
   fun:_ZL14defaultPrivatev
   fun:_ZN7QLocaleC2Ev
   fun:_ZN19QResourceFileEngineC2ERK7QString
}
{
   <insert_a_suppression_name_here>
   Memcheck:Leak
   fun:malloc_zone_malloc
   fun:CFBasicHashCreateCopy
   fun:CFDictionaryCreateCopy
   fun:CFLocaleCreateComponentsFromLocaleIdentifier
   fun:__CFLocaleCopyCodes
   fun:CFLocaleGetValue
   fun:_ZNK13QSystemLocale5queryENS_9QueryTypeE8QVariant
   fun:_ZN14QLocalePrivate19updateSystemPrivateEv
   fun:_ZL13systemPrivatev
   fun:_ZL14defaultPrivatev
   fun:_ZN7QLocaleC2Ev
   fun:_ZN19QResourceFileEngineC2ERK7QString
}
{
   <insert_a_suppression_name_here>
   Memcheck:Leak
   fun:malloc_zone_malloc
   fun:__CFBasicHashRehash
   fun:__CFBasicHashAddValue
   fun:CFBasicHashSetValue
   fun:CFDictionarySetValue
   fun:__CFLocaleCopyCodes
   fun:CFLocaleGetValue
   fun:_ZNK13QSystemLocale5queryENS_9QueryTypeE8QVariant
   fun:_ZN14QLocalePrivate19updateSystemPrivateEv
   fun:_ZL13systemPrivatev
   fun:_ZL14defaultPrivatev
   fun:_ZN7QLocaleC2Ev
}
{
   <insert_a_suppression_name_here>
   Memcheck:Leak
   fun:malloc_zone_malloc
   fun:__CFBasicHashRehash
   fun:__CFBasicHashAddValue
   fun:CFBasicHashSetValue
   fun:CFDictionarySetValue
   fun:__CFLocaleCopyCodes
   fun:CFLocaleGetValue
   fun:_ZNK13QSystemLocale5queryENS_9QueryTypeE8QVariant
   fun:_ZN14QLocalePrivate19updateSystemPrivateEv
   fun:_ZL13systemPrivatev
   fun:_ZL14defaultPrivatev
   fun:_ZN7QLocaleC2Ev
}
{
   <insert_a_suppression_name_here>
   Memcheck:Leak
   fun:malloc_zone_malloc
   fun:CFBasicHashCreateCopy
   fun:CFDictionaryCreateCopy
   fun:CFLocaleCreateComponentsFromLocaleIdentifier
   fun:__CFLocaleCopyCodes
   fun:CFLocaleGetValue
   fun:-[NSUserDefaults(NSUserDefaults) initWithUser:]
   fun:+[NSUserDefaults(NSUserDefaults) standardUserDefaults]
   fun:+[NSApplication initialize]
   fun:_class_initialize
   fun:_class_initialize
   fun:prepareForMethodLookup
}
{
   <insert_a_suppression_name_here>
   Memcheck:Leak
   fun:malloc_zone_malloc
   fun:CFBasicHashCreateCopy
   fun:CFDictionaryCreateCopy
   fun:CFLocaleCreateComponentsFromLocaleIdentifier
   fun:__CFLocaleCopyCodes
   fun:CFLocaleGetValue
   fun:-[NSUserDefaults(NSUserDefaults) initWithUser:]
   fun:+[NSUserDefaults(NSUserDefaults) standardUserDefaults]
   fun:+[NSApplication initialize]
   fun:_class_initialize
   fun:_class_initialize
   fun:prepareForMethodLookup
}
{
   <insert_a_suppression_name_here>
   Memcheck:Leak
   fun:malloc_zone_malloc
   fun:__CFBasicHashRehash
   fun:__CFBasicHashAddValue
   fun:CFBasicHashSetValue
   fun:CGColorSpaceRegister
   fun:CGColorSpaceCreateWithICCData
   fun:CGSColorProfileCreateWithColorProfileID
   fun:bindDisplayMapping
   fun:updateAllDisplayInfoAsNeeded
   fun:CGSGetDisplayList
   fun:initDisplays
   fun:CGDisplayRegisterReconfigurationCallback
}
{
   <insert_a_suppression_name_here>
   Memcheck:Leak
   fun:malloc
   fun:_Znwm
   fun:_ZN8Security11ModuleNexusINS_14SecurityServer13ClientSession6GlobalEE4makeEv
   fun:_ZN8Security17ModuleNexusCommon6createEPFPvvE
   fun:_ZN8Security11ModuleNexusINS_14SecurityServer13ClientSession6GlobalEEclEv
   fun:_ZN8Security14SecurityServer13ClientSession8activateEv
   fun:_ZN8Security14SecurityServer13ClientSession14getSessionInfoERjS2_
   fun:SessionGetInfo
   fun:_ZL21GetOurLSSessionIDInitv
   fun:pthread_once
   fun:_Z28GetOurLSSessionAttributeBitsv
   fun:_Z20NormalizeLSSessionID11LSSessionID
}
{
   <insert_a_suppression_name_here>
   Memcheck:Leak
   fun:malloc
   fun:_Znwm
   fun:scAddReconnectProc
   fun:_ZL45SetupCoreApplicationServicesCommunicationPortv
   fun:_Z19IsLSServerConnectedb
   fun:_LSApplicationCheckIn
   fun:_RegisterApplication
   fun:GetCurrentProcess
   fun:_Z7qt_initP19QApplicationPrivatei
   fun:_ZN19QApplicationPrivate9constructEv
   fun:_ZN12QApplicationC2ERiPPci
   fun:main
}
{
   <insert_a_suppression_name_here>
   Memcheck:Leak
   fun:malloc_zone_malloc
   fun:__CFBasicHashRehash
   fun:__CFBasicHashAddValue
   fun:CFBasicHashAddValue
   fun:CFRunLoopAddSource
   fun:_RegisterApplication
   fun:GetCurrentProcess
   fun:_Z7qt_initP19QApplicationPrivatei
   fun:_ZN19QApplicationPrivate9constructEv
   fun:_ZN12QApplicationC2ERiPPci
   fun:main
}
{
   <insert_a_suppression_name_here>
   Memcheck:Leak
   fun:malloc_zone_malloc
   fun:__CFBasicHashRehash
   fun:__CFBasicHashAddValue
   fun:CFBasicHashAddValue
   fun:CFRunLoopAddSource
   fun:_RegisterApplication
   fun:GetCurrentProcess
   fun:_Z7qt_initP19QApplicationPrivatei
   fun:_ZN19QApplicationPrivate9constructEv
   fun:_ZN12QApplicationC2ERiPPci
   fun:main
}
{
   <insert_a_suppression_name_here>
   Memcheck:Leak
   fun:malloc_zone_malloc
   fun:__CFBasicHashRehash
   fun:__CFBasicHashAddValue
   fun:CFBasicHashAddValue
   fun:CFRunLoopAddSource
   fun:__CFSetApplyFunction_block_invoke_1
   fun:CFBasicHashApply
   fun:CFSetApplyFunction
   fun:CFRunLoopAddSource
   fun:_LSScheduleNotificationFunction
   fun:_RegisterApplication
   fun:GetCurrentProcess
}
{
   <insert_a_suppression_name_here>
   Memcheck:Leak
   fun:malloc_zone_malloc
   fun:__CFBasicHashRehash
   fun:__CFBasicHashAddValue
   fun:CFBasicHashAddValue
   fun:CFRunLoopAddSource
   fun:__CFSetApplyFunction_block_invoke_1
   fun:CFBasicHashApply
   fun:CFSetApplyFunction
   fun:CFRunLoopAddSource
   fun:_LSScheduleNotificationFunction
   fun:_RegisterApplication
   fun:GetCurrentProcess
}
{
   <insert_a_suppression_name_here>
   Memcheck:Leak
   fun:malloc_zone_malloc
   fun:CFNotificationCenterAddObserver
   fun:pthread_once
   fun:ColorSyncDeviceCopyDeviceInfo
   fun:CMGetDeviceProfile
   fun:GetProfileLocationOfSuite
   fun:_CMGetProfileOfSuite
   fun:_ZN24QCoreGraphicsPaintEngine20macDisplayColorSpaceEPK7QWidget
   fun:_Z17qt_mac_cg_contextPK12QPaintDevice
   fun:_ZNK16QMacStylePrivate25generateBackgroundPatternEv
   fun:_ZN9QMacStyle6polishER8QPalette
   fun:_ZN19QApplicationPrivate17setPalette_helperERK8QPalettePKcb
}
{
   <insert_a_suppression_name_here>
   Memcheck:Leak
   fun:malloc_zone_malloc
   fun:__CFBasicHashRehash
   fun:__CFBasicHashAddValue
   fun:CFBasicHashSetValue
   fun:CFDictionarySetValue
   fun:initialize
   fun:createColorTransform
   fun:CGBitmapColorTransformCreate
   fun:__CGBitmapContextDelegateCreate
   fun:bitmap_context_create
   fun:CGBitmapContextCreateWithData
   fun:CGBitmapContextCreate
}
{
   <insert_a_suppression_name_here>
   Memcheck:Leak
   fun:malloc_zone_malloc
   fun:__CFBasicHashRehash
   fun:__CFBasicHashAddValue
   fun:CFBasicHashSetValue
   fun:CFDictionarySetValue
   fun:initialize
   fun:createColorTransform
   fun:CGBitmapColorTransformCreate
   fun:__CGBitmapContextDelegateCreate
   fun:bitmap_context_create
   fun:CGBitmapContextCreateWithData
   fun:CGBitmapContextCreate
}
{
   <insert_a_suppression_name_here>
   Memcheck:Leak
   fun:malloc_zone_malloc
   fun:CFNotificationCenterAddObserver
   fun:CUIGetTheme
   fun:_ZN11CUIRendererC2EPK14__CFDictionary
   fun:_ZN11CUIRenderer6CreateEPK14__CFDictionary
   fun:_HIThemeGetCUIRenderer
   fun:_HIThemeCopyCUIColor
   fun:_HIThemeCopyCUIBackgroundColorForThemeBrush
   fun:_HIThemeSetColor
   fun:_ZNK16QMacStylePrivate25generateBackgroundPatternEv
   fun:_ZN9QMacStyle6polishER8QPalette
   fun:_ZN19QApplicationPrivate17setPalette_helperERK8QPalettePKcb
}
{
   <insert_a_suppression_name_here>
   Memcheck:Leak
   fun:malloc_zone_malloc
   fun:__CFBasicHashRehash
   fun:CFDictionaryCreate
   fun:CreateProfileSet
   fun:deviceSet
   fun:create
   fun:CMSCreateDataProvider
   fun:create_generic_color_space
   fun:CGColorSpaceCreateWithIndex
   fun:_Z21_CUIColorSpaceGetGrayv
   fun:_Z12_CUIColorGetl
   fun:_ZN11CUIRenderer9CopyColorEPK13CUIDescriptorlPK14__CFDictionary
}
{
   <insert_a_suppression_name_here>
   Memcheck:Leak
   fun:malloc_zone_malloc
   fun:__CFBasicHashRehash
   fun:CFDictionaryCreate
   fun:CreateProfileSet
   fun:deviceSet
   fun:create
   fun:CMSCreateDataProvider
   fun:create_generic_color_space
   fun:CGColorSpaceCreateWithIndex
   fun:_Z21_CUIColorSpaceGetGrayv
   fun:_Z12_CUIColorGetl
   fun:_ZN11CUIRenderer9CopyColorEPK13CUIDescriptorlPK14__CFDictionary
}
{
   <insert_a_suppression_name_here>
   Memcheck:Leak
   fun:malloc_zone_malloc
   fun:__CFBasicHashRehash
   fun:CFDictionaryCreate
   fun:CreateProfileSet
   fun:deviceSet
   fun:create
   fun:CMSCreateDataProvider
   fun:create_generic_color_space
   fun:CGColorSpaceCreateWithIndex
   fun:_Z21_CUIColorSpaceGetGrayv
   fun:_Z12_CUIColorGetl
   fun:_ZN11CUIRenderer9CopyColorEPK13CUIDescriptorlPK14__CFDictionary
}
{
   <insert_a_suppression_name_here>
   Memcheck:Leak
   fun:malloc_zone_malloc
   fun:__CFBasicHashRehash
   fun:CFDictionaryCreate
   fun:CreateProfileSet
   fun:deviceSet
   fun:create
   fun:CMSCreateDataProvider
   fun:create_generic_color_space
   fun:CGColorSpaceCreateWithIndex
   fun:_Z21_CUIColorSpaceGetGrayv
   fun:_Z12_CUIColorGetl
   fun:_ZN11CUIRenderer9CopyColorEPK13CUIDescriptorlPK14__CFDictionary
}
{
   <insert_a_suppression_name_here>
   Memcheck:Leak
   fun:malloc_zone_malloc
   fun:__CFBasicHashRehash
   fun:CFDictionaryCreate
   fun:CreateProfileSet
   fun:deviceSet
   fun:create
   fun:CMSCreateDataProvider
   fun:create_generic_color_space
   fun:CGColorSpaceCreateWithIndex
   fun:HICGGetRGBColorspace
   fun:HIThemeBrushCreateCGColor
   fun:_Z14qcolorForThemes
}
{
   <insert_a_suppression_name_here>
   Memcheck:Leak
   fun:malloc_zone_malloc
   fun:__CFBasicHashRehash
   fun:CFDictionaryCreate
   fun:CreateProfileSet
   fun:deviceSet
   fun:create
   fun:CMSCreateDataProvider
   fun:create_generic_color_space
   fun:CGColorSpaceCreateWithIndex
   fun:HICGGetRGBColorspace
   fun:HIThemeBrushCreateCGColor
   fun:_Z14qcolorForThemes
}
{
   <insert_a_suppression_name_here>
   Memcheck:Leak
   fun:malloc_zone_malloc
   fun:__CFBasicHashRehash
   fun:CFDictionaryCreate
   fun:CreateProfileSet
   fun:deviceSet
   fun:create
   fun:CMSCreateDataProvider
   fun:create_generic_color_space
   fun:CGColorSpaceCreateWithIndex
   fun:HICGGetRGBColorspace
   fun:HIThemeBrushCreateCGColor
   fun:_Z14qcolorForThemes
}
{
   <insert_a_suppression_name_here>
   Memcheck:Leak
   fun:malloc_zone_malloc
   fun:__CFBasicHashRehash
   fun:CFDictionaryCreate
   fun:CreateProfileSet
   fun:deviceSet
   fun:create
   fun:CMSCreateDataProvider
   fun:create_generic_color_space
   fun:CGColorSpaceCreateWithIndex
   fun:HICGGetRGBColorspace
   fun:HIThemeBrushCreateCGColor
   fun:_Z14qcolorForThemes
}
{
   <insert_a_suppression_name_here>
   Memcheck:Leak
   fun:malloc_zone_malloc
   fun:_CFURLAllocateExtraDataspace
   fun:__CFURLHash
   fun:probeGC
   fun:-[__CFx606449CMT objectForKey:]
   fun:_CFBundleCopyBundleForURL
   fun:_CFBundleCreate
   fun:_CFBundleEnsureBundleExistsForImagePath
   fun:CFBundleGetBundleWithIdentifier
   fun:HLTBGetBundle
   fun:MakeThemeFSRef
   fun:_ZN6TTheme10GetCurrentEv
}
{
   <insert_a_suppression_name_here>
   Memcheck:Leak
   fun:malloc_zone_malloc
   fun:CFNotificationCenterAddObserver
   fun:_ZL24RegisterCallbackInternaljPFvjPvS_EjS_
   fun:_ZN6TTheme19InitializeThemeDataEv
   fun:_ZN6TTheme14CopyIdentifierEv
   fun:CopyThemeIdentifier
   fun:_ZN9QMacStyle6polishER8QPalette
   fun:_ZN19QApplicationPrivate17setPalette_helperERK8QPalettePKcb
   fun:_ZN19QApplicationPrivate16setSystemPaletteERK8QPalette
   fun:_ZN12QApplication5styleEv
   fun:_Z25qt_mac_update_os_settingsv
   fun:_Z7qt_initP19QApplicationPrivatei
}
{
   <insert_a_suppression_name_here>
   Memcheck:Leak
   fun:malloc_zone_malloc
   fun:CFNotificationCenterAddObserver
   fun:_ZL24RegisterCallbackInternaljPFvjPvS_EjS_
   fun:GetHiliteColor
   fun:GetHiliteColorAsRGBA
   fun:HIThemeBrushCreateCGColor
   fun:_Z14qcolorForThemes
   fun:_Z25qt_mac_update_os_settingsv
   fun:_Z7qt_initP19QApplicationPrivatei
   fun:_ZN19QApplicationPrivate9constructEv
   fun:_ZN12QApplicationC2ERiPPci
   fun:main
}
{
   <insert_a_suppression_name_here>
   Memcheck:Leak
   fun:malloc_zone_malloc
   fun:__CFBasicHashRehash
   fun:__CFBasicHashAddValue
   fun:CFBasicHashAddValue
   fun:CFDictionaryAddValue
   fun:_ZN6TTheme8GetBrushEsP13ThemeBrushRec
   fun:HIThemeBrushCreateCGColor
   fun:_Z14qcolorForThemes
   fun:_Z25qt_mac_update_os_settingsv
   fun:_Z7qt_initP19QApplicationPrivatei
   fun:_ZN19QApplicationPrivate9constructEv
   fun:_ZN12QApplicationC2ERiPPci
}
{
   <insert_a_suppression_name_here>
   Memcheck:Leak
   fun:malloc_zone_malloc
   fun:__CFBasicHashRehash
   fun:__CFBasicHashAddValue
   fun:CFBasicHashAddValue
   fun:CFDictionaryAddValue
   fun:_ZN6TTheme8GetBrushEsP13ThemeBrushRec
   fun:HIThemeBrushCreateCGColor
   fun:_Z14qcolorForThemes
   fun:_Z25qt_mac_update_os_settingsv
   fun:_Z7qt_initP19QApplicationPrivatei
   fun:_ZN19QApplicationPrivate9constructEv
   fun:_ZN12QApplicationC2ERiPPci
}
{
   <insert_a_suppression_name_here>
   Memcheck:Leak
   fun:malloc
   fun:_Znwm
   fun:_ZNK21TLocalFontRegistryImp8GetIndexEt
   fun:_ZNK21TLocalFontRegistryImp15CopyFontForNameEPK10__CFStringj
   fun:XTCopyFontWithName
   fun:_ZNK17TDescriptorSource35CopyFontDescriptorPerPostscriptNameEPK10__CFStringm
   fun:_ZNK11TDescriptor32CreateMatchingDescriptorInternalEPK7__CFSet
   fun:_ZN11TDescriptor12InitBaseFontEv
   fun:_ZNK11TDescriptor24CreateMatchingDescriptorEPK7__CFSet
   fun:CTFontCreateWithFontDescriptor
   fun:CTFontCreateUIFontForLanguage
   fun:_Z17qfontForThemeFontt
}
{
   <insert_a_suppression_name_here>
   Memcheck:Leak
   fun:malloc
   fun:_Znwm
   fun:_ZNK21TLocalFontRegistryImp8GetIndexEt
   fun:_ZNK21TLocalFontRegistryImp15CopyFontForNameEPK10__CFStringj
   fun:XTCopyFontWithName
   fun:_ZNK17TDescriptorSource35CopyFontDescriptorPerPostscriptNameEPK10__CFStringm
   fun:_ZNK11TDescriptor32CreateMatchingDescriptorInternalEPK7__CFSet
   fun:_ZN11TDescriptor12InitBaseFontEv
   fun:_ZNK11TDescriptor24CreateMatchingDescriptorEPK7__CFSet
   fun:CTFontCreateWithFontDescriptor
   fun:CTFontCreateUIFontForLanguage
   fun:_Z17qfontForThemeFontt
}
{
   <insert_a_suppression_name_here>
   Memcheck:Leak
   fun:malloc
   fun:_Znwm
   fun:_ZNK21TLocalFontRegistryImp8GetIndexEt
   fun:_ZNK21TLocalFontRegistryImp15CopyFontForNameEPK10__CFStringj
   fun:XTCopyFontWithName
   fun:_ZNK17TDescriptorSource35CopyFontDescriptorPerPostscriptNameEPK10__CFStringm
   fun:_ZNK11TDescriptor32CreateMatchingDescriptorInternalEPK7__CFSet
   fun:_ZN11TDescriptor12InitBaseFontEv
   fun:_ZNK11TDescriptor24CreateMatchingDescriptorEPK7__CFSet
   fun:CTFontCreateWithFontDescriptor
   fun:CTFontCreateUIFontForLanguage
   fun:_Z17qfontForThemeFontt
}
{
   <insert_a_suppression_name_here>
   Memcheck:Leak
   fun:malloc_zone_malloc
   fun:CFNotificationCenterAddObserver
   fun:_ZN22TGlobalFontRegistryImpC2Ev
   fun:_ZN19TGlobalFontRegistry14CreateRegistryEv
   fun:pthread_once
   fun:_ZN19TGlobalFontRegistryC2Ev
   fun:XTCopyFontWithName
   fun:_ZNK17TDescriptorSource35CopyFontDescriptorPerPostscriptNameEPK10__CFStringm
   fun:_ZNK11TDescriptor32CreateMatchingDescriptorInternalEPK7__CFSet
   fun:_ZN11TDescriptor12InitBaseFontEv
   fun:_ZNK11TDescriptor24CreateMatchingDescriptorEPK7__CFSet
   fun:CTFontCreateWithFontDescriptor
}
{
   <insert_a_suppression_name_here>
   Memcheck:Leak
   fun:malloc_zone_malloc
   fun:_CFURLAllocateExtraDataspace
   fun:__CFURLHash
   fun:___CFBasicHashFindBucket1
   fun:__CFBasicHashAddValue
   fun:CFBasicHashSetValue
   fun:CFDictionarySetValue
   fun:_ZN14TFontValidator7AddFontEPK7__CFURLP9TBaseFont
   fun:_ZN9TBaseFontC2EPK7__CFURL
   fun:_ZN16CTFontDescriptorC2EPK7__CFURL
   fun:_ZNK17TDescriptorSource14CopyDescriptorEPK7__CFURL
   fun:_ZNK17TDescriptorSource35CopyFontDescriptorPerPostscriptNameEPK10__CFStringm
}
{
   <insert_a_suppression_name_here>
   Memcheck:Leak
   fun:malloc_zone_malloc
   fun:__CFBasicHashRehash
   fun:__CFBasicHashAddValue
   fun:CFBasicHashSetValue
   fun:CFDictionarySetValue
   fun:_ZNK9TBaseFont8CopyNameEPK10__CFStringj
   fun:_ZNK9TBaseFont26CreateDescriptorAttributesEv
   fun:_ZNK11TDescriptor13GetAttributesEv
   fun:_ZNK11TDescriptor14CopyAttributesEv
   fun:_ZN11TDescriptorC2ERKS_j
   fun:_ZNK11TDescriptor32CreateMatchingDescriptorInternalEPK7__CFSet
   fun:_ZN11TDescriptor12InitBaseFontEv
}
{
   <insert_a_suppression_name_here>
   Memcheck:Leak
   fun:malloc_zone_malloc
   fun:__CFBasicHashRehash
   fun:__CFBasicHashAddValue
   fun:CFBasicHashSetValue
   fun:CFDictionarySetValue
   fun:_ZNK9TBaseFont8CopyNameEPK10__CFStringj
   fun:_ZNK9TBaseFont26CreateDescriptorAttributesEv
   fun:_ZNK11TDescriptor13GetAttributesEv
   fun:_ZNK11TDescriptor14CopyAttributesEv
   fun:_ZN11TDescriptorC2ERKS_j
   fun:_ZNK11TDescriptor32CreateMatchingDescriptorInternalEPK7__CFSet
   fun:_ZN11TDescriptor12InitBaseFontEv
}
{
   <insert_a_suppression_name_here>
   Memcheck:Leak
   fun:malloc_zone_malloc
   fun:__CFBasicHashRehash
   fun:__CFBasicHashAddValue
   fun:CFBasicHashSetValue
   fun:CFDictionarySetValue
   fun:_ZNK9TBaseFont20SetAttributeInternalEPKvS1_
   fun:_ZNK9TBaseFont8CopyNameEPK10__CFStringj
   fun:_ZNK9TBaseFont26CreateDescriptorAttributesEv
   fun:_ZNK11TDescriptor13GetAttributesEv
   fun:_ZNK11TDescriptor14CopyAttributesEv
   fun:_ZN11TDescriptorC2ERKS_j
   fun:_ZNK11TDescriptor32CreateMatchingDescriptorInternalEPK7__CFSet
}
{
   <insert_a_suppression_name_here>
   Memcheck:Leak
   fun:malloc_zone_malloc
   fun:__CFBasicHashRehash
   fun:__CFBasicHashAddValue
   fun:CFBasicHashSetValue
   fun:CFDictionarySetValue
   fun:_ZNK9TBaseFont20SetAttributeInternalEPKvS1_
   fun:_ZNK9TBaseFont8CopyNameEPK10__CFStringj
   fun:_ZNK9TBaseFont26CreateDescriptorAttributesEv
   fun:_ZNK11TDescriptor13GetAttributesEv
   fun:_ZNK11TDescriptor14CopyAttributesEv
   fun:_ZN11TDescriptorC2ERKS_j
   fun:_ZNK11TDescriptor32CreateMatchingDescriptorInternalEPK7__CFSet
}
{
   <insert_a_suppression_name_here>
   Memcheck:Leak
   fun:malloc_zone_realloc
   fun:attachMethodLists
   fun:attachCategoryMethods
   fun:realizeClass
   fun:realizeClass
   fun:look_up_class
   fun:objc_getFutureClass
   fun:_CFRuntimeBridgeClasses
   fun:_ZN7TCFBaseI5TFontE9GetTypeIDEv
   fun:_ZN7TCFBaseI5TFontEnwEm
   fun:CTFontCreateWithFontDescriptor
   fun:CTFontCreateUIFontForLanguage
}
{
   <insert_a_suppression_name_here>
   Memcheck:Leak
   fun:malloc
   fun:_Znwm
   fun:_ZNK21TLocalFontRegistryImp8GetIndexEt
   fun:_ZNK21TLocalFontRegistryImp21CopyPropertiesForFontEPK7__CFURLPK7__CFSetj
   fun:XTCopyPropertiesForFont
   fun:_ZNK9TBaseFont8CopyNameEPK10__CFStringj
   fun:_Z17qfontForThemeFontt
   fun:_Z25qt_mac_update_os_settingsv
   fun:_Z7qt_initP19QApplicationPrivatei
   fun:_ZN19QApplicationPrivate9constructEv
   fun:_ZN12QApplicationC2ERiPPci
   fun:main
}
{
   <insert_a_suppression_name_here>
   Memcheck:Leak
   fun:malloc_zone_malloc
   fun:CFBasicHashCreateCopy
   fun:CFDictionaryCreateMutableCopy
   fun:_ZN20TCFMutableDictionaryC2EPK14__CFDictionaryl
   fun:_ZNK9TBaseFont8CopyNameEPK10__CFStringj
   fun:_Z17qfontForThemeFontt
   fun:_Z25qt_mac_update_os_settingsv
   fun:_Z7qt_initP19QApplicationPrivatei
   fun:_ZN19QApplicationPrivate9constructEv
   fun:_ZN12QApplicationC2ERiPPci
   fun:main
}
{
   <insert_a_suppression_name_here>
   Memcheck:Leak
   fun:malloc_zone_malloc
   fun:CFBasicHashCreateCopy
   fun:CFDictionaryCreateMutableCopy
   fun:_ZN20TCFMutableDictionaryC2EPK14__CFDictionaryl
   fun:_ZNK9TBaseFont8CopyNameEPK10__CFStringj
   fun:_Z17qfontForThemeFontt
   fun:_Z25qt_mac_update_os_settingsv
   fun:_Z7qt_initP19QApplicationPrivatei
   fun:_ZN19QApplicationPrivate9constructEv
   fun:_ZN12QApplicationC2ERiPPci
   fun:main
}
{
   <insert_a_suppression_name_here>
   Memcheck:Leak
   fun:malloc_zone_realloc
   fun:attachMethodLists
   fun:attachCategoryMethods
   fun:realizeClass
   fun:realizeClass
   fun:_objc_fixupMessageRef
   fun:objc_msgSend_fixup
   fun:_Z22qt_mac_get_scalefactorv
   fun:_ZN12QStyleHelper9dpiScaledEd
   fun:_ZNK12QCommonStyle11pixelMetricEN6QStyle11PixelMetricEPK12QStyleOptionPK7QWidget
   fun:_ZNK13QWindowsStyle11pixelMetricEN6QStyle11PixelMetricEPK12QStyleOptionPK7QWidget
   fun:_ZNK9QMacStyle11pixelMetricEN6QStyle11PixelMetricEPK12QStyleOptionPK7QWidget
}
{
   <insert_a_suppression_name_here>
   Memcheck:Leak
   fun:calloc
   fun:_internal_class_createInstanceFromZone
   fun:+[NSObject(NSObject) allocWithZone:]
   fun:+[_NSDisplayOperationStack currentThreadDisplayOperationStack]
   fun:-[NSWindow _lockViewHierarchyForDrawingWithExceptionHandler:]
   fun:-[NSNextStepFrame tile]
   fun:-[NSNextStepFrame initWithFrame:styleMask:owner:]
   fun:-[NSWindow _commonInitFrame:styleMask:backing:defer:]
   fun:-[NSWindow _initContent:styleMask:backing:defer:contentView:]
   fun:-[NSPanel _initContent:styleMask:backing:defer:contentView:]
   fun:-[NSWindow initWithContentRect:styleMask:backing:defer:]
   fun:-[NSPanel initWithContentRect:styleMask:backing:defer:]
}
{
   <insert_a_suppression_name_here>
   Memcheck:Leak
   fun:malloc_zone_malloc
   fun:__CFBasicHashRehash
   fun:CFDictionaryCreate
   fun:-[__NSPlaceholderDictionary initWithObjects:forKeys:count:]
   fun:+[NSDictionary dictionaryWithObject:forKey:]
   fun:+[NSTitledFrame initialize]
   fun:_class_initialize
   fun:_class_initialize
   fun:prepareForMethodLookup
   fun:lookUpMethod
   fun:objc_msgSend
   fun:-[NSWindow _usesCustomDrawing]
}
{
   <insert_a_suppression_name_here>
   Memcheck:Leak
   fun:malloc_zone_realloc
   fun:attachMethodLists
   fun:attachCategoryMethods
   fun:realizeClass
   fun:_class_getNonMetaClass
   fun:_class_initialize
   fun:prepareForMethodLookup
   fun:lookUpMethod
   fun:objc_msgSend
   fun:-[NSView(NSPrivateHLTBSupport) _boundToHIView]
   fun:-[NSView visibleRect]
   fun:-[NSView visibleRect]
}
{
   <insert_a_suppression_name_here>
   Memcheck:Leak
   fun:calloc
   fun:_internal_class_createInstanceFromZone
   fun:+[NSObject(NSObject) allocWithZone:]
   fun:+[QCocoaWindowDelegate allocWithZone:]
   fun:+[QCocoaWindowDelegate sharedDelegate]
   fun:-[NSWindow(QWidgetIntegration) qt_initWithQWidget:contentRect:styleMask:]
   fun:_ZL20qt_mac_create_windowP7QWidgetjmRK5QRect
   fun:_ZN14QWidgetPrivate18qt_create_root_winEv
   fun:_ZN14QWidgetPrivate10create_sysElbb
   fun:_ZN7QWidget6createElbb
   fun:_ZN14QWidgetPrivate4initEP7QWidget6QFlagsIN2Qt10WindowTypeEE
   fun:_ZN7QWidgetC2EPS_6QFlagsIN2Qt10WindowTypeEE
}
{
   <insert_a_suppression_name_here>
   Memcheck:Leak
   fun:malloc_zone_realloc
   fun:attachMethodLists
   fun:attachCategoryMethods
   fun:realizeClass
   fun:realizeClass
   fun:prepareForMethodLookup
   fun:lookUpMethod
   fun:objc_msgSend
   fun:_Z20qt_mac_create_widgetP7QWidgetP14QWidgetPrivateP6NSView
   fun:_ZN14QWidgetPrivate10create_sysElbb
   fun:_ZN7QWidget6createElbb
   fun:_ZN7QWidget10setVisibleEb
}
{
   <insert_a_suppression_name_here>
   Memcheck:Leak
   fun:malloc_zone_realloc
   fun:attachMethodLists
   fun:attachCategoryMethods
   fun:realizeClass
   fun:_class_getNonMetaClass
   fun:_class_initialize
   fun:prepareForMethodLookup
   fun:lookUpMethod
   fun:objc_msgSend
   fun:_Z20qt_mac_create_widgetP7QWidgetP14QWidgetPrivateP6NSView
   fun:_ZN14QWidgetPrivate10create_sysElbb
   fun:_ZN7QWidget6createElbb
}
{
   <insert_a_suppression_name_here>
   Memcheck:Leak
   fun:malloc_zone_malloc
   fun:buildProtocolList
   fun:realizeClass
   fun:realizeClass
   fun:realizeClass
   fun:_objc_fixupMessageRef
   fun:objc_msgSend_fixup
   fun:-[NSControl initWithFrame:]
   fun:-[NSView init]
   fun:-[QCocoaView initWithQWidget:widgetPrivate:]
   fun:_Z20qt_mac_create_widgetP7QWidgetP14QWidgetPrivateP6NSView
   fun:_ZN14QWidgetPrivate10create_sysElbb
}
{
   <insert_a_suppression_name_here>
   Memcheck:Leak
   fun:malloc_zone_malloc
   fun:buildProtocolList
   fun:realizeClass
   fun:realizeClass
   fun:_objc_fixupMessageRef
   fun:objc_msgSend_fixup
   fun:-[NSControl initWithFrame:]
   fun:-[NSView init]
   fun:-[QCocoaView initWithQWidget:widgetPrivate:]
   fun:_Z20qt_mac_create_widgetP7QWidgetP14QWidgetPrivateP6NSView
   fun:_ZN14QWidgetPrivate10create_sysElbb
   fun:_ZN7QWidget6createElbb
}
{
   <insert_a_suppression_name_here>
   Memcheck:Leak
   fun:malloc_zone_realloc
   fun:attachMethodLists
   fun:attachCategoryMethods
   fun:realizeClass
   fun:_class_getNonMetaClass
   fun:_class_initialize
   fun:prepareForMethodLookup
   fun:lookUpMethod
   fun:objc_msgSend
   fun:+[_NSThemeWidget initialize]
   fun:_class_initialize
   fun:_class_initialize
}
{
   <insert_a_suppression_name_here>
   Memcheck:Leak
   fun:malloc_zone_realloc
   fun:attachMethodLists
   fun:attachCategoryMethods
   fun:realizeClass
   fun:_class_getNonMetaClass
   fun:_class_initialize
   fun:prepareForMethodLookup
   fun:lookUpMethod
   fun:objc_msgSend
   fun:+[_NSThemeCloseWidget initialize]
   fun:_class_initialize
   fun:prepareForMethodLookup
}
{
   <insert_a_suppression_name_here>
   Memcheck:Leak
   fun:malloc_zone_malloc
   fun:CFNotificationCenterAddObserver
   fun:+[NSFont _registerForFontSetNotification]
   fun:_class_initialize
   fun:prepareForMethodLookup
   fun:lookUpMethod
   fun:objc_msgSend
   fun:__NSGetMetaFontInstance
   fun:-[NSCell _convertToText:]
   fun:-[NSButtonCell _convertToText:]
   fun:-[NSButtonCell initTextCell:]
   fun:-[_NSThemeWidgetCell initTextCell:]
}
{
   <insert_a_suppression_name_here>
   Memcheck:Leak
   fun:malloc_zone_malloc
   fun:__CFBasicHashRehash
   fun:CFSetCreate
   fun:+[__NSFontTypefaceInfo typefaceInfoForPostscriptName:]
   fun:__NSGetMetaFontInstance
   fun:-[NSCell _convertToText:]
   fun:-[NSButtonCell _convertToText:]
   fun:-[NSButtonCell initTextCell:]
   fun:-[_NSThemeWidgetCell initTextCell:]
   fun:-[NSButtonCell init]
   fun:-[NSControl initWithFrame:]
   fun:-[NSButton initWithFrame:]
}
{
   <insert_a_suppression_name_here>
   Memcheck:Leak
   fun:malloc_zone_malloc
   fun:_cache_addForwardEntry
   fun:lookUpMethod
   fun:class_respondsToSelector
   fun:-[NSWindow setDelegate:]
   fun:-[QCocoaWindowDelegate becomeDelegteForWindow:widget:]
   fun:-[NSWindow(QWidgetIntegration) qt_initWithQWidget:contentRect:styleMask:]
   fun:_ZL20qt_mac_create_windowP7QWidgetjmRK5QRect
   fun:_ZN14QWidgetPrivate16createWindow_sysEv
   fun:_Z17qt_mac_window_forPK7QWidget
   fun:_ZN14QWidgetPrivate12setModal_sysEv
   fun:_ZN7QWidget6createElbb
}
{
   <insert_a_suppression_name_here>
   Memcheck:Leak
   fun:malloc_zone_malloc
   fun:_cache_addForwardEntry
   fun:lookUpMethod
   fun:class_respondsToSelector
   fun:-[NSWindow setDelegate:]
   fun:-[QCocoaWindowDelegate becomeDelegteForWindow:widget:]
   fun:-[NSWindow(QWidgetIntegration) qt_initWithQWidget:contentRect:styleMask:]
   fun:_ZL20qt_mac_create_windowP7QWidgetjmRK5QRect
   fun:_ZN14QWidgetPrivate16createWindow_sysEv
   fun:_Z17qt_mac_window_forPK7QWidget
   fun:_ZN14QWidgetPrivate12setModal_sysEv
   fun:_ZN7QWidget6createElbb
}
{
   <insert_a_suppression_name_here>
   Memcheck:Leak
   fun:malloc_zone_realloc
   fun:attachMethodLists
   fun:attachCategoryMethods
   fun:realizeClass
   fun:_class_getNonMetaClass
   fun:_class_initialize
   fun:prepareForMethodLookup
   fun:lookUpMethod
   fun:objc_msgSend
   fun:-[NSFrameView titleCell]
   fun:-[NSTitledFrame setTitle:]
   fun:-[NSWindow _dosetTitle:andDefeatWrap:]
}
{
   <insert_a_suppression_name_here>
   Memcheck:Leak
   fun:malloc_zone_realloc
   fun:attachMethodLists
   fun:attachCategoryMethods
   fun:realizeClass
   fun:_class_getNonMetaClass
   fun:_class_initialize
   fun:prepareForMethodLookup
   fun:lookUpMethod
   fun:objc_msgSend
   fun:-[NSWindow standardWindowButton:]
   fun:_ZN14QWidgetPrivate17setWindowIcon_sysEb
   fun:_ZN7QWidget6createElbb
}
{
   <insert_a_suppression_name_here>
   Memcheck:Leak
   fun:malloc_zone_realloc
   fun:attachMethodLists
   fun:attachCategoryMethods
   fun:realizeClass
   fun:_class_getNonMetaClass
   fun:_class_initialize
   fun:prepareForMethodLookup
   fun:lookUpMethod
   fun:objc_msgSend
   fun:+[NSThemeDocumentButton initialize]
   fun:_class_initialize
   fun:prepareForMethodLookup
}
{
   <insert_a_suppression_name_here>
   Memcheck:Leak
   fun:malloc_zone_realloc
   fun:attachMethodLists
   fun:attachCategoryMethods
   fun:realizeClass
   fun:_class_getNonMetaClass
   fun:_class_initialize
   fun:prepareForMethodLookup
   fun:lookUpMethod
   fun:objc_msgSend
   fun:+[NSWindow standardWindowButton:forStyleMask:]
   fun:-[NSThemeFrame newFileButton]
   fun:-[NSThemeFrame setRepresentedURL:]
}
{
   <insert_a_suppression_name_here>
   Memcheck:Leak
   fun:calloc
   fun:_internal_class_createInstanceFromZone
   fun:+[NSObject(NSObject) allocWithZone:]
   fun:+[NSWorkspace sharedWorkspace]
   fun:+[NSWindow standardWindowButton:forStyleMask:]
   fun:-[NSThemeFrame newFileButton]
   fun:-[NSThemeFrame setRepresentedURL:]
   fun:_ZN14QWidgetPrivate17setWindowIcon_sysEb
   fun:_ZN7QWidget6createElbb
   fun:_ZN7QWidget10setVisibleEb
   fun:_ZN7QWidget4showEv
   fun:main
}
{
   <insert_a_suppression_name_here>
   Memcheck:Leak
   fun:malloc_zone_malloc
   fun:__CFBasicHashRehash
   fun:__CFBasicHashAddValue
   fun:CFBasicHashAddValue
   fun:CFRunLoopAddSource
   fun:__CFSetApplyFunction_block_invoke_1
   fun:CFBasicHashApply
   fun:CFSetApplyFunction
   fun:CFRunLoopAddSource
   fun:_FSAddVolumeObserver
   fun:RequestVolumeNotificationWithFlags
   fun:_ZL16CreateStorageRefjP17CIconStorageEntryP17CIconFamilyLoaderjPj
}
{
   <insert_a_suppression_name_here>
   Memcheck:Leak
   fun:malloc_zone_malloc
   fun:__CFBasicHashRehash
   fun:__CFBasicHashAddValue
   fun:CFBasicHashAddValue
   fun:CFRunLoopAddSource
   fun:__CFSetApplyFunction_block_invoke_1
   fun:CFBasicHashApply
   fun:CFSetApplyFunction
   fun:CFRunLoopAddSource
   fun:_FSAddVolumeObserver
   fun:RequestVolumeNotificationWithFlags
   fun:_ZL16CreateStorageRefjP17CIconStorageEntryP17CIconFamilyLoaderjPj
}
{
   <insert_a_suppression_name_here>
   Memcheck:Leak
   fun:malloc_zone_malloc
   fun:__CFBasicHashRehash
   fun:__CFBasicHashAddValue
   fun:CFBasicHashSetValue
   fun:CFDictionarySetValue
   fun:CFRunLoopAddSource
   fun:_FSAddVolumeObserver
   fun:RequestVolumeNotificationWithFlags
   fun:_ZL16CreateStorageRefjP17CIconStorageEntryP17CIconFamilyLoaderjPj
   fun:_Z26_ISGetStorageRefFromLoaderP17CIconFamilyLoaderjjjPj
   fun:_ISGetSystemIconStorage
   fun:_ISAddSystemIconToImage
}
{
   <insert_a_suppression_name_here>
   Memcheck:Leak
   fun:malloc_zone_malloc
   fun:__CFBasicHashRehash
   fun:__CFBasicHashAddValue
   fun:CFBasicHashSetValue
   fun:CFDictionarySetValue
   fun:CFRunLoopAddSource
   fun:_FSAddVolumeObserver
   fun:RequestVolumeNotificationWithFlags
   fun:_ZL16CreateStorageRefjP17CIconStorageEntryP17CIconFamilyLoaderjPj
   fun:_Z26_ISGetStorageRefFromLoaderP17CIconFamilyLoaderjjjPj
   fun:_ISGetSystemIconStorage
   fun:_ISAddSystemIconToImage
}
{
   <insert_a_suppression_name_here>
   Memcheck:Leak
   fun:malloc_zone_realloc
   fun:attachMethodLists
   fun:attachCategoryMethods
   fun:realizeClass
   fun:_class_getNonMetaClass
   fun:_class_initialize
   fun:prepareForMethodLookup
   fun:lookUpMethod
   fun:objc_msgSend
   fun:+[NSApplication initialize]
   fun:_class_initialize
   fun:_class_initialize
}
{
   <insert_a_suppression_name_here>
   Memcheck:Leak
   fun:malloc_zone_malloc
   fun:__CFBasicHashRehash
   fun:CFDictionaryCreate
   fun:CFPropertyListCreateDeepCopy
   fun:-[CFXPreferencesSource setValue:forKey:]
   fun:__CFXPreferencesSetValuesInSource
   fun:_CFXPreferencesRegisterDefaultValues
   fun:-[NSUserDefaults(NSUserDefaults) registerDefaults:]
   fun:+[NSApplication _initializeRegisteredDefaults]
   fun:+[NSApplication initialize]
   fun:_class_initialize
   fun:_class_initialize
}
{
   <insert_a_suppression_name_here>
   Memcheck:Leak
   fun:malloc_zone_malloc
   fun:__CFBasicHashRehash
   fun:CFDictionaryCreate
   fun:CFPropertyListCreateDeepCopy
   fun:-[CFXPreferencesSource setValue:forKey:]
   fun:__CFXPreferencesSetValuesInSource
   fun:_CFXPreferencesRegisterDefaultValues
   fun:-[NSUserDefaults(NSUserDefaults) registerDefaults:]
   fun:+[NSApplication _initializeRegisteredDefaults]
   fun:+[NSApplication initialize]
   fun:_class_initialize
   fun:_class_initialize
}
{
   <insert_a_suppression_name_here>
   Memcheck:Leak
   fun:malloc_zone_realloc
   fun:attachMethodLists
   fun:attachCategoryMethods
   fun:realizeClass
   fun:realizeClass
   fun:_class_getNonMetaClass
   fun:_class_initialize
   fun:prepareForMethodLookup
   fun:lookUpMethod
   fun:objc_msgSend
   fun:-[NSNotificationCenter postNotificationName:object:userInfo:]
   fun:+[NSApplication _initializeRegisteredDefaults]
}
{
   <insert_a_suppression_name_here>
   Memcheck:Leak
   fun:malloc_zone_malloc
   fun:__CFBasicHashRehash
   fun:__CFBasicHashAddValue
   fun:CFBasicHashSetValue
   fun:CFDictionarySetValue
   fun:+[NSDistributedNotificationCenter notificationCenterForType:]
   fun:+[NSDynamicSystemColor initialize]
   fun:_class_initialize
   fun:prepareForMethodLookup
   fun:lookUpMethod
   fun:objc_msgSend
   fun:+[NSApplication initialize]
}
{
   <insert_a_suppression_name_here>
   Memcheck:Leak
   fun:malloc_zone_malloc
   fun:__CFBasicHashRehash
   fun:__CFBasicHashAddValue
   fun:CFBasicHashSetValue
   fun:CFDictionarySetValue
   fun:+[NSDistributedNotificationCenter notificationCenterForType:]
   fun:+[NSDynamicSystemColor initialize]
   fun:_class_initialize
   fun:prepareForMethodLookup
   fun:lookUpMethod
   fun:objc_msgSend
   fun:+[NSApplication initialize]
}
{
   <insert_a_suppression_name_here>
   Memcheck:Leak
   fun:malloc_zone_malloc
   fun:__CFBasicHashRehash
   fun:__CFBasicHashAddValue
   fun:CFBasicHashAddValue
   fun:CFRunLoopAddSource
   fun:__CFSetApplyFunction_block_invoke_1
   fun:CFBasicHashApply
   fun:CFSetApplyFunction
   fun:CFRunLoopAddSource
   fun:CreateEventLoop
   fun:GetMainEventLoop
   fun:GetMainRunLoop
}
{
   <insert_a_suppression_name_here>
   Memcheck:Leak
   fun:malloc_zone_malloc
   fun:__CFBasicHashRehash
   fun:__CFBasicHashAddValue
   fun:CFBasicHashAddValue
   fun:CFRunLoopAddSource
   fun:__CFSetApplyFunction_block_invoke_1
   fun:CFBasicHashApply
   fun:CFSetApplyFunction
   fun:CFRunLoopAddSource
   fun:CreateEventLoop
   fun:GetMainEventLoop
   fun:GetMainRunLoop
}
{
   <insert_a_suppression_name_here>
   Memcheck:Leak
   fun:malloc_zone_malloc
   fun:__CFBasicHashRehash
   fun:__CFBasicHashAddValue
   fun:CFBasicHashSetValue
   fun:CFDictionarySetValue
   fun:CFRunLoopAddSource
   fun:_NSInitializeAppContext
   fun:-[NSApplication init]
   fun:+[NSApplication sharedApplication]
   fun:_Z7qt_initP19QApplicationPrivatei
   fun:_ZN19QApplicationPrivate9constructEv
   fun:_ZN12QApplicationC2ERiPPci
}
{
   <insert_a_suppression_name_here>
   Memcheck:Leak
   fun:malloc_zone_malloc
   fun:__CFBasicHashRehash
   fun:__CFBasicHashAddValue
   fun:CFBasicHashSetValue
   fun:CFDictionarySetValue
   fun:CFRunLoopAddSource
   fun:_NSInitializeAppContext
   fun:-[NSApplication init]
   fun:+[NSApplication sharedApplication]
   fun:_Z7qt_initP19QApplicationPrivatei
   fun:_ZN19QApplicationPrivate9constructEv
   fun:_ZN12QApplicationC2ERiPPci
}
{
   <insert_a_suppression_name_here>
   Memcheck:Leak
   fun:malloc_zone_malloc
   fun:__CFBasicHashRehash
   fun:__CFBasicHashAddValue
   fun:CFBasicHashAddValue
   fun:CFRunLoopAddSource
   fun:_NSInitializeAppContext
   fun:-[NSApplication init]
   fun:+[NSApplication sharedApplication]
   fun:_Z7qt_initP19QApplicationPrivatei
   fun:_ZN19QApplicationPrivate9constructEv
   fun:_ZN12QApplicationC2ERiPPci
   fun:main
}
{
   <insert_a_suppression_name_here>
   Memcheck:Leak
   fun:malloc_zone_malloc
   fun:__CFBasicHashRehash
   fun:__CFBasicHashAddValue
   fun:CFBasicHashAddValue
   fun:CFRunLoopAddSource
   fun:_NSInitializeAppContext
   fun:-[NSApplication init]
   fun:+[NSApplication sharedApplication]
   fun:_Z7qt_initP19QApplicationPrivatei
   fun:_ZN19QApplicationPrivate9constructEv
   fun:_ZN12QApplicationC2ERiPPci
   fun:main
}
{
   <insert_a_suppression_name_here>
   Memcheck:Leak
   fun:malloc
   fun:_ZN15TEventTypeIndex8AddTypesEmPK13EventTypeSpec
   fun:_ZL18AddHandlersToIndexP14EventTargetRecP10HandlerRecmPK13EventTypeSpec
   fun:_ZL16PushEventHandlerP14EventTargetRecPFiP25OpaqueEventHandlerCallRefP14OpaqueEventRefPvEhmPK13EventTypeSpecS5_PP21OpaqueEventHandlerRef
   fun:InstallEventHandler
   fun:_NSInitializeAppContext
   fun:-[NSApplication init]
   fun:+[NSApplication sharedApplication]
   fun:_Z7qt_initP19QApplicationPrivatei
   fun:_ZN19QApplicationPrivate9constructEv
   fun:_ZN12QApplicationC2ERiPPci
   fun:main
}
{
   <insert_a_suppression_name_here>
   Memcheck:Leak
   fun:malloc_zone_realloc
   fun:attachMethodLists
   fun:attachCategoryMethods
   fun:realizeClass
   fun:prepareForMethodLookup
   fun:lookUpMethod
   fun:objc_msgSend
   fun:-[NSApplication init]
   fun:+[NSApplication sharedApplication]
   fun:_Z7qt_initP19QApplicationPrivatei
   fun:_ZN19QApplicationPrivate9constructEv
   fun:_ZN12QApplicationC2ERiPPci
}
{
   <insert_a_suppression_name_here>
   Memcheck:Leak
   fun:malloc_zone_realloc
   fun:attachMethodLists
   fun:attachCategoryMethods
   fun:realizeClass
   fun:_class_getNonMetaClass
   fun:_class_initialize
   fun:prepareForMethodLookup
   fun:lookUpMethod
   fun:objc_msgSend
   fun:-[NSApplication init]
   fun:+[NSApplication sharedApplication]
   fun:_Z7qt_initP19QApplicationPrivatei
}
{
   <insert_a_suppression_name_here>
   Memcheck:Leak
   fun:malloc_zone_malloc
   fun:buildProtocolList
   fun:realizeClass
   fun:prepareForMethodLookup
   fun:lookUpMethod
   fun:objc_msgSend
   fun:-[NSApplication init]
   fun:+[NSApplication sharedApplication]
   fun:_Z7qt_initP19QApplicationPrivatei
   fun:_ZN19QApplicationPrivate9constructEv
   fun:_ZN12QApplicationC2ERiPPci
   fun:main
}
{
   <insert_a_suppression_name_here>
   Memcheck:Leak
   fun:malloc_zone_malloc
   fun:buildProtocolList
   fun:realizeClass
   fun:_class_getNonMetaClass
   fun:_class_initialize
   fun:prepareForMethodLookup
   fun:lookUpMethod
   fun:objc_msgSend
   fun:-[NSApplication init]
   fun:+[NSApplication sharedApplication]
   fun:_Z7qt_initP19QApplicationPrivatei
   fun:_ZN19QApplicationPrivate9constructEv
}
{
   <insert_a_suppression_name_here>
   Memcheck:Leak
   fun:malloc
   fun:MSHCreateMachServerSource
   fun:CoreDockRegisterClientWithRunLoop
   fun:_ZL24RegisterAsDockClientPrivv
   fun:_RegisterSharedDockClientWithRunLoop
   fun:_NSDoOneTimeDockRegistration
   fun:-[NSApplication _registerWithDock]
   fun:-[NSApplication init]
   fun:+[NSApplication sharedApplication]
   fun:_Z7qt_initP19QApplicationPrivatei
   fun:_ZN19QApplicationPrivate9constructEv
   fun:_ZN12QApplicationC2ERiPPci
}
{
   <insert_a_suppression_name_here>
   Memcheck:Leak
   fun:malloc_zone_malloc
   fun:__CFBasicHashRehash
   fun:__CFBasicHashAddValue
   fun:CFBasicHashAddValue
   fun:CFRunLoopAddSource
   fun:__CFSetApplyFunction_block_invoke_1
   fun:CFBasicHashApply
   fun:CFSetApplyFunction
   fun:CFRunLoopAddSource
   fun:CoreDockRegisterClientWithRunLoop
   fun:_ZL24RegisterAsDockClientPrivv
   fun:_RegisterSharedDockClientWithRunLoop
}
{
   <insert_a_suppression_name_here>
   Memcheck:Leak
   fun:malloc_zone_malloc
   fun:__CFBasicHashRehash
   fun:__CFBasicHashAddValue
   fun:CFBasicHashAddValue
   fun:CFRunLoopAddSource
   fun:__CFSetApplyFunction_block_invoke_1
   fun:CFBasicHashApply
   fun:CFSetApplyFunction
   fun:CFRunLoopAddSource
   fun:CoreDockRegisterClientWithRunLoop
   fun:_ZL24RegisterAsDockClientPrivv
   fun:_RegisterSharedDockClientWithRunLoop
}
{
   <insert_a_suppression_name_here>
   Memcheck:Leak
   fun:malloc_zone_malloc
   fun:__CFBasicHashRehash
   fun:__CFBasicHashAddValue
   fun:CFBasicHashSetValue
   fun:CFDictionarySetValue
   fun:CFRunLoopAddSource
   fun:CoreDockRegisterClientWithRunLoop
   fun:_ZL24RegisterAsDockClientPrivv
   fun:_RegisterSharedDockClientWithRunLoop
   fun:_NSDoOneTimeDockRegistration
   fun:-[NSApplication _registerWithDock]
   fun:-[NSApplication init]
}
{
   <insert_a_suppression_name_here>
   Memcheck:Leak
   fun:malloc_zone_malloc
   fun:__CFBasicHashRehash
   fun:__CFBasicHashAddValue
   fun:CFBasicHashSetValue
   fun:CFDictionarySetValue
   fun:CFRunLoopAddSource
   fun:CoreDockRegisterClientWithRunLoop
   fun:_ZL24RegisterAsDockClientPrivv
   fun:_RegisterSharedDockClientWithRunLoop
   fun:_NSDoOneTimeDockRegistration
   fun:-[NSApplication _registerWithDock]
   fun:-[NSApplication init]
}
{
   <insert_a_suppression_name_here>
   Memcheck:Leak
   fun:malloc_zone_malloc
   fun:__CFBasicHashRehash
   fun:__CFBasicHashAddValue
   fun:CFBasicHashAddValue
   fun:CFRunLoopAddSource
   fun:__CFSetApplyFunction_block_invoke_1
   fun:CFBasicHashApply
   fun:CFSetApplyFunction
   fun:CFRunLoopAddSource
   fun:CoreDockRegisterClientWithRunLoop
   fun:_ZL24RegisterAsDockClientPrivv
   fun:_RegisterSharedDockClientWithRunLoop
}
{
   <insert_a_suppression_name_here>
   Memcheck:Leak
   fun:malloc_zone_malloc
   fun:__CFBasicHashRehash
   fun:__CFBasicHashAddValue
   fun:CFBasicHashAddValue
   fun:CFRunLoopAddSource
   fun:__CFSetApplyFunction_block_invoke_1
   fun:CFBasicHashApply
   fun:CFSetApplyFunction
   fun:CFRunLoopAddSource
   fun:CoreDockRegisterClientWithRunLoop
   fun:_ZL24RegisterAsDockClientPrivv
   fun:_RegisterSharedDockClientWithRunLoop
}
{
   <insert_a_suppression_name_here>
   Memcheck:Leak
   fun:malloc_zone_malloc
   fun:__CFBasicHashRehash
   fun:__CFBasicHashAddValue
   fun:CFBasicHashAddValue
   fun:CFRunLoopAddSource
   fun:_LSScheduleNotificationFunction
   fun:getHIToolboxAnyASNNotificationFunc
   fun:AddNotification
   fun:_ZL29GlobalRegistryEventRegisteredjj
   fun:_ZN15TEventTypeIndex8AddTypesEmPK13EventTypeSpec
   fun:_ZL18AddHandlersToIndexP14EventTargetRecP10HandlerRecmPK13EventTypeSpec
   fun:_ZL16PushEventHandlerP14EventTargetRecPFiP25OpaqueEventHandlerCallRefP14OpaqueEventRefPvEhmPK13EventTypeSpecS5_PP21OpaqueEventHandlerRef
}
{
   <insert_a_suppression_name_here>
   Memcheck:Leak
   fun:malloc_zone_malloc
   fun:__CFBasicHashRehash
   fun:__CFBasicHashAddValue
   fun:CFBasicHashAddValue
   fun:CFRunLoopAddSource
   fun:_LSScheduleNotificationFunction
   fun:getHIToolboxAnyASNNotificationFunc
   fun:AddNotification
   fun:_ZL29GlobalRegistryEventRegisteredjj
   fun:_ZN15TEventTypeIndex8AddTypesEmPK13EventTypeSpec
   fun:_ZL18AddHandlersToIndexP14EventTargetRecP10HandlerRecmPK13EventTypeSpec
   fun:_ZL16PushEventHandlerP14EventTargetRecPFiP25OpaqueEventHandlerCallRefP14OpaqueEventRefPvEhmPK13EventTypeSpecS5_PP21OpaqueEventHandlerRef
}
{
   <insert_a_suppression_name_here>
   Memcheck:Leak
   fun:malloc_zone_malloc
   fun:__CFBasicHashRehash
   fun:__CFBasicHashAddValue
   fun:CFBasicHashSetValue
   fun:CFDictionarySetValue
   fun:+[NSBundle bundleForClass:]
   fun:+[NSBundle(NSNibLoading) loadNibNamed:owner:]
   fun:_Z7qt_initP19QApplicationPrivatei
   fun:_ZN19QApplicationPrivate9constructEv
   fun:_ZN12QApplicationC2ERiPPci
   fun:main
}
{
   <insert_a_suppression_name_here>
   Memcheck:Leak
   fun:malloc_zone_malloc
   fun:__CFBasicHashRehash
   fun:__CFBasicHashAddValue
   fun:CFBasicHashSetValue
   fun:CFDictionarySetValue
   fun:+[NSBundle bundleForClass:]
   fun:+[NSBundle(NSNibLoading) loadNibNamed:owner:]
   fun:_Z7qt_initP19QApplicationPrivatei
   fun:_ZN19QApplicationPrivate9constructEv
   fun:_ZN12QApplicationC2ERiPPci
   fun:main
}
{
   <insert_a_suppression_name_here>
   Memcheck:Leak
   fun:malloc_zone_malloc
   fun:_CFURLAllocateExtraDataspace
   fun:__CFURLHash
   fun:probeGC
   fun:-[__CFx606449CMT objectForKey:]
   fun:_CFBundleCopyBundleForURL
   fun:_CFBundleCreate
   fun:-[NSBundle _cfBundle]
   fun:-[NSBundle pathForResource:ofType:]
   fun:+[NSBundle(NSNibLoading) loadNibNamed:owner:]
   fun:_Z7qt_initP19QApplicationPrivatei
   fun:_ZN19QApplicationPrivate9constructEv
}
{
   <insert_a_suppression_name_here>
   Memcheck:Leak
   fun:malloc_zone_malloc
   fun:__CFBasicHashRehash
   fun:__CFBasicHashAddValue
   fun:CFBasicHashSetValue
   fun:CFDictionarySetValue
   fun:_CFBundleCopyExecutableURLInDirectoryWithAllocator
   fun:_CFBundleCopyBundleDevelopmentRegionFromVersResource
   fun:CFBundleGetDevelopmentRegion
   fun:_CFBundleGetLanguageSearchList
   fun:CFBundleCopyResourceURL
   fun:-[NSBundle pathForResource:ofType:]
   fun:+[NSBundle(NSNibLoading) loadNibNamed:owner:]
}
{
   <insert_a_suppression_name_here>
   Memcheck:Leak
   fun:malloc_zone_malloc
   fun:__CFBasicHashRehash
   fun:__CFBasicHashAddValue
   fun:CFBasicHashSetValue
   fun:CFDictionarySetValue
   fun:_CFBundleCopyExecutableURLInDirectoryWithAllocator
   fun:_CFBundleCopyBundleDevelopmentRegionFromVersResource
   fun:CFBundleGetDevelopmentRegion
   fun:_CFBundleGetLanguageSearchList
   fun:CFBundleCopyResourceURL
   fun:-[NSBundle pathForResource:ofType:]
   fun:+[NSBundle(NSNibLoading) loadNibNamed:owner:]
}
{
   <insert_a_suppression_name_here>
   Memcheck:Leak
   fun:malloc_zone_realloc
   fun:attachMethodLists
   fun:attachCategoryMethods
   fun:realizeClass
   fun:prepareForMethodLookup
   fun:lookUpMethod
   fun:objc_msgSend
   fun:+[NSBundle(NSNibLoading) _loadNibFile:nameTable:withZone:ownerBundle:]
   fun:+[NSBundle(NSNibLoading) loadNibNamed:owner:]
   fun:_Z7qt_initP19QApplicationPrivatei
   fun:_ZN19QApplicationPrivate9constructEv
   fun:_ZN12QApplicationC2ERiPPci
}
{
   <insert_a_suppression_name_here>
   Memcheck:Leak
   fun:malloc_zone_malloc
   fun:_CFURLAllocateExtraDataspace
   fun:__CFURLHash
   fun:probeGC
   fun:-[__CFx606449CMT objectForKey:]
   fun:_CFBundleCopyBundleForURL
   fun:_CFBundleCreate
   fun:_CFBundleEnsureBundleExistsForImagePath
   fun:CFBundleGetBundleWithIdentifier
   fun:+[NSBundle bundleWithIdentifier:]
   fun:_NSLocateKitBundle
   fun:_NSKitBundle
}
{
   <insert_a_suppression_name_here>
   Memcheck:Leak
   fun:malloc_zone_malloc
   fun:_CFURLAllocateExtraDataspace
   fun:__CFURLHash
   fun:probeGC
   fun:-[__CFx606449CMT objectForKey:]
   fun:_CFBundleCopyBundleForURL
   fun:_CFBundleCreate
   fun:_CFBundleEnsureBundleExistsForImagePath
   fun:_CFBundleEnsureBundlesExistForImagePaths
   fun:CFBundleGetBundleWithIdentifier
   fun:+[NSBundle bundleWithIdentifier:]
   fun:_NSLocateKitBundle
}
{
   <insert_a_suppression_name_here>
   Memcheck:Leak
   fun:malloc_zone_malloc
   fun:__CFBasicHashRehash
   fun:__CFBasicHashAddValue
   fun:CFBasicHashSetValue
   fun:CFDictionarySetValue
   fun:+[NSKeyedUnarchiver setClass:forClassName:]
   fun:_class_initialize
   fun:prepareForMethodLookup
   fun:lookUpMethod
   fun:objc_msgSend
   fun:loadNib
   fun:+[NSBundle(NSNibLoading) _loadNibFile:nameTable:withZone:ownerBundle:]
}
{
   <insert_a_suppression_name_here>
   Memcheck:Leak
   fun:malloc_zone_malloc
   fun:__CFBasicHashRehash
   fun:__CFBasicHashAddValue
   fun:CFBasicHashSetValue
   fun:CFDictionarySetValue
   fun:+[NSKeyedUnarchiver setClass:forClassName:]
   fun:_class_initialize
   fun:prepareForMethodLookup
   fun:lookUpMethod
   fun:objc_msgSend
   fun:loadNib
   fun:+[NSBundle(NSNibLoading) _loadNibFile:nameTable:withZone:ownerBundle:]
}
{
   <insert_a_suppression_name_here>
   Memcheck:Leak
   fun:malloc_zone_realloc
   fun:attachMethodLists
   fun:attachCategoryMethods
   fun:realizeClass
   fun:look_up_class
   fun:NSClassFromString
   fun:_decodeObjectBinary
   fun:_decodeObject
   fun:loadNib
   fun:+[NSBundle(NSNibLoading) _loadNibFile:nameTable:withZone:ownerBundle:]
   fun:+[NSBundle(NSNibLoading) loadNibNamed:owner:]
   fun:_Z7qt_initP19QApplicationPrivatei
}
{
   <insert_a_suppression_name_here>
   Memcheck:Leak
   fun:malloc_zone_malloc
   fun:__CFBinaryPlistCreateObject2
   fun:__CFBinaryPlistCreateObject
   fun:_decodeObjectBinary
   fun:_decodeObject
   fun:-[NSMenuItem initWithCoder:]
   fun:_decodeObjectBinary
   fun:_decodeObject
   fun:-[NSNibConnector initWithCoder:]
   fun:-[NSNibOutletConnector initWithCoder:]
   fun:_decodeObjectBinary
   fun:-[NSKeyedUnarchiver _decodeArrayOfObjectsForKey:]
}
{
   <insert_a_suppression_name_here>
   Memcheck:Leak
   fun:malloc_zone_realloc
   fun:attachMethodLists
   fun:attachCategoryMethods
   fun:realizeClass
   fun:realizeClass
   fun:look_up_class
   fun:NSClassFromString
   fun:_decodeObjectBinary
   fun:_decodeObject
   fun:-[NSMenuItem initWithCoder:]
   fun:_decodeObjectBinary
   fun:_decodeObject
}
{
   <insert_a_suppression_name_here>
   Memcheck:Leak
   fun:malloc_zone_malloc
   fun:buildProtocolList
   fun:realizeClass
   fun:realizeClass
   fun:look_up_class
   fun:NSClassFromString
   fun:_decodeObjectBinary
   fun:_decodeObject
   fun:-[NSMenuItem initWithCoder:]
   fun:_decodeObjectBinary
   fun:_decodeObject
   fun:-[NSNibConnector initWithCoder:]
}
{
   <insert_a_suppression_name_here>
   Memcheck:Leak
   fun:malloc_zone_malloc
   fun:buildProtocolList
   fun:realizeClass
   fun:look_up_class
   fun:NSClassFromString
   fun:_decodeObjectBinary
   fun:_decodeObject
   fun:-[NSMenuItem initWithCoder:]
   fun:_decodeObjectBinary
   fun:_decodeObject
   fun:-[NSNibConnector initWithCoder:]
   fun:-[NSNibOutletConnector initWithCoder:]
}
{
   <insert_a_suppression_name_here>
   Memcheck:Leak
   fun:malloc_zone_malloc
   fun:CFNotificationCenterAddObserver
   fun:FindUserKeyEquivalentString
   fun:-[NSMenuItem _cacheUserKeyEquivalentInfo]
   fun:-[NSMenuItem userKeyEquivalent]
   fun:-[NSMenuItem _desiredKeyEquivalent]
   fun:-[NSMenuItem _requiresKERegistration]
   fun:recursivelyCollectMenuItemsNeedingKERegistration
   fun:+[NSMenu(NSKeyEquivalents) _recursivelyRegisterMenuForKeyEquivalentUniquing:]
   fun:-[NSMenuItem setSubmenu:]
   fun:-[NSMenuItem initWithCoder:]
   fun:_decodeObjectBinary
}
{
   <insert_a_suppression_name_here>
   Memcheck:Leak
   fun:malloc_zone_malloc
   fun:_cache_addForwardEntry
   fun:lookUpMethod
   fun:class_respondsToSelector
   fun:-[NSIBObjectData initWithCoder:]
   fun:_decodeObjectBinary
   fun:_decodeObject
   fun:loadNib
   fun:+[NSBundle(NSNibLoading) _loadNibFile:nameTable:withZone:ownerBundle:]
   fun:+[NSBundle(NSNibLoading) loadNibNamed:owner:]
   fun:_Z7qt_initP19QApplicationPrivatei
   fun:_ZN19QApplicationPrivate9constructEv
}
{
   <insert_a_suppression_name_here>
   Memcheck:Leak
   fun:malloc_zone_malloc
   fun:__CFBasicHashRehash
   fun:__CFBasicHashAddValue
   fun:CFBasicHashSetValue
   fun:CFDictionarySetValue
   fun:-[NSCFDictionary setObject:forKey:]
   fun:+[NSNib(NSUserInterfaceItemIdentifierUtilitiesPrivate) _NSNibRegisterNIBPath:]
   fun:-[NSIBObjectData nibInstantiateWithOwner:topLevelObjects:]
   fun:loadNib
   fun:+[NSBundle(NSNibLoading) _loadNibFile:nameTable:withZone:ownerBundle:]
   fun:+[NSBundle(NSNibLoading) loadNibNamed:owner:]
   fun:_Z7qt_initP19QApplicationPrivatei
}
{
   <insert_a_suppression_name_here>
   Memcheck:Leak
   fun:malloc_zone_malloc
   fun:__CFBasicHashRehash
   fun:__CFBasicHashAddValue
   fun:CFBasicHashSetValue
   fun:CFDictionarySetValue
   fun:-[NSCFDictionary setObject:forKey:]
   fun:+[NSNib(NSUserInterfaceItemIdentifierUtilitiesPrivate) _NSNibRegisterNIBPath:]
   fun:-[NSIBObjectData nibInstantiateWithOwner:topLevelObjects:]
   fun:loadNib
   fun:+[NSBundle(NSNibLoading) _loadNibFile:nameTable:withZone:ownerBundle:]
   fun:+[NSBundle(NSNibLoading) loadNibNamed:owner:]
   fun:_Z7qt_initP19QApplicationPrivatei
}
{
   <insert_a_suppression_name_here>
   Memcheck:Leak
   fun:malloc_zone_malloc
   fun:__CFBasicHashRehash
   fun:__CFBasicHashAddValue
   fun:CFBasicHashSetValue
   fun:CFDictionarySetValue
   fun:-[NSCFDictionary setObject:forKey:]
   fun:+[NSNib(NSUserInterfaceItemIdentifierUtilitiesPrivate) _NSNibRegisterNIBPath:]
   fun:-[NSIBObjectData nibInstantiateWithOwner:topLevelObjects:]
   fun:loadNib
   fun:+[NSBundle(NSNibLoading) _loadNibFile:nameTable:withZone:ownerBundle:]
   fun:+[NSBundle(NSNibLoading) loadNibNamed:owner:]
   fun:_Z7qt_initP19QApplicationPrivatei
}
{
   <insert_a_suppression_name_here>
   Memcheck:Leak
   fun:malloc_zone_malloc
   fun:__CFBasicHashRehash
   fun:__CFBasicHashAddValue
   fun:CFBasicHashSetValue
   fun:CFDictionarySetValue
   fun:-[NSCFDictionary setObject:forKey:]
   fun:+[NSNib(NSUserInterfaceItemIdentifierUtilitiesPrivate) _NSNibRegisterNIBPath:]
   fun:-[NSIBObjectData nibInstantiateWithOwner:topLevelObjects:]
   fun:loadNib
   fun:+[NSBundle(NSNibLoading) _loadNibFile:nameTable:withZone:ownerBundle:]
   fun:+[NSBundle(NSNibLoading) loadNibNamed:owner:]
   fun:_Z7qt_initP19QApplicationPrivatei
}
{
   <insert_a_suppression_name_here>
   Memcheck:Leak
   fun:malloc_zone_malloc
   fun:buildProtocolList
   fun:realizeClass
   fun:prepareForMethodLookup
   fun:lookUpMethod
   fun:objc_msgSend
   fun:-[NSIBObjectData nibInstantiateWithOwner:topLevelObjects:]
   fun:loadNib
   fun:+[NSBundle(NSNibLoading) _loadNibFile:nameTable:withZone:ownerBundle:]
   fun:+[NSBundle(NSNibLoading) loadNibNamed:owner:]
   fun:_Z7qt_initP19QApplicationPrivatei
   fun:_ZN19QApplicationPrivate9constructEv
}
{
   <insert_a_suppression_name_here>
   Memcheck:Leak
   fun:malloc_zone_malloc
   fun:buildProtocolList
   fun:realizeClass
   fun:_class_getNonMetaClass
   fun:_class_initialize
   fun:prepareForMethodLookup
   fun:lookUpMethod
   fun:objc_msgSend
   fun:-[NSIBObjectData nibInstantiateWithOwner:topLevelObjects:]
   fun:loadNib
   fun:+[NSBundle(NSNibLoading) _loadNibFile:nameTable:withZone:ownerBundle:]
   fun:+[NSBundle(NSNibLoading) loadNibNamed:owner:]
}
{
   <insert_a_suppression_name_here>
   Memcheck:Leak
   fun:malloc_zone_malloc
   fun:_cache_addForwardEntry
   fun:lookUpMethod
   fun:class_respondsToSelector
   fun:-[NSNibOutletConnector establishConnection]
   fun:-[NSIBObjectData nibInstantiateWithOwner:topLevelObjects:]
   fun:loadNib
   fun:+[NSBundle(NSNibLoading) _loadNibFile:nameTable:withZone:ownerBundle:]
   fun:+[NSBundle(NSNibLoading) loadNibNamed:owner:]
   fun:_Z7qt_initP19QApplicationPrivatei
   fun:_ZN19QApplicationPrivate9constructEv
   fun:_ZN12QApplicationC2ERiPPci
}
{
   <insert_a_suppression_name_here>
   Memcheck:Leak
   fun:calloc
   fun:_internal_class_createInstanceFromZone
   fun:+[NSObject(NSObject) allocWithZone:]
   fun:__NSServicesSharedPrincipalUpdater_block_invoke_1
   fun:_NSFaultingObjectWithStorageLocationAndNewObjectProviderBlock
   fun:-[NSApplication(NSServicesMenuPrivate) setServicesMenu:]
   fun:-[NSMenu _finishedMakingConnections]
   fun:-[NSSet makeObjectsPerformSelector:]
   fun:-[NSIBObjectData nibInstantiateWithOwner:topLevelObjects:]
   fun:loadNib
   fun:+[NSBundle(NSNibLoading) _loadNibFile:nameTable:withZone:ownerBundle:]
   fun:+[NSBundle(NSNibLoading) loadNibNamed:owner:]
}
{
   <insert_a_suppression_name_here>
   Memcheck:Leak
   fun:malloc_zone_malloc
   fun:_cache_addForwardEntry
   fun:lookUpMethod
   fun:class_respondsToSelector
   fun:-[NSMenu setDelegate:]
   fun:-[NSApplication(NSServicesMenuPrivate) setServicesMenu:]
   fun:-[NSMenu _finishedMakingConnections]
   fun:-[NSSet makeObjectsPerformSelector:]
   fun:-[NSIBObjectData nibInstantiateWithOwner:topLevelObjects:]
   fun:loadNib
   fun:+[NSBundle(NSNibLoading) _loadNibFile:nameTable:withZone:ownerBundle:]
   fun:+[NSBundle(NSNibLoading) loadNibNamed:owner:]
}
{
   <insert_a_suppression_name_here>
   Memcheck:Leak
   fun:malloc_zone_malloc
   fun:_cache_addForwardEntry
   fun:lookUpMethod
   fun:class_respondsToSelector
   fun:-[NSMenu setDelegate:]
   fun:-[NSApplication(NSServicesMenuPrivate) setServicesMenu:]
   fun:-[NSMenu _finishedMakingConnections]
   fun:-[NSSet makeObjectsPerformSelector:]
   fun:-[NSIBObjectData nibInstantiateWithOwner:topLevelObjects:]
   fun:loadNib
   fun:+[NSBundle(NSNibLoading) _loadNibFile:nameTable:withZone:ownerBundle:]
   fun:+[NSBundle(NSNibLoading) loadNibNamed:owner:]
}
{
   <insert_a_suppression_name_here>
   Memcheck:Leak
   fun:malloc_zone_malloc
   fun:_cache_addForwardEntry
   fun:lookUpMethod
   fun:class_respondsToSelector
   fun:-[NSMenu setDelegate:]
   fun:-[NSApplication(NSServicesMenuPrivate) setServicesMenu:]
   fun:-[NSMenu _finishedMakingConnections]
   fun:-[NSSet makeObjectsPerformSelector:]
   fun:-[NSIBObjectData nibInstantiateWithOwner:topLevelObjects:]
   fun:loadNib
   fun:+[NSBundle(NSNibLoading) _loadNibFile:nameTable:withZone:ownerBundle:]
   fun:+[NSBundle(NSNibLoading) loadNibNamed:owner:]
}
{
   <insert_a_suppression_name_here>
   Memcheck:Leak
   fun:calloc
   fun:_internal_class_createInstanceFromZone
   fun:+[NSObject(NSObject) allocWithZone:]
   fun:__NSMenuUniquerMainMenuUniquer_block_invoke_1
   fun:_NSFaultingObjectWithStorageLocationAndNewObjectProviderBlock
   fun:+[NSMenu(NSKeyEquivalents) _recursivelyRegisterMenuForKeyEquivalentUniquing:]
   fun:-[NSMenu _setMenuName:]
   fun:-[NSMenu _finishedMakingConnections]
   fun:-[NSSet makeObjectsPerformSelector:]
   fun:-[NSIBObjectData nibInstantiateWithOwner:topLevelObjects:]
   fun:loadNib
   fun:+[NSBundle(NSNibLoading) _loadNibFile:nameTable:withZone:ownerBundle:]
}
{
   <insert_a_suppression_name_here>
   Memcheck:Leak
   fun:calloc
   fun:_ZL30SynchronizeDatabaseInformationP19DBSynchMessageReply
   fun:_ZL22NewHookUpWithATSServerjh
   fun:FOLazyInitialize
   fun:ATSFontFamilyFindFromName
   fun:_ZN13QFontDatabase4loadEPK12QFontPrivatei
   fun:_ZNK12QFontPrivate15engineForScriptEi
   fun:_ZNK11QTextEngine10fontEngineERK11QScriptItemP6QFixedS4_S4_
   fun:_ZNK11QTextEngine12shapeTextMacEi
   fun:_ZNK11QTextEngine9shapeTextEi
   fun:_ZNK11QTextEngine5shapeEi
   fun:_ZN11QTextEngine9shapeLineERK11QScriptLine
}
{
   <insert_a_suppression_name_here>
   Memcheck:Leak
   fun:malloc_zone_malloc
   fun:CFNotificationCenterAddObserver
   fun:FOLazyInitialize
   fun:ATSFontFamilyFindFromName
   fun:_ZN13QFontDatabase4loadEPK12QFontPrivatei
   fun:_ZNK12QFontPrivate15engineForScriptEi
   fun:_ZNK11QTextEngine10fontEngineERK11QScriptItemP6QFixedS4_S4_
   fun:_ZNK11QTextEngine12shapeTextMacEi
   fun:_ZNK11QTextEngine9shapeTextEi
   fun:_ZNK11QTextEngine5shapeEi
   fun:_ZN11QTextEngine9shapeLineERK11QScriptLine
   fun:_ZN8QPainter8drawTextERK7QPointFRK7QStringii
}
{
   <insert_a_suppression_name_here>
   Memcheck:Leak
   fun:malloc_zone_malloc
   fun:__CFBasicHashRehash
   fun:__CFBasicHashAddValue
   fun:CFBasicHashAddValue
   fun:CFDictionaryAddValue
   fun:_ZL7AddNameR15TCFMutableArrayPK10__CFStringj
   fun:CreateSplicedFontForDescriptor
   fun:_ZN20TSplicedFontStashImp18CreateSplicedFontsEv
   fun:_ZN17TSplicedFontStash11CreateCacheEv
   fun:_ZN17TSplicedFontStashC2Ev
   fun:_ZNK17TDescriptorSource35CopyFontDescriptorPerPostscriptNameEPK10__CFStringm
   fun:_ZNK11TDescriptor32CreateMatchingDescriptorInternalEPK7__CFSet
}
{
   <insert_a_suppression_name_here>
   Memcheck:Leak
   fun:malloc_zone_malloc
   fun:__CFBasicHashRehash
   fun:__CFBasicHashAddValue
   fun:CFBasicHashAddValue
   fun:CFDictionaryAddValue
   fun:_ZL7AddNameR15TCFMutableArrayPK10__CFStringj
   fun:CreateSplicedFontForDescriptor
   fun:_ZN20TSplicedFontStashImp18CreateSplicedFontsEv
   fun:_ZN17TSplicedFontStash11CreateCacheEv
   fun:_ZN17TSplicedFontStashC2Ev
   fun:_ZNK17TDescriptorSource35CopyFontDescriptorPerPostscriptNameEPK10__CFStringm
   fun:_ZNK11TDescriptor32CreateMatchingDescriptorInternalEPK7__CFSet
}
{
   <insert_a_suppression_name_here>
   Memcheck:Leak
   fun:malloc_zone_malloc
   fun:__CFBasicHashRehash
   fun:__CFBasicHashAddValue
   fun:CFBasicHashAddValue
   fun:CFDictionaryAddValue
   fun:_ZL7AddNameR15TCFMutableArrayPK10__CFStringj
   fun:CreateSplicedFontForDescriptor
   fun:_ZN20TSplicedFontStashImp18CreateSplicedFontsEv
   fun:_ZN17TSplicedFontStash11CreateCacheEv
   fun:_ZN17TSplicedFontStashC2Ev
   fun:_ZNK17TDescriptorSource35CopyFontDescriptorPerPostscriptNameEPK10__CFStringm
   fun:_ZNK11TDescriptor32CreateMatchingDescriptorInternalEPK7__CFSet
}
{
   <insert_a_suppression_name_here>
   Memcheck:Leak
   fun:malloc_zone_malloc
   fun:__CFBasicHashRehash
   fun:__CFBasicHashAddValue
   fun:CFBasicHashAddValue
   fun:CFDictionaryAddValue
   fun:_ZL7AddNameR15TCFMutableArrayPK10__CFStringj
   fun:CreateSplicedFontForDescriptor
   fun:_ZN20TSplicedFontStashImp18CreateSplicedFontsEv
   fun:_ZN17TSplicedFontStash11CreateCacheEv
   fun:_ZN17TSplicedFontStashC2Ev
   fun:_ZNK17TDescriptorSource35CopyFontDescriptorPerPostscriptNameEPK10__CFStringm
   fun:_ZNK11TDescriptor32CreateMatchingDescriptorInternalEPK7__CFSet
}
{
   <insert_a_suppression_name_here>
   Memcheck:Leak
   fun:malloc_zone_malloc
   fun:__CFBasicHashRehash
   fun:__CFBasicHashAddValue
   fun:CFBasicHashAddValue
   fun:CFDictionaryAddValue
   fun:_ZL7AddNameR15TCFMutableArrayPK10__CFStringj
   fun:CreateSplicedFontForDescriptor
   fun:_ZN20TSplicedFontStashImp18CreateSplicedFontsEv
   fun:_ZN17TSplicedFontStash11CreateCacheEv
   fun:_ZN17TSplicedFontStashC2Ev
   fun:_ZNK17TDescriptorSource35CopyFontDescriptorPerPostscriptNameEPK10__CFStringm
   fun:_ZNK11TDescriptor32CreateMatchingDescriptorInternalEPK7__CFSet
}
{
   <insert_a_suppression_name_here>
   Memcheck:Leak
   fun:malloc_zone_malloc
   fun:__CFBasicHashRehash
   fun:__CFBasicHashAddValue
   fun:CFBasicHashAddValue
   fun:CFDictionaryAddValue
   fun:_ZL7AddNameR15TCFMutableArrayPK10__CFStringj
   fun:CreateSplicedFontForDescriptor
   fun:_ZN20TSplicedFontStashImp18CreateSplicedFontsEv
   fun:_ZN17TSplicedFontStash11CreateCacheEv
   fun:_ZN17TSplicedFontStashC2Ev
   fun:_ZNK17TDescriptorSource35CopyFontDescriptorPerPostscriptNameEPK10__CFStringm
   fun:_ZNK11TDescriptor32CreateMatchingDescriptorInternalEPK7__CFSet
}
{
   <insert_a_suppression_name_here>
   Memcheck:Leak
   fun:malloc_zone_malloc
   fun:__CFBasicHashRehash
   fun:__CFBasicHashAddValue
   fun:CFBasicHashAddValue
   fun:CFDictionaryAddValue
   fun:_ZL7AddNameR15TCFMutableArrayPK10__CFStringj
   fun:CreateSplicedFontForDescriptor
   fun:_ZN20TSplicedFontStashImp18CreateSplicedFontsEv
   fun:_ZN17TSplicedFontStash11CreateCacheEv
   fun:_ZN17TSplicedFontStashC2Ev
   fun:_ZNK17TDescriptorSource35CopyFontDescriptorPerPostscriptNameEPK10__CFStringm
   fun:_ZNK11TDescriptor32CreateMatchingDescriptorInternalEPK7__CFSet
}
{
   <insert_a_suppression_name_here>
   Memcheck:Leak
   fun:malloc_zone_malloc
   fun:__CFBasicHashRehash
   fun:__CFBasicHashAddValue
   fun:CFBasicHashAddValue
   fun:CFDictionaryAddValue
   fun:_ZL7AddNameR15TCFMutableArrayPK10__CFStringj
   fun:CreateSplicedFontForDescriptor
   fun:_ZN20TSplicedFontStashImp18CreateSplicedFontsEv
   fun:_ZN17TSplicedFontStash11CreateCacheEv
   fun:_ZN17TSplicedFontStashC2Ev
   fun:_ZNK17TDescriptorSource35CopyFontDescriptorPerPostscriptNameEPK10__CFStringm
   fun:_ZNK11TDescriptor32CreateMatchingDescriptorInternalEPK7__CFSet
}
{
   <insert_a_suppression_name_here>
   Memcheck:Leak
   fun:malloc_zone_malloc
   fun:__CFBasicHashRehash
   fun:__CFBasicHashAddValue
   fun:CFBasicHashAddValue
   fun:CFDictionaryAddValue
   fun:_ZL7AddNameR15TCFMutableArrayPK10__CFStringj
   fun:CreateSplicedFontForDescriptor
   fun:_ZN20TSplicedFontStashImp18CreateSplicedFontsEv
   fun:_ZN17TSplicedFontStash11CreateCacheEv
   fun:_ZN17TSplicedFontStashC2Ev
   fun:_ZNK17TDescriptorSource35CopyFontDescriptorPerPostscriptNameEPK10__CFStringm
   fun:_ZNK11TDescriptor32CreateMatchingDescriptorInternalEPK7__CFSet
}
{
   <insert_a_suppression_name_here>
   Memcheck:Leak
   fun:malloc_zone_malloc
   fun:__CFBasicHashRehash
   fun:__CFBasicHashAddValue
   fun:CFBasicHashAddValue
   fun:CFDictionaryAddValue
   fun:_ZL7AddNameR15TCFMutableArrayPK10__CFStringj
   fun:CreateSplicedFontForDescriptor
   fun:_ZN20TSplicedFontStashImp18CreateSplicedFontsEv
   fun:_ZN17TSplicedFontStash11CreateCacheEv
   fun:_ZN17TSplicedFontStashC2Ev
   fun:_ZNK17TDescriptorSource35CopyFontDescriptorPerPostscriptNameEPK10__CFStringm
   fun:_ZNK11TDescriptor32CreateMatchingDescriptorInternalEPK7__CFSet
}
{
   <insert_a_suppression_name_here>
   Memcheck:Leak
   fun:malloc_zone_malloc
   fun:__CFBasicHashRehash
   fun:__CFBasicHashAddValue
   fun:CFBasicHashAddValue
   fun:CFDictionaryAddValue
   fun:_ZL7AddNameR15TCFMutableArrayPK10__CFStringj
   fun:CreateSplicedFontForDescriptor
   fun:_ZN20TSplicedFontStashImp18CreateSplicedFontsEv
   fun:_ZN17TSplicedFontStash11CreateCacheEv
   fun:_ZN17TSplicedFontStashC2Ev
   fun:_ZNK17TDescriptorSource35CopyFontDescriptorPerPostscriptNameEPK10__CFStringm
   fun:_ZNK11TDescriptor32CreateMatchingDescriptorInternalEPK7__CFSet
}
{
   <insert_a_suppression_name_here>
   Memcheck:Leak
   fun:malloc_zone_malloc
   fun:__CFBasicHashRehash
   fun:__CFBasicHashAddValue
   fun:CFBasicHashAddValue
   fun:CFDictionaryAddValue
   fun:_ZL7AddNameR15TCFMutableArrayPK10__CFStringj
   fun:CreateSplicedFontForDescriptor
   fun:_ZN20TSplicedFontStashImp18CreateSplicedFontsEv
   fun:_ZN17TSplicedFontStash11CreateCacheEv
   fun:_ZN17TSplicedFontStashC2Ev
   fun:_ZNK17TDescriptorSource35CopyFontDescriptorPerPostscriptNameEPK10__CFStringm
   fun:_ZNK11TDescriptor32CreateMatchingDescriptorInternalEPK7__CFSet
}
{
   <insert_a_suppression_name_here>
   Memcheck:Leak
   fun:malloc_zone_malloc
   fun:__CFBasicHashRehash
   fun:__CFBasicHashAddValue
   fun:CFBasicHashAddValue
   fun:CFDictionaryAddValue
   fun:CreateSplicedFontForDescriptor
   fun:_ZN20TSplicedFontStashImp18CreateSplicedFontsEv
   fun:_ZN17TSplicedFontStash11CreateCacheEv
   fun:_ZN17TSplicedFontStashC2Ev
   fun:_ZNK17TDescriptorSource35CopyFontDescriptorPerPostscriptNameEPK10__CFStringm
   fun:_ZNK11TDescriptor32CreateMatchingDescriptorInternalEPK7__CFSet
   fun:_ZN11TDescriptor12InitBaseFontEv
}
{
   <insert_a_suppression_name_here>
   Memcheck:Leak
   fun:malloc_zone_malloc
   fun:__CFBasicHashRehash
   fun:__CFBasicHashAddValue
   fun:CFBasicHashAddValue
   fun:CFDictionaryAddValue
   fun:CreateSplicedFontForDescriptor
   fun:_ZN20TSplicedFontStashImp18CreateSplicedFontsEv
   fun:_ZN17TSplicedFontStash11CreateCacheEv
   fun:_ZN17TSplicedFontStashC2Ev
   fun:_ZNK17TDescriptorSource35CopyFontDescriptorPerPostscriptNameEPK10__CFStringm
   fun:_ZNK11TDescriptor32CreateMatchingDescriptorInternalEPK7__CFSet
   fun:_ZN11TDescriptor12InitBaseFontEv
}
{
   <insert_a_suppression_name_here>
   Memcheck:Leak
   fun:malloc_zone_malloc
   fun:__CFBasicHashRehash
   fun:__CFBasicHashAddValue
   fun:CFBasicHashAddValue
   fun:CFDictionaryAddValue
   fun:CreateSplicedFontForDescriptor
   fun:_ZN20TSplicedFontStashImp18CreateSplicedFontsEv
   fun:_ZN17TSplicedFontStash11CreateCacheEv
   fun:_ZN17TSplicedFontStashC2Ev
   fun:_ZNK17TDescriptorSource35CopyFontDescriptorPerPostscriptNameEPK10__CFStringm
   fun:_ZNK11TDescriptor32CreateMatchingDescriptorInternalEPK7__CFSet
   fun:_ZN11TDescriptor12InitBaseFontEv
}
{
   <insert_a_suppression_name_here>
   Memcheck:Leak
   fun:malloc_zone_malloc
   fun:__CFBasicHashRehash
   fun:__CFBasicHashAddValue
   fun:CFBasicHashAddValue
   fun:CFDictionaryAddValue
   fun:CreateSplicedFontForDescriptor
   fun:_ZN20TSplicedFontStashImp18CreateSplicedFontsEv
   fun:_ZN17TSplicedFontStash11CreateCacheEv
   fun:_ZN17TSplicedFontStashC2Ev
   fun:_ZNK17TDescriptorSource35CopyFontDescriptorPerPostscriptNameEPK10__CFStringm
   fun:_ZNK11TDescriptor32CreateMatchingDescriptorInternalEPK7__CFSet
   fun:_ZN11TDescriptor12InitBaseFontEv
}
{
   <insert_a_suppression_name_here>
   Memcheck:Leak
   fun:malloc_zone_malloc
   fun:__CFBasicHashRehash
   fun:__CFBasicHashAddValue
   fun:CFBasicHashAddValue
   fun:CFDictionaryAddValue
   fun:_ZL7AddNameR15TCFMutableArrayPK10__CFStringj
   fun:CreateSplicedFontForDescriptor
   fun:_ZN20TSplicedFontStashImp18CreateSplicedFontsEv
   fun:_ZN17TSplicedFontStash11CreateCacheEv
   fun:_ZN17TSplicedFontStashC2Ev
   fun:_ZNK17TDescriptorSource35CopyFontDescriptorPerPostscriptNameEPK10__CFStringm
   fun:_ZNK11TDescriptor32CreateMatchingDescriptorInternalEPK7__CFSet
}
{
   <insert_a_suppression_name_here>
   Memcheck:Leak
   fun:malloc_zone_malloc
   fun:__CFBasicHashRehash
   fun:__CFBasicHashAddValue
   fun:CFBasicHashAddValue
   fun:CFDictionaryAddValue
   fun:_ZL7AddNameR15TCFMutableArrayPK10__CFStringj
   fun:CreateSplicedFontForDescriptor
   fun:_ZN20TSplicedFontStashImp18CreateSplicedFontsEv
   fun:_ZN17TSplicedFontStash11CreateCacheEv
   fun:_ZN17TSplicedFontStashC2Ev
   fun:_ZNK17TDescriptorSource35CopyFontDescriptorPerPostscriptNameEPK10__CFStringm
   fun:_ZNK11TDescriptor32CreateMatchingDescriptorInternalEPK7__CFSet
}
{
   <insert_a_suppression_name_here>
   Memcheck:Leak
   fun:malloc_zone_malloc
   fun:__CFBasicHashRehash
   fun:__CFBasicHashAddValue
   fun:CFBasicHashAddValue
   fun:CFDictionaryAddValue
   fun:_ZL7AddNameR15TCFMutableArrayPK10__CFStringj
   fun:CreateSplicedFontForDescriptor
   fun:_ZN20TSplicedFontStashImp18CreateSplicedFontsEv
   fun:_ZN17TSplicedFontStash11CreateCacheEv
   fun:_ZN17TSplicedFontStashC2Ev
   fun:_ZNK17TDescriptorSource35CopyFontDescriptorPerPostscriptNameEPK10__CFStringm
   fun:_ZNK11TDescriptor32CreateMatchingDescriptorInternalEPK7__CFSet
}
{
   <insert_a_suppression_name_here>
   Memcheck:Leak
   fun:malloc_zone_malloc
   fun:__CFBasicHashRehash
   fun:__CFBasicHashAddValue
   fun:CFBasicHashAddValue
   fun:CFDictionaryAddValue
   fun:_ZL7AddNameR15TCFMutableArrayPK10__CFStringj
   fun:CreateSplicedFontForDescriptor
   fun:_ZN20TSplicedFontStashImp18CreateSplicedFontsEv
   fun:_ZN17TSplicedFontStash11CreateCacheEv
   fun:_ZN17TSplicedFontStashC2Ev
   fun:_ZNK17TDescriptorSource35CopyFontDescriptorPerPostscriptNameEPK10__CFStringm
   fun:_ZNK11TDescriptor32CreateMatchingDescriptorInternalEPK7__CFSet
}
{
   <insert_a_suppression_name_here>
   Memcheck:Leak
   fun:malloc_zone_malloc
   fun:__CFBasicHashRehash
   fun:__CFBasicHashAddValue
   fun:CFBasicHashAddValue
   fun:CFDictionaryAddValue
   fun:_ZL7AddNameR15TCFMutableArrayPK10__CFStringj
   fun:CreateSplicedFontForDescriptor
   fun:_ZN20TSplicedFontStashImp18CreateSplicedFontsEv
   fun:_ZN17TSplicedFontStash11CreateCacheEv
   fun:_ZN17TSplicedFontStashC2Ev
   fun:_ZNK17TDescriptorSource35CopyFontDescriptorPerPostscriptNameEPK10__CFStringm
   fun:_ZNK11TDescriptor32CreateMatchingDescriptorInternalEPK7__CFSet
}
{
   <insert_a_suppression_name_here>
   Memcheck:Leak
   fun:malloc_zone_malloc
   fun:__CFBasicHashRehash
   fun:__CFBasicHashAddValue
   fun:CFBasicHashAddValue
   fun:CFDictionaryAddValue
   fun:_ZL7AddNameR15TCFMutableArrayPK10__CFStringj
   fun:CreateSplicedFontForDescriptor
   fun:_ZN20TSplicedFontStashImp18CreateSplicedFontsEv
   fun:_ZN17TSplicedFontStash11CreateCacheEv
   fun:_ZN17TSplicedFontStashC2Ev
   fun:_ZNK17TDescriptorSource35CopyFontDescriptorPerPostscriptNameEPK10__CFStringm
   fun:_ZNK11TDescriptor32CreateMatchingDescriptorInternalEPK7__CFSet
}
{
   <insert_a_suppression_name_here>
   Memcheck:Leak
   fun:malloc_zone_malloc
   fun:__CFBasicHashRehash
   fun:__CFBasicHashAddValue
   fun:CFBasicHashAddValue
   fun:CFDictionaryAddValue
   fun:_ZL7AddNameR15TCFMutableArrayPK10__CFStringj
   fun:CreateSplicedFontForDescriptor
   fun:_ZN20TSplicedFontStashImp18CreateSplicedFontsEv
   fun:_ZN17TSplicedFontStash11CreateCacheEv
   fun:_ZN17TSplicedFontStashC2Ev
   fun:_ZNK17TDescriptorSource35CopyFontDescriptorPerPostscriptNameEPK10__CFStringm
   fun:_ZNK11TDescriptor32CreateMatchingDescriptorInternalEPK7__CFSet
}
{
   <insert_a_suppression_name_here>
   Memcheck:Leak
   fun:malloc_zone_malloc
   fun:__CFBasicHashRehash
   fun:__CFBasicHashAddValue
   fun:CFBasicHashAddValue
   fun:CFDictionaryAddValue
   fun:_ZL7AddNameR15TCFMutableArrayPK10__CFStringj
   fun:CreateSplicedFontForDescriptor
   fun:_ZN20TSplicedFontStashImp18CreateSplicedFontsEv
   fun:_ZN17TSplicedFontStash11CreateCacheEv
   fun:_ZN17TSplicedFontStashC2Ev
   fun:_ZNK17TDescriptorSource35CopyFontDescriptorPerPostscriptNameEPK10__CFStringm
   fun:_ZNK11TDescriptor32CreateMatchingDescriptorInternalEPK7__CFSet
}
{
   <insert_a_suppression_name_here>
   Memcheck:Leak
   fun:malloc_zone_malloc
   fun:__CFBasicHashRehash
   fun:__CFBasicHashAddValue
   fun:CFBasicHashAddValue
   fun:CFDictionaryAddValue
   fun:_ZL7AddNameR15TCFMutableArrayPK10__CFStringj
   fun:CreateSplicedFontForDescriptor
   fun:_ZN20TSplicedFontStashImp18CreateSplicedFontsEv
   fun:_ZN17TSplicedFontStash11CreateCacheEv
   fun:_ZN17TSplicedFontStashC2Ev
   fun:_ZNK17TDescriptorSource35CopyFontDescriptorPerPostscriptNameEPK10__CFStringm
   fun:_ZNK11TDescriptor32CreateMatchingDescriptorInternalEPK7__CFSet
}
{
   <insert_a_suppression_name_here>
   Memcheck:Leak
   fun:malloc_zone_malloc
   fun:__CFBasicHashRehash
   fun:__CFBasicHashAddValue
   fun:CFBasicHashAddValue
   fun:CFDictionaryAddValue
   fun:_ZL7AddNameR15TCFMutableArrayPK10__CFStringj
   fun:CreateSplicedFontForDescriptor
   fun:_ZN20TSplicedFontStashImp18CreateSplicedFontsEv
   fun:_ZN17TSplicedFontStash11CreateCacheEv
   fun:_ZN17TSplicedFontStashC2Ev
   fun:_ZNK17TDescriptorSource35CopyFontDescriptorPerPostscriptNameEPK10__CFStringm
   fun:_ZNK11TDescriptor32CreateMatchingDescriptorInternalEPK7__CFSet
}
{
   <insert_a_suppression_name_here>
   Memcheck:Leak
   fun:malloc_zone_malloc
   fun:__CFBasicHashRehash
   fun:__CFBasicHashAddValue
   fun:CFBasicHashAddValue
   fun:CFDictionaryAddValue
   fun:_ZL7AddNameR15TCFMutableArrayPK10__CFStringj
   fun:CreateSplicedFontForDescriptor
   fun:_ZN20TSplicedFontStashImp18CreateSplicedFontsEv
   fun:_ZN17TSplicedFontStash11CreateCacheEv
   fun:_ZN17TSplicedFontStashC2Ev
   fun:_ZNK17TDescriptorSource35CopyFontDescriptorPerPostscriptNameEPK10__CFStringm
   fun:_ZNK11TDescriptor32CreateMatchingDescriptorInternalEPK7__CFSet
}
{
   <insert_a_suppression_name_here>
   Memcheck:Leak
   fun:malloc_zone_malloc
   fun:__CFBasicHashRehash
   fun:__CFBasicHashAddValue
   fun:CFBasicHashAddValue
   fun:CFDictionaryAddValue
   fun:_ZL7AddNameR15TCFMutableArrayPK10__CFStringj
   fun:CreateSplicedFontForDescriptor
   fun:_ZN20TSplicedFontStashImp18CreateSplicedFontsEv
   fun:_ZN17TSplicedFontStash11CreateCacheEv
   fun:_ZN17TSplicedFontStashC2Ev
   fun:_ZNK17TDescriptorSource35CopyFontDescriptorPerPostscriptNameEPK10__CFStringm
   fun:_ZNK11TDescriptor32CreateMatchingDescriptorInternalEPK7__CFSet
}
{
   <insert_a_suppression_name_here>
   Memcheck:Leak
   fun:malloc_zone_malloc
   fun:__CFBasicHashRehash
   fun:__CFBasicHashAddValue
   fun:CFBasicHashAddValue
   fun:CFDictionaryAddValue
   fun:__CFDictionaryApplyFunction_block_invoke_1
   fun:CFBasicHashApply
   fun:CFDictionaryApplyFunction
   fun:_ZNK7TCFDict29CreateDictionaryFilteredByKeyEPK7__CFSet
   fun:_ZN17TDescriptorSource29CopyMandatoryMatchableRequestEPK14__CFDictionaryPK7__CFSet
   fun:_ZNK17TDescriptorSource25CopyDescriptorsForRequestEPK14__CFDictionaryPK7__CFSetPFlPKvS7_PvES8_m
   fun:_ZNK17TDescriptorSource32CopyMatchingDescriptorsForFamilyEPK10__CFStringm
}
{
   <insert_a_suppression_name_here>
   Memcheck:Leak
   fun:malloc_zone_malloc
   fun:__CFBasicHashRehash
   fun:__CFBasicHashAddValue
   fun:CFBasicHashAddValue
   fun:CFDictionaryAddValue
   fun:__CFDictionaryApplyFunction_block_invoke_1
   fun:CFBasicHashApply
   fun:CFDictionaryApplyFunction
   fun:_ZNK7TCFDict29CreateDictionaryFilteredByKeyEPK7__CFSet
   fun:_ZN17TDescriptorSource29CopyMandatoryMatchableRequestEPK14__CFDictionaryPK7__CFSet
   fun:_ZNK17TDescriptorSource25CopyDescriptorsForRequestEPK14__CFDictionaryPK7__CFSetPFlPKvS7_PvES8_m
   fun:_ZNK17TDescriptorSource32CopyMatchingDescriptorsForFamilyEPK10__CFStringm
}
{
   <insert_a_suppression_name_here>
   Memcheck:Leak
   fun:malloc_zone_malloc
   fun:__CFBasicHashRehash
   fun:__CFBasicHashAddValue
   fun:CFBasicHashSetValue
   fun:CFDictionarySetValue
   fun:_ZNK9TBaseFont20SetAttributeInternalEPKvS1_
   fun:_ZNK9TBaseFont10CopyTraitsEv
   fun:_ZNK9TBaseFont18CreateTraitsValuesEv
   fun:_ZNK9TBaseFont29CreateVariantOfMatchingTraitsEjj
   fun:CTFontCreateCopyWithSymbolicTraits
   fun:_ZN24QCoreTextFontEngineMultiC2ERKjS1_RK8QFontDefb
   fun:_ZN13QFontDatabase4loadEPK12QFontPrivatei
}
{
   <insert_a_suppression_name_here>
   Memcheck:Leak
   fun:malloc_zone_malloc
   fun:__CFBasicHashRehash
   fun:__CFBasicHashAddValue
   fun:CFBasicHashSetValue
   fun:CFDictionarySetValue
   fun:_ZNK9TBaseFont20SetAttributeInternalEPKvS1_
   fun:_ZNK9TBaseFont10CopyTraitsEv
   fun:_ZNK9TBaseFont18CreateTraitsValuesEv
   fun:_ZNK9TBaseFont29CreateVariantOfMatchingTraitsEjj
   fun:CTFontCreateCopyWithSymbolicTraits
   fun:_ZN24QCoreTextFontEngineMultiC2ERKjS1_RK8QFontDefb
   fun:_ZN13QFontDatabase4loadEPK12QFontPrivatei
}
{
   <insert_a_suppression_name_here>
   Memcheck:Leak
   fun:malloc
   fun:_Znwm
   fun:_ZL18CreateWrappedTableRK9TSFNTFontRK14TDataReferencem
   fun:_ZNK7TFPFont9CopyTableEj
   fun:CGFontNameTableCreate
   fun:get_name_table
   fun:CGFontCopyPostScriptName
   fun:CGFontCreateFontsWithURL
   fun:CGFontFinderCreateFontWithPlatformFont
   fun:CGFontCreateWithPlatformFontAndVariation
   fun:_ZN19QCoreTextFontEngineC2EPK8__CTFontRK8QFontDefP24QCoreTextFontEngineMulti
   fun:_ZN24QCoreTextFontEngineMultiC2ERKjS1_RK8QFontDefb
}
{
   <insert_a_suppression_name_here>
   Memcheck:Leak
   fun:malloc
   fun:_Znwm
   fun:_ZL18CreateWrappedTableRK9TSFNTFontRK14TDataReferencem
   fun:_ZNK7TFPFont9CopyTableEj
   fun:_ZNK9TBaseFont9CopyTableEjj
   fun:_ZNK19QCoreTextFontEngine16getSfntTableDataEjPhPj
   fun:_ZNK11QFontEngine12getSfntTableEj
   fun:_ZN19QCoreTextFontEngineC2EPK8__CTFontRK8QFontDefP24QCoreTextFontEngineMulti
   fun:_ZN24QCoreTextFontEngineMultiC2ERKjS1_RK8QFontDefb
   fun:_ZN13QFontDatabase4loadEPK12QFontPrivatei
   fun:_ZNK12QFontPrivate15engineForScriptEi
   fun:_ZNK11QTextEngine10fontEngineERK11QScriptItemP6QFixedS4_S4_
}
{
   <insert_a_suppression_name_here>
   Memcheck:Leak
   fun:malloc
   fun:CGFontGetHMetrics
   fun:_ZNK9TBaseFont20CalculateFontMetricsEb
   fun:_ZNK9TBaseFont15InitFontMetricsEv
   fun:_ZNK9TBaseFont16GetStrikeMetricsEdPK17CGAffineTransformb
   fun:_ZNK5TFont17InitStrikeMetricsEv
   fun:CTFontGetAscent
   fun:_ZNK19QCoreTextFontEngine6ascentEv
   fun:_ZNK16QFontEngineMulti6ascentEv
   fun:_ZNK11QTextEngine10fontEngineERK11QScriptItemP6QFixedS4_S4_
   fun:_ZNK11QTextEngine12shapeTextMacEi
   fun:_ZNK11QTextEngine9shapeTextEi
}
{
   <insert_a_suppression_name_here>
   Memcheck:Leak
   fun:malloc
   fun:_Znwm
   fun:_ZL18CreateWrappedTableRK9TSFNTFontRK14TDataReferencem
   fun:_ZNK7TFPFont9CopyTableEj
   fun:_ZNK9TBaseFont9CopyTableEj
   fun:_ZN14TAATMorphTableC2ER5TLinelj
   fun:_ZN18TAATMorphTableMorxC2ER5TLinelR10TGlyphListI18TDeletedGlyphIndexE
   fun:_ZN14TShapingEngine11ShapeGlyphsER5TLineRK11TCharStream
   fun:_ZNK11TTypesetter14FinishEncodingER5TLineh
   fun:_ZN21TTypesetterAttrString10InitializeEv
   fun:CTTypesetterCreateWithAttributedString
   fun:_ZNK24QCoreTextFontEngineMulti12stringToCMapEPK5QChariP12QGlyphLayoutPi6QFlagsIN11QTextEngine10ShaperFlagEEPtPK17HB_CharAttributes
}
{
   <insert_a_suppression_name_here>
   Memcheck:Leak
   fun:malloc_zone_malloc
   fun:__CFBasicHashRehash
   fun:__CFBasicHashAddValue
   fun:CFBasicHashSetValue
   fun:CFDictionarySetValue
   fun:CGSCacheGetUniqueID
   fun:CGFontGetGFID
   fun:CGFontGetIdentifier
   fun:CGGlyphLockAccess
   fun:ripc_DrawGlyphs
   fun:draw_glyphs
   fun:CGContextShowGlyphsWithAdvances
}
{
   <insert_a_suppression_name_here>
   Memcheck:Leak
   fun:malloc_zone_malloc
   fun:__CFBasicHashRehash
   fun:__CFBasicHashAddValue
   fun:CFBasicHashSetValue
   fun:CFDictionarySetValue
   fun:CGSCacheGetUniqueID
   fun:CGFontGetGFID
   fun:CGFontGetIdentifier
   fun:CGGlyphLockAccess
   fun:ripc_DrawGlyphs
   fun:draw_glyphs
   fun:CGContextShowGlyphsWithAdvances
}
{
   <insert_a_suppression_name_here>
   Memcheck:Leak
   fun:malloc_zone_malloc
   fun:CFNotificationCenterAddObserver
   fun:pthread_once
   fun:CMSCreateDisplayProfile
   fun:create
   fun:CMSCreateDataProvider
   fun:create_display_space_with_id
   fun:create_display_color_space
   fun:CGColorSpaceCreateWithIndex
   fun:resolveSource
   fun:initializeConvertParams
   fun:CGColorTransformConvertColorFloatComponents
}
{
   <insert_a_suppression_name_here>
   Memcheck:Leak
   fun:malloc_zone_malloc
   fun:__CFBasicHashRehash
   fun:CFDictionaryCreate
   fun:CreateProfileSet
   fun:profileRef
   fun:create
   fun:aquireColorWorldByAttributes
   fun:acquireColorWorld
   fun:CMSTransformConvertComponents
   fun:CGCMSInterfaceTransformConvertColorComponents
   fun:CGColorTransformConvertColorFloatComponents
   fun:ripc_GetColor
}
{
   <insert_a_suppression_name_here>
   Memcheck:Leak
   fun:malloc_zone_malloc
   fun:__CFBasicHashRehash
   fun:CFDictionaryCreate
   fun:CreateProfileSet
   fun:profileRef
   fun:create
   fun:aquireColorWorldByAttributes
   fun:acquireColorWorld
   fun:CMSTransformConvertComponents
   fun:CGCMSInterfaceTransformConvertColorComponents
   fun:CGColorTransformConvertColorFloatComponents
   fun:ripc_GetColor
}
{
   <insert_a_suppression_name_here>
   Memcheck:Leak
   fun:malloc_zone_malloc
   fun:__CFBasicHashRehash
   fun:CFDictionaryCreate
   fun:CreateProfileSet
   fun:profileRef
   fun:create
   fun:aquireColorWorldByAttributes
   fun:acquireColorWorld
   fun:CMSTransformConvertComponents
   fun:CGCMSInterfaceTransformConvertColorComponents
   fun:CGColorTransformConvertColorFloatComponents
   fun:ripc_GetColor
}
{
   <insert_a_suppression_name_here>
   Memcheck:Leak
   fun:malloc_zone_malloc
   fun:__CFBasicHashRehash
   fun:CFDictionaryCreate
   fun:CreateProfileSet
   fun:profileRef
   fun:create
   fun:aquireColorWorldByAttributes
   fun:acquireColorWorld
   fun:CMSTransformConvertComponents
   fun:CGCMSInterfaceTransformConvertColorComponents
   fun:CGColorTransformConvertColorFloatComponents
   fun:ripc_GetColor
}
{
   <insert_a_suppression_name_here>
   Memcheck:Leak
   fun:malloc_zone_realloc
   fun:attachMethodLists
   fun:attachCategoryMethods
   fun:realizeClass
   fun:_objc_fixupMessageRef
   fun:objc_msgSend_fixup
   fun:_ZN17QGLContextPrivate9tryFormatERK9QGLFormat
   fun:_ZN10QGLContext15chooseMacVisualEPP7GDevice
   fun:_ZN10QGLContext13chooseContextEPKS_
   fun:_ZN10QGLContext6createEPKS_
   fun:_ZN9QGLWidget10setContextEP10QGLContextPKS0_b
   fun:_ZN16QGLWidgetPrivate11initContextEP10QGLContextPK9QGLWidget
}
{
   <insert_a_suppression_name_here>
   Memcheck:Leak
   fun:malloc
   fun:gfxPluginConnectAll
   fun:gliGetVersion
   fun:glcNoop
   fun:glcGetIOAccelService
   fun:glcGetIOAccelService
   fun:CGLGetPixelFormatRetainCount
   fun:CGLChoosePixelFormat
   fun:createPixelFormat
   fun:-[NSOpenGLPixelFormat initWithAttributes:]
   fun:_ZN17QGLContextPrivate9tryFormatERK9QGLFormat
   fun:_ZN10QGLContext15chooseMacVisualEPP7GDevice
}
{
   <insert_a_suppression_name_here>
   Memcheck:Leak
   fun:malloc
   fun:gfxPluginConnectAll
   fun:gliGetVersion
   fun:glcNoop
   fun:glcGetIOAccelService
   fun:glcGetIOAccelService
   fun:CGLGetPixelFormatRetainCount
   fun:CGLChoosePixelFormat
   fun:createPixelFormat
   fun:-[NSOpenGLPixelFormat initWithAttributes:]
   fun:_ZN17QGLContextPrivate9tryFormatERK9QGLFormat
   fun:_ZN10QGLContext15chooseMacVisualEPP7GDevice
}
{
   <insert_a_suppression_name_here>
   Memcheck:Leak
   fun:calloc
   fun:gldCopyTexSubImage
   fun:gldBufferSubData
   fun:gldInitializeLibrary
   fun:gfxPluginConnectAll
   fun:gliGetVersion
   fun:glcNoop
   fun:glcGetIOAccelService
   fun:glcGetIOAccelService
   fun:CGLGetPixelFormatRetainCount
   fun:CGLChoosePixelFormat
   fun:createPixelFormat
}
{
   <insert_a_suppression_name_here>
   Memcheck:Leak
   fun:malloc_zone_realloc
   fun:attachMethodLists
   fun:attachCategoryMethods
   fun:realizeClass
   fun:_class_getNonMetaClass
   fun:_class_initialize
   fun:prepareForMethodLookup
   fun:lookUpMethod
   fun:objc_msgSend
   fun:_ZN10QGLContext13chooseContextEPKS_
   fun:_ZN10QGLContext6createEPKS_
   fun:_ZN9QGLWidget10setContextEP10QGLContextPKS0_b
}
{
   <insert_a_suppression_name_here>
   Memcheck:Leak
   fun:malloc_zone_malloc
   fun:__CFBasicHashRehash
   fun:__CFBasicHashAddValue
   fun:CFBasicHashAddValue
   fun:CFRunLoopAddSource
   fun:__CFSetApplyFunction_block_invoke_1
   fun:CFBasicHashApply
   fun:CFSetApplyFunction
   fun:CFRunLoopAddSource
   fun:SetEventQueueRunLoop
   fun:TBObjectAllocate
   fun:GetMainEventQueue
}
{
   <insert_a_suppression_name_here>
   Memcheck:Leak
   fun:malloc_zone_malloc
   fun:__CFBasicHashRehash
   fun:__CFBasicHashAddValue
   fun:CFBasicHashAddValue
   fun:CFRunLoopAddSource
   fun:__CFSetApplyFunction_block_invoke_1
   fun:CFBasicHashApply
   fun:CFSetApplyFunction
   fun:CFRunLoopAddSource
   fun:SetEventQueueRunLoop
   fun:TBObjectAllocate
   fun:GetMainEventQueue
}
{
   <insert_a_suppression_name_here>
   Memcheck:Leak
   fun:malloc_zone_realloc
   fun:attachMethodLists
   fun:attachCategoryMethods
   fun:realizeClass
   fun:_objc_fixupMessageRef
   fun:objc_msgSend_fixup
   fun:_Z22qt_mac_get_scalefactorv
   fun:_ZN12QStyleHelper9dpiScaledEd
   fun:_ZNK12QCommonStyle11pixelMetricEN6QStyle11PixelMetricEPK12QStyleOptionPK7QWidget
   fun:_ZNK13QWindowsStyle11pixelMetricEN6QStyle11PixelMetricEPK12QStyleOptionPK7QWidget
   fun:_ZNK9QMacStyle11pixelMetricEN6QStyle11PixelMetricEPK12QStyleOptionPK7QWidget
   fun:_ZNK7QSlider8sizeHintEv
}
{
   <insert_a_suppression_name_here>
   Memcheck:Leak
   fun:malloc_zone_realloc
   fun:attachMethodLists
   fun:attachCategoryMethods
   fun:realizeClass
   fun:prepareForMethodLookup
   fun:lookUpMethod
   fun:objc_msgSend
   fun:-[NSNextStepFrame _resetDragMargins]
   fun:-[NSNextStepFrame initWithFrame:styleMask:owner:]
   fun:-[NSWindow _commonInitFrame:styleMask:backing:defer:]
   fun:-[NSWindow _initContent:styleMask:backing:defer:contentView:]
   fun:-[NSPanel _initContent:styleMask:backing:defer:contentView:]
}
{
   <insert_a_suppression_name_here>
   Memcheck:Leak
   fun:calloc
   fun:_internal_class_createInstanceFromZone
   fun:+[NSObject(NSObject) allocWithZone:]
   fun:+[NSSet allocWithZone:]
   fun:+[_NSDisplayOperationStack initialize]
   fun:_class_initialize
   fun:prepareForMethodLookup
   fun:lookUpMethod
   fun:objc_msgSend
   fun:-[NSWindow _lockViewHierarchyForDrawingWithExceptionHandler:]
   fun:-[NSNextStepFrame tile]
   fun:-[NSNextStepFrame initWithFrame:styleMask:owner:]
}
{
   <insert_a_suppression_name_here>
   Memcheck:Leak
   fun:malloc_zone_malloc
   fun:__CFBasicHashRehash
   fun:CFDictionaryCreate
   fun:-[__NSPlaceholderDictionary initWithObjects:forKeys:count:]
   fun:+[NSDictionary dictionaryWithObject:forKey:]
   fun:+[NSTitledFrame initialize]
   fun:_class_initialize
   fun:_class_initialize
   fun:prepareForMethodLookup
   fun:lookUpMethod
   fun:objc_msgSend
   fun:-[NSWindow _usesCustomDrawing]
}
{
   <insert_a_suppression_name_here>
   Memcheck:Leak
   fun:malloc_zone_malloc
   fun:__CFBasicHashRehash
   fun:__CFBasicHashAddValue
   fun:CFBasicHashAddValue
   fun:CFRunLoopAddSource
   fun:__CFSetApplyFunction_block_invoke_1
   fun:CFBasicHashApply
   fun:CFSetApplyFunction
   fun:CFRunLoopAddSource
   fun:_FSAddVolumeObserver
   fun:RequestVolumeNotificationWithFlags
   fun:_ZN13CIconRefArrayC2Ev
}
{
   <insert_a_suppression_name_here>
   Memcheck:Leak
   fun:malloc_zone_realloc
   fun:attachMethodLists
   fun:attachCategoryMethods
   fun:realizeClass
   fun:prepareForMethodLookup
   fun:lookUpMethod
   fun:objc_msgSend
   fun:+[NSTypesetter initialize]
   fun:_class_initialize
   fun:prepareForMethodLookup
   fun:lookUpMethod
   fun:objc_msgSend
}
{
   <insert_a_suppression_name_here>
   Memcheck:Leak
   fun:malloc_zone_realloc
   fun:attachMethodLists
   fun:attachCategoryMethods
   fun:realizeClass
   fun:_class_getNonMetaClass
   fun:_class_initialize
   fun:prepareForMethodLookup
   fun:lookUpMethod
   fun:objc_msgSend
   fun:-[NSTextFieldCell interiorBackgroundStyle]
   fun:-[NSCell _textAttributes]
   fun:-[NSTextFieldCell _textAttributes]
}
{
   <insert_a_suppression_name_here>
   Memcheck:Leak
   fun:malloc_zone_malloc
   fun:__CFBasicHashRehash
   fun:__CFBasicHashAddValue
   fun:CFBasicHashAddValue
   fun:CreateCLUT
   fun:_NSReadThemePatternFromRsrc
   fun:_NSReadThemeImageFromplutEntry
   fun:GetThemeImage
   fun:+[NSColor _controlColor]
   fun:-[NSDynamicSystemColor recacheColor]
   fun:-[NSDynamicSystemColor initWithSelector:]
   fun:+[NSColor controlColor]
}
{
   <insert_a_suppression_name_here>
   Memcheck:Leak
   fun:malloc_zone_malloc
   fun:__CFBasicHashRehash
   fun:__CFBasicHashAddValue
   fun:CFBasicHashSetValue
   fun:CFDictionarySetValue
   fun:-[NSCFDictionary setObject:forKey:]
   fun:-[NSBitmapImageRep(NSBitmapImageFileTypeExtensions) setProperty:withValue:]
   fun:-[NSBitmapImageRep _bitmapImageRep_setColorSpaceName:]
   fun:-[NSBitmapImageRep initWithBitmapDataPlanes:pixelsWide:pixelsHigh:bitsPerSample:samplesPerPixel:hasAlpha:isPlanar:colorSpaceName:bitmapFormat:bytesPerRow:bitsPerPixel:]
   fun:-[NSBitmapImageRep initWithBitmapDataPlanes:pixelsWide:pixelsHigh:bitsPerSample:samplesPerPixel:hasAlpha:isPlanar:colorSpaceName:bytesPerRow:bitsPerPixel:]
   fun:_NSReadThemePatternFromRsrc
   fun:_NSReadThemeImageFromplutEntry
}
{
   <insert_a_suppression_name_here>
   Memcheck:Leak
   fun:malloc_zone_malloc
   fun:__CFBasicHashRehash
   fun:__CFBasicHashAddValue
   fun:CFBasicHashAddValue
   fun:GetThemeImage
   fun:+[NSColor _controlColor]
   fun:-[NSDynamicSystemColor recacheColor]
   fun:-[NSDynamicSystemColor initWithSelector:]
   fun:+[NSColor controlColor]
   fun:-[NSTextFieldCell drawsBackground]
   fun:-[NSTextFieldCell interiorBackgroundStyle]
   fun:-[NSCell _textAttributes]
}
{
   <insert_a_suppression_name_here>
   Memcheck:Leak
   fun:malloc_zone_malloc
   fun:__CFBasicHashRehash
   fun:__CFBasicHashAddValue
   fun:CFBasicHashSetValue
   fun:CFDictionarySetValue
   fun:_ZNK9TBaseFont26CreateDescriptorAttributesEv
   fun:_ZNK11TDescriptor13GetAttributesEv
   fun:_ZNK11TDescriptor14CopyAttributesEv
   fun:_ZNK5TFont14CopyDescriptorEv
   fun:-[__NSSharedFontInstanceInfo _fontDescriptor]
   fun:-[NSCell _textAttributes]
   fun:-[NSTextFieldCell _textAttributes]
}
{
   <insert_a_suppression_name_here>
   Memcheck:Leak
   fun:malloc_zone_malloc
   fun:CFBasicHashCreateCopy
   fun:CFDictionaryCreateMutableCopy
   fun:_ZN20TCFMutableDictionaryC2EPK14__CFDictionaryl
   fun:_ZNK5TFont14CopyDescriptorEv
   fun:-[__NSSharedFontInstanceInfo _fontDescriptor]
   fun:-[NSCell _textAttributes]
   fun:-[NSTextFieldCell _textAttributes]
   fun:__NSGetStringAndAttributesFromTextCell
   fun:_NSGetTextCellBoundingRect
   fun:-[NSCell cellSizeForBounds:]
   fun:-[NSTextFieldCell cellSizeForBounds:]
}
{
   <insert_a_suppression_name_here>
   Memcheck:Leak
   fun:malloc_zone_malloc
   fun:__CFBasicHashRehash
   fun:CFDictionaryCreate
   fun:CreateProfileSet
   fun:profileRef
   fun:create
   fun:CMSTransformCreate
   fun:initialize
   fun:createColorTransform
   fun:CGColorTransformCreate
   fun:convertColorToColorSpaceNamed
   fun:-[NSCalibratedWhiteColor colorUsingColorSpaceName:device:]
}
{
   <insert_a_suppression_name_here>
   Memcheck:Leak
   fun:malloc_zone_malloc
   fun:__CFBasicHashRehash
   fun:CFDictionaryCreate
   fun:CreateProfileSet
   fun:profileRef
   fun:create
   fun:CMSTransformCreate
   fun:initialize
   fun:createColorTransform
   fun:CGColorTransformCreate
   fun:convertColorToColorSpaceNamed
   fun:-[NSCalibratedWhiteColor colorUsingColorSpaceName:device:]
}
{
   <insert_a_suppression_name_here>
   Memcheck:Leak
   fun:malloc_zone_malloc
   fun:__CFBasicHashRehash
   fun:CFDictionaryCreate
   fun:CreateProfileSet
   fun:profileRef
   fun:create
   fun:aquireColorWorldByAttributes
   fun:acquireColorWorld
   fun:CMSTransformConvertComponents
   fun:CGCMSInterfaceTransformConvertColorComponents
   fun:CGColorTransformConvertColorFloatComponents
   fun:CGColorTransformConvertColorComponents
}
{
   <insert_a_suppression_name_here>
   Memcheck:Leak
   fun:malloc_zone_malloc
   fun:__CFBasicHashRehash
   fun:CFDictionaryCreate
   fun:CreateProfileSet
   fun:profileRef
   fun:create
   fun:aquireColorWorldByAttributes
   fun:acquireColorWorld
   fun:CMSTransformConvertComponents
   fun:CGCMSInterfaceTransformConvertColorComponents
   fun:CGColorTransformConvertColorFloatComponents
   fun:CGColorTransformConvertColorComponents
}
{
   <insert_a_suppression_name_here>
   Memcheck:Leak
   fun:malloc_zone_malloc
   fun:__CFBasicHashRehash
   fun:__CFBasicHashAddValue
   fun:CFBasicHashSetValue
   fun:CFDictionarySetValue
   fun:addToSpaces
   fun:aquireColorWorldByAttributes
   fun:acquireColorWorld
   fun:CMSTransformConvertComponents
   fun:CGCMSInterfaceTransformConvertColorComponents
   fun:CGColorTransformConvertColorFloatComponents
   fun:CGColorTransformConvertColorComponents
}
{
   <insert_a_suppression_name_here>
   Memcheck:Leak
   fun:malloc_zone_malloc
   fun:__CFBasicHashRehash
   fun:__CFBasicHashAddValue
   fun:CFBasicHashSetValue
   fun:CFDictionarySetValue
   fun:addToTokens
   fun:aquireColorWorldByAttributes
   fun:acquireColorWorld
   fun:CMSTransformConvertComponents
   fun:CGCMSInterfaceTransformConvertColorComponents
   fun:CGColorTransformConvertColorFloatComponents
   fun:CGColorTransformConvertColorComponents
}
{
   <insert_a_suppression_name_here>
   Memcheck:Leak
   fun:malloc_zone_malloc
   fun:__CFBasicHashRehash
   fun:__CFBasicHashAddValue
   fun:CFBasicHashSetValue
   fun:CFDictionarySetValue
   fun:insertInTable
   fun:-[NSColorList _initWithName:fromPath:forDeviceType:lazy:]
   fun:+[NSColorList _loadSystemScreenColorList]
   fun:+[NSColorList initialize]
   fun:_class_initialize
   fun:prepareForMethodLookup
   fun:lookUpMethod
}
{
   <insert_a_suppression_name_here>
   Memcheck:Leak
   fun:malloc_zone_malloc
   fun:__CFBasicHashRehash
   fun:CFDictionaryCreate
   fun:displayGrayCreate
   fun:create
   fun:aquireColorWorldByAttributes
   fun:acquireColorWorld
   fun:CMSTransformConvertComponents
   fun:CGCMSInterfaceTransformConvertColorComponents
   fun:CGColorTransformConvertColorFloatComponents
   fun:CGColorTransformConvertColorComponents
   fun:CGColorTransformConvertColor
}
{
   <insert_a_suppression_name_here>
   Memcheck:Leak
   fun:malloc_zone_malloc
   fun:__CFBasicHashRehash
   fun:CFDictionaryCreate
   fun:displayGrayCreate
   fun:create
   fun:aquireColorWorldByAttributes
   fun:acquireColorWorld
   fun:CMSTransformConvertComponents
   fun:CGCMSInterfaceTransformConvertColorComponents
   fun:CGColorTransformConvertColorFloatComponents
   fun:CGColorTransformConvertColorComponents
   fun:CGColorTransformConvertColor
}
{
   <insert_a_suppression_name_here>
   Memcheck:Leak
   fun:malloc_zone_malloc
   fun:__CFBasicHashRehash
   fun:CFDictionaryCreate
   fun:displayGrayCreate
   fun:create
   fun:aquireColorWorldByAttributes
   fun:acquireColorWorld
   fun:CMSTransformConvertComponents
   fun:CGCMSInterfaceTransformConvertColorComponents
   fun:CGColorTransformConvertColorFloatComponents
   fun:CGColorTransformConvertColorComponents
   fun:CGColorTransformConvertColor
}
{
   <insert_a_suppression_name_here>
   Memcheck:Leak
   fun:malloc_zone_malloc
   fun:__CFBasicHashRehash
   fun:CFDictionaryCreate
   fun:displayGrayCreate
   fun:create
   fun:aquireColorWorldByAttributes
   fun:acquireColorWorld
   fun:CMSTransformConvertComponents
   fun:CGCMSInterfaceTransformConvertColorComponents
   fun:CGColorTransformConvertColorFloatComponents
   fun:CGColorTransformConvertColorComponents
   fun:CGColorTransformConvertColor
}
{
   <insert_a_suppression_name_here>
   Memcheck:Leak
   fun:malloc_zone_malloc
   fun:__CFBasicHashRehash
   fun:CFDictionaryCreate
   fun:displayGrayCreate
   fun:create
   fun:aquireColorWorldByAttributes
   fun:acquireColorWorld
   fun:CMSTransformConvertComponents
   fun:CGCMSInterfaceTransformConvertColorComponents
   fun:CGColorTransformConvertColorFloatComponents
   fun:CGColorTransformConvertColorComponents
   fun:CGColorTransformConvertColor
}
{
   <insert_a_suppression_name_here>
   Memcheck:Leak
   fun:malloc_zone_malloc
   fun:__CFBasicHashRehash
   fun:CFDictionaryCreate
   fun:displayGrayCreate
   fun:create
   fun:aquireColorWorldByAttributes
   fun:acquireColorWorld
   fun:CMSTransformConvertComponents
   fun:CGCMSInterfaceTransformConvertColorComponents
   fun:CGColorTransformConvertColorFloatComponents
   fun:CGColorTransformConvertColorComponents
   fun:CGColorTransformConvertColor
}
{
   <insert_a_suppression_name_here>
   Memcheck:Leak
   fun:malloc_zone_malloc
   fun:__CFBasicHashRehash
   fun:CFDictionaryCreate
   fun:displayGrayCreate
   fun:create
   fun:aquireColorWorldByAttributes
   fun:acquireColorWorld
   fun:CMSTransformConvertComponents
   fun:CGCMSInterfaceTransformConvertColorComponents
   fun:CGColorTransformConvertColorFloatComponents
   fun:CGColorTransformConvertColorComponents
   fun:CGColorTransformConvertColor
}
{
   <insert_a_suppression_name_here>
   Memcheck:Leak
   fun:malloc_zone_malloc
   fun:__CFBasicHashRehash
   fun:CFDictionaryCreate
   fun:displayGrayCreate
   fun:create
   fun:aquireColorWorldByAttributes
   fun:acquireColorWorld
   fun:CMSTransformConvertComponents
   fun:CGCMSInterfaceTransformConvertColorComponents
   fun:CGColorTransformConvertColorFloatComponents
   fun:CGColorTransformConvertColorComponents
   fun:CGColorTransformConvertColor
}
{
   <insert_a_suppression_name_here>
   Memcheck:Leak
   fun:malloc_zone_malloc
   fun:__CFBasicHashRehash
   fun:CFDictionaryCreate
   fun:-[__NSPlaceholderDictionary initWithObjects:forKeys:count:]
   fun:-[NSDictionary initWithObjectsAndKeys:]
   fun:_NSFaultingObjectWithStorageLocationAndNewObjectProviderBlock
   fun:CopyDefaultFocusRingCGColorRef
   fun:+[NSDynamicSystemColor keyboardFocusIndicatorColor]
   fun:-[NSDynamicSystemColor recacheColor]
   fun:-[NSDynamicSystemColor initWithSelector:]
   fun:+[NSColor keyboardFocusIndicatorColor]
   fun:+[NSColor colorWithCatalogName:colorName:]
}
{
   <insert_a_suppression_name_here>
   Memcheck:Leak
   fun:malloc_zone_malloc
   fun:__CFBasicHashRehash
   fun:CFDictionaryCreate
   fun:-[__NSPlaceholderDictionary initWithObjects:forKeys:count:]
   fun:-[NSDictionary initWithObjectsAndKeys:]
   fun:_NSFaultingObjectWithStorageLocationAndNewObjectProviderBlock
   fun:CopyDefaultFocusRingCGColorRef
   fun:+[NSDynamicSystemColor keyboardFocusIndicatorColor]
   fun:-[NSDynamicSystemColor recacheColor]
   fun:-[NSDynamicSystemColor initWithSelector:]
   fun:+[NSColor keyboardFocusIndicatorColor]
   fun:+[NSColor colorWithCatalogName:colorName:]
}
{
   <insert_a_suppression_name_here>
   Memcheck:Leak
   fun:malloc_zone_malloc
   fun:CFBasicHashCreateCopy
   fun:CFDictionaryCreateMutableCopy
   fun:_ZN20TCFMutableDictionaryC2EPK14__CFDictionaryl
   fun:_ZNK9TBaseFont8CopyNameEPK10__CFStringj
   fun:_ZL26FontIsMicrosoftWindowsFontPK9TBaseFont
   fun:_ZNK9TBaseFont22GetGlyphsForCharactersEPKtPtl
   fun:CTFontGetGlyphsForCharacters
   fun:-[__NSFontTypefaceInfo _latin1MappingTableWithPlatformFont:hasKernPair:]
   fun:-[NSFont _latin1MappingTable:]
   fun:+[NSStringDrawingTextStorage _fastDrawString:attributes:length:inRect:graphicsContext:baselineRendering:usesFontLeading:usesScreenFont:typesetterBehavior:paragraphStyle:lineBreakMode:boundingRect:padding:scrollable:]
   fun:-[NSString(NSExtendedStringDrawing) boundingRectWithSize:options:attributes:]
}
{
   <insert_a_suppression_name_here>
   Memcheck:Leak
   fun:malloc_zone_malloc
   fun:CFBasicHashCreateCopy
   fun:CFDictionaryCreateMutableCopy
   fun:_ZN20TCFMutableDictionaryC2EPK14__CFDictionaryl
   fun:_ZNK9TBaseFont8CopyNameEPK10__CFStringj
   fun:_ZL26FontIsMicrosoftWindowsFontPK9TBaseFont
   fun:_ZNK9TBaseFont22GetGlyphsForCharactersEPKtPtl
   fun:CTFontGetGlyphsForCharacters
   fun:-[__NSFontTypefaceInfo _latin1MappingTableWithPlatformFont:hasKernPair:]
   fun:-[NSFont _latin1MappingTable:]
   fun:+[NSStringDrawingTextStorage _fastDrawString:attributes:length:inRect:graphicsContext:baselineRendering:usesFontLeading:usesScreenFont:typesetterBehavior:paragraphStyle:lineBreakMode:boundingRect:padding:scrollable:]
   fun:-[NSString(NSExtendedStringDrawing) boundingRectWithSize:options:attributes:]
}
{
   <insert_a_suppression_name_here>
   Memcheck:Leak
   fun:malloc_zone_malloc
   fun:__CFBasicHashRehash
   fun:__CFBasicHashAddValue
   fun:CFBasicHashAddValue
   fun:CFRunLoopAddSource
   fun:__CFSetApplyFunction_block_invoke_1
   fun:CFBasicHashApply
   fun:CFSetApplyFunction
   fun:CFRunLoopAddSource
   fun:_FSAddVolumeObserver
   fun:RequestVolumeNotificationWithFlags
   fun:_ZN13CIconRefArrayC2Ev
}
{
   <insert_a_suppression_name_here>
   Memcheck:Leak
   fun:malloc_zone_malloc
   fun:__CFBasicHashRehash
   fun:__CFBasicHashAddValue
   fun:CFBasicHashAddValue
   fun:CreateCLUT
   fun:_NSReadThemePatternFromRsrc
   fun:_NSReadThemeImageFromplutEntry
   fun:GetThemeImage
   fun:+[NSColor _controlColor]
   fun:-[NSDynamicSystemColor recacheColor]
   fun:-[NSDynamicSystemColor initWithSelector:]
   fun:+[NSColor controlColor]
}
{
   <insert_a_suppression_name_here>
   Memcheck:Leak
   fun:malloc_zone_malloc
   fun:__CFBasicHashRehash
   fun:__CFBasicHashAddValue
   fun:CFBasicHashSetValue
   fun:CFDictionarySetValue
   fun:-[NSCFDictionary setObject:forKey:]
   fun:-[NSBitmapImageRep(NSBitmapImageFileTypeExtensions) setProperty:withValue:]
   fun:-[NSBitmapImageRep _bitmapImageRep_setColorSpaceName:]
   fun:-[NSBitmapImageRep initWithBitmapDataPlanes:pixelsWide:pixelsHigh:bitsPerSample:samplesPerPixel:hasAlpha:isPlanar:colorSpaceName:bitmapFormat:bytesPerRow:bitsPerPixel:]
   fun:-[NSBitmapImageRep initWithBitmapDataPlanes:pixelsWide:pixelsHigh:bitsPerSample:samplesPerPixel:hasAlpha:isPlanar:colorSpaceName:bytesPerRow:bitsPerPixel:]
   fun:_NSReadThemePatternFromRsrc
   fun:_NSReadThemeImageFromplutEntry
}
{
   <insert_a_suppression_name_here>
   Memcheck:Leak
   fun:malloc_zone_malloc
   fun:__CFBasicHashRehash
   fun:__CFBasicHashAddValue
   fun:CFBasicHashAddValue
   fun:GetThemeImage
   fun:+[NSColor _controlColor]
   fun:-[NSDynamicSystemColor recacheColor]
   fun:-[NSDynamicSystemColor initWithSelector:]
   fun:+[NSColor controlColor]
   fun:-[NSTextFieldCell drawsBackground]
   fun:-[NSTextFieldCell interiorBackgroundStyle]
   fun:-[NSCell _textAttributes]
}
{
   <insert_a_suppression_name_here>
   Memcheck:Leak
   fun:calloc
   fun:_internal_class_createInstanceFromZone
   fun:+[NSObject(NSObject) allocWithZone:]
   fun:+[NSColor _colorWithGradientImage:]
   fun:+[NSColor _controlColor]
   fun:-[NSDynamicSystemColor recacheColor]
   fun:-[NSDynamicSystemColor initWithSelector:]
   fun:+[NSColor controlColor]
   fun:-[NSTextFieldCell drawsBackground]
   fun:-[NSTextFieldCell interiorBackgroundStyle]
   fun:-[NSCell _textAttributes]
   fun:-[NSTextFieldCell _textAttributes]
}
{
   <insert_a_suppression_name_here>
   Memcheck:Leak
   fun:malloc_zone_malloc
   fun:__CFBasicHashRehash
   fun:__CFBasicHashAddValue
   fun:CFBasicHashSetValue
   fun:CFDictionarySetValue
   fun:_ZNK9TBaseFont26CreateDescriptorAttributesEv
   fun:_ZNK11TDescriptor13GetAttributesEv
   fun:_ZNK11TDescriptor14CopyAttributesEv
   fun:_ZNK5TFont14CopyDescriptorEv
   fun:-[__NSSharedFontInstanceInfo _fontDescriptor]
   fun:-[NSCell _textAttributes]
   fun:-[NSTextFieldCell _textAttributes]
}
{
   <insert_a_suppression_name_here>
   Memcheck:Leak
   fun:malloc_zone_malloc
   fun:CFBasicHashCreateCopy
   fun:CFDictionaryCreateMutableCopy
   fun:_ZN20TCFMutableDictionaryC2EPK14__CFDictionaryl
   fun:_ZNK5TFont14CopyDescriptorEv
   fun:-[__NSSharedFontInstanceInfo _fontDescriptor]
   fun:-[NSCell _textAttributes]
   fun:-[NSTextFieldCell _textAttributes]
   fun:__NSGetStringAndAttributesFromTextCell
   fun:_NSGetTextCellBoundingRect
   fun:-[NSCell cellSizeForBounds:]
   fun:-[NSTextFieldCell cellSizeForBounds:]
}
{
   <insert_a_suppression_name_here>
   Memcheck:Leak
   fun:malloc_zone_malloc
   fun:__CFBasicHashRehash
   fun:CFDictionaryCreate
   fun:CreateProfileSet
   fun:profileRef
   fun:create
   fun:CMSTransformCreate
   fun:initialize
   fun:createColorTransform
   fun:CGColorTransformCreate
   fun:convertColorToColorSpaceNamed
   fun:-[NSCalibratedWhiteColor colorUsingColorSpaceName:device:]
}
{
   <insert_a_suppression_name_here>
   Memcheck:Leak
   fun:malloc_zone_malloc
   fun:__CFBasicHashRehash
   fun:CFDictionaryCreate
   fun:CreateProfileSet
   fun:profileRef
   fun:create
   fun:CMSTransformCreate
   fun:initialize
   fun:createColorTransform
   fun:CGColorTransformCreate
   fun:convertColorToColorSpaceNamed
   fun:-[NSCalibratedWhiteColor colorUsingColorSpaceName:device:]
}
{
   <insert_a_suppression_name_here>
   Memcheck:Leak
   fun:malloc_zone_malloc
   fun:__CFBasicHashRehash
   fun:CFDictionaryCreate
   fun:CreateProfileSet
   fun:profileRef
   fun:create
   fun:aquireColorWorldByAttributes
   fun:acquireColorWorld
   fun:CMSTransformConvertComponents
   fun:CGCMSInterfaceTransformConvertColorComponents
   fun:CGColorTransformConvertColorFloatComponents
   fun:CGColorTransformConvertColorComponents
}
{
   <insert_a_suppression_name_here>
   Memcheck:Leak
   fun:malloc_zone_malloc
   fun:__CFBasicHashRehash
   fun:CFDictionaryCreate
   fun:CreateProfileSet
   fun:profileRef
   fun:create
   fun:aquireColorWorldByAttributes
   fun:acquireColorWorld
   fun:CMSTransformConvertComponents
   fun:CGCMSInterfaceTransformConvertColorComponents
   fun:CGColorTransformConvertColorFloatComponents
   fun:CGColorTransformConvertColorComponents
}
{
   <insert_a_suppression_name_here>
   Memcheck:Leak
   fun:malloc_zone_malloc
   fun:__CFBasicHashRehash
   fun:__CFBasicHashAddValue
   fun:CFBasicHashSetValue
   fun:CFDictionarySetValue
   fun:addToSpaces
   fun:aquireColorWorldByAttributes
   fun:acquireColorWorld
   fun:CMSTransformConvertComponents
   fun:CGCMSInterfaceTransformConvertColorComponents
   fun:CGColorTransformConvertColorFloatComponents
   fun:CGColorTransformConvertColorComponents
}
{
   <insert_a_suppression_name_here>
   Memcheck:Leak
   fun:malloc_zone_malloc
   fun:__CFBasicHashRehash
   fun:__CFBasicHashAddValue
   fun:CFBasicHashSetValue
   fun:CFDictionarySetValue
   fun:addToTokens
   fun:aquireColorWorldByAttributes
   fun:acquireColorWorld
   fun:CMSTransformConvertComponents
   fun:CGCMSInterfaceTransformConvertColorComponents
   fun:CGColorTransformConvertColorFloatComponents
   fun:CGColorTransformConvertColorComponents
}
{
   <insert_a_suppression_name_here>
   Memcheck:Leak
   fun:malloc_zone_realloc
   fun:attachMethodLists
   fun:attachCategoryMethods
   fun:realizeClass
   fun:_class_getNonMetaClass
   fun:_class_initialize
   fun:prepareForMethodLookup
   fun:lookUpMethod
   fun:objc_msgSend
   fun:-[NSCatalogColor colorUsingColorSpaceName:device:]
   fun:-[NSTextFieldCell _textAttributes]
   fun:__NSGetStringAndAttributesFromTextCell
}
{
   <insert_a_suppression_name_here>
   Memcheck:Leak
   fun:malloc_zone_malloc
   fun:__CFBasicHashRehash
   fun:__CFBasicHashAddValue
   fun:CFBasicHashSetValue
   fun:CFDictionarySetValue
   fun:insertInTable
   fun:-[NSColorList _initWithName:fromPath:forDeviceType:lazy:]
   fun:+[NSColorList _loadSystemScreenColorList]
   fun:+[NSColorList initialize]
   fun:_class_initialize
   fun:prepareForMethodLookup
   fun:lookUpMethod
}
{
   <insert_a_suppression_name_here>
   Memcheck:Leak
   fun:malloc_zone_malloc
   fun:__CFBasicHashRehash
   fun:__CFBasicHashAddValue
   fun:CFBasicHashSetValue
   fun:CFDictionarySetValue
   fun:_ZNK9TBaseFont8CopyNameEPK10__CFStringj
   fun:_ZNK9TBaseFont26CreateDescriptorAttributesEv
   fun:_ZNK11TDescriptor13GetAttributesEv
   fun:_ZNK11TDescriptor17GetLocalAttributeEPK10__CFString
   fun:_ZNK11TDescriptor13CopyAttributeEPK10__CFString
   fun:+[__NSFontTypefaceInfo typefaceInfoForPostscriptName:]
   fun:__NSFontFactoryWithName
}
{
   <insert_a_suppression_name_here>
   Memcheck:Leak
   fun:malloc_zone_malloc
   fun:__CFBasicHashRehash
   fun:__CFBasicHashAddValue
   fun:CFBasicHashSetValue
   fun:CFDictionarySetValue
   fun:_ZNK9TBaseFont8CopyNameEPK10__CFStringj
   fun:_ZNK9TBaseFont26CreateDescriptorAttributesEv
   fun:_ZNK11TDescriptor13GetAttributesEv
   fun:_ZNK11TDescriptor17GetLocalAttributeEPK10__CFString
   fun:_ZNK11TDescriptor13CopyAttributeEPK10__CFString
   fun:+[__NSFontTypefaceInfo typefaceInfoForPostscriptName:]
   fun:__NSFontFactoryWithName
}
{
   <insert_a_suppression_name_here>
   Memcheck:Leak
   fun:malloc_zone_malloc
   fun:__CFBasicHashRehash
   fun:__CFBasicHashAddValue
   fun:CFBasicHashSetValue
   fun:CFDictionarySetValue
   fun:_ZNK9TBaseFont20SetAttributeInternalEPKvS1_
   fun:_ZNK9TBaseFont8CopyNameEPK10__CFStringj
   fun:_ZNK9TBaseFont26CreateDescriptorAttributesEv
   fun:_ZNK11TDescriptor13GetAttributesEv
   fun:_ZNK11TDescriptor17GetLocalAttributeEPK10__CFString
   fun:_ZNK11TDescriptor13CopyAttributeEPK10__CFString
   fun:+[__NSFontTypefaceInfo typefaceInfoForPostscriptName:]
}
{
   <insert_a_suppression_name_here>
   Memcheck:Leak
   fun:malloc_zone_malloc
   fun:__CFBasicHashRehash
   fun:__CFBasicHashAddValue
   fun:CFBasicHashSetValue
   fun:CFDictionarySetValue
   fun:_ZNK9TBaseFont20SetAttributeInternalEPKvS1_
   fun:_ZNK9TBaseFont8CopyNameEPK10__CFStringj
   fun:_ZNK9TBaseFont26CreateDescriptorAttributesEv
   fun:_ZNK11TDescriptor13GetAttributesEv
   fun:_ZNK11TDescriptor17GetLocalAttributeEPK10__CFString
   fun:_ZNK11TDescriptor13CopyAttributeEPK10__CFString
   fun:+[__NSFontTypefaceInfo typefaceInfoForPostscriptName:]
}
{
   <insert_a_suppression_name_here>
   Memcheck:Leak
   fun:malloc_zone_malloc
   fun:__CFBasicHashRehash
   fun:__CFBasicHashAddValue
   fun:CFBasicHashSetValue
   fun:CFDictionarySetValue
   fun:_ZNK9TBaseFont26CreateDescriptorAttributesEv
   fun:_ZNK11TDescriptor13GetAttributesEv
   fun:_ZNK11TDescriptor17GetLocalAttributeEPK10__CFString
   fun:_ZNK11TDescriptor13CopyAttributeEPK10__CFString
   fun:+[__NSFontTypefaceInfo typefaceInfoForPostscriptName:]
   fun:__NSFontFactoryWithName
   fun:+[NSFont fontWithName:size:]
}
{
   <insert_a_suppression_name_here>
   Memcheck:Leak
   fun:malloc_zone_malloc
   fun:__CFBasicHashRehash
   fun:__CFBasicHashAddValue
   fun:CFBasicHashSetValue
   fun:CFDictionarySetValue
   fun:_ZNK9TBaseFont26CreateDescriptorAttributesEv
   fun:_ZNK11TDescriptor13GetAttributesEv
   fun:_ZNK11TDescriptor17GetLocalAttributeEPK10__CFString
   fun:_ZNK11TDescriptor13CopyAttributeEPK10__CFString
   fun:+[__NSFontTypefaceInfo typefaceInfoForPostscriptName:]
   fun:__NSFontFactoryWithName
   fun:+[NSFont fontWithName:size:]
}
{
   <insert_a_suppression_name_here>
   Memcheck:Leak
   fun:malloc_zone_realloc
   fun:attachMethodLists
   fun:attachCategoryMethods
   fun:realizeClass
   fun:_objc_fixupMessageRef
   fun:objc_msgSend_fixup
   fun:_ZN7QCursor3posEv
   fun:_ZN14QWidgetPrivate8show_sysEv
   fun:_ZN14QWidgetPrivate11show_helperEv
   fun:_ZN7QWidget10setVisibleEb
   fun:_ZN14QWidgetPrivate12showChildrenEb
   fun:_ZN14QWidgetPrivate11show_helperEv
}
{
   <insert_a_suppression_name_here>
   Memcheck:Leak
   fun:malloc_zone_malloc
   fun:__CFBasicHashRehash
   fun:__CFBasicHashAddValue
   fun:CFBasicHashSetValue
   fun:CFDictionarySetValue
   fun:-[NSWindow setMenu:]
   fun:-[NSWindow _commonAwake]
   fun:-[NSWindow _makeKeyRegardlessOfVisibility]
   fun:-[NSWindow makeKeyAndOrderFront:]
   fun:_ZN14QWidgetPrivate8show_sysEv
   fun:_ZN14QWidgetPrivate11show_helperEv
   fun:_ZN7QWidget10setVisibleEb
}
{
   <insert_a_suppression_name_here>
   Memcheck:Leak
   fun:malloc_zone_malloc
   fun:__CFBasicHashRehash
   fun:__CFBasicHashAddValue
   fun:CFBasicHashSetValue
   fun:CFDictionarySetValue
   fun:-[NSWindow setMenu:]
   fun:-[NSWindow _commonAwake]
   fun:-[NSWindow _makeKeyRegardlessOfVisibility]
   fun:-[NSWindow makeKeyAndOrderFront:]
   fun:_ZN14QWidgetPrivate8show_sysEv
   fun:_ZN14QWidgetPrivate11show_helperEv
   fun:_ZN7QWidget10setVisibleEb
}
{
   <insert_a_suppression_name_here>
   Memcheck:Leak
   fun:malloc_zone_malloc
   fun:__CFBasicHashRehash
   fun:__CFBasicHashAddValue
   fun:CFBasicHashSetValue
   fun:CFDictionarySetValue
   fun:-[NSWindow setMenu:]
   fun:-[NSWindow _commonAwake]
   fun:-[NSWindow _makeKeyRegardlessOfVisibility]
   fun:-[NSWindow makeKeyAndOrderFront:]
   fun:_ZN14QWidgetPrivate8show_sysEv
   fun:_ZN14QWidgetPrivate11show_helperEv
   fun:_ZN7QWidget10setVisibleEb
}
{
   <insert_a_suppression_name_here>
   Memcheck:Leak
   fun:malloc_zone_malloc
   fun:__CFBasicHashRehash
   fun:__CFBasicHashAddValue
   fun:CFBasicHashSetValue
   fun:CFDictionarySetValue
   fun:-[NSWindow setMenu:]
   fun:-[NSWindow _commonAwake]
   fun:-[NSWindow _makeKeyRegardlessOfVisibility]
   fun:-[NSWindow makeKeyAndOrderFront:]
